(dp0
S'ORB'
p1
(lp2
F3.263573832869896
a(lp3
F0.03954601287841797
aF0.037116050720214844
aF0.037956953048706055
aF0.03780102729797363
aF0.03731107711791992
aF0.036440134048461914
aF0.037384986877441406
aF0.03670692443847656
aF0.03718209266662598
aF0.036624908447265625
aF0.03548717498779297
aF0.03618001937866211
aF0.036412954330444336
aF0.037859201431274414
aF0.03705096244812012
aF0.03623700141906738
aF0.03631091117858887
aF0.03648185729980469
aF0.035909175872802734
aF0.03591585159301758
aF0.0358738899230957
aF0.03613901138305664
aF0.03548789024353027
aF0.03572797775268555
aF0.03537297248840332
aF0.03539586067199707
aF0.03639101982116699
aF0.03495192527770996
aF0.03570890426635742
aF0.03554201126098633
aF0.03789210319519043
aF0.03680992126464844
aF0.03445887565612793
aF0.03681612014770508
aF0.037561893463134766
aF0.037386178970336914
aF0.0369718074798584
aF0.03766512870788574
aF0.037034034729003906
aF0.036978960037231445
aF0.038086891174316406
aF0.03662395477294922
aF0.036850929260253906
aF0.03599405288696289
aF0.03635692596435547
aF0.03686881065368652
aF0.036837100982666016
aF0.0355069637298584
aF0.03614306449890137
aF0.03425288200378418
aF0.03406882286071777
aF0.03370809555053711
aF0.03252816200256348
aF0.031706809997558594
aF0.03222513198852539
aF0.030259132385253906
aF0.0317080020904541
aF0.03512907028198242
aF0.03672194480895996
aF0.035212039947509766
aF0.03495383262634277
aF0.03447890281677246
aF0.03468608856201172
aF0.0337529182434082
aF0.03212594985961914
aF0.03240203857421875
aF0.03212714195251465
aF0.03302907943725586
aF0.03480815887451172
aF0.03630805015563965
aF0.03549599647521973
aF0.03537297248840332
aF0.03630208969116211
aF0.0345768928527832
aF0.03644084930419922
aF0.03593897819519043
aF0.03606581687927246
aF0.035539865493774414
aF0.03748893737792969
aF0.03688192367553711
aF0.03654909133911133
aF0.03701591491699219
aF0.03652596473693848
aF0.03686094284057617
aF0.036109209060668945
aF0.03632092475891113
aF0.03665304183959961
aF0.036995887756347656
aF0.03682303428649902
aF0.03797006607055664
aF0.036895036697387695
aF0.0367889404296875
aF0.037156105041503906
aF0.03672003746032715
aF0.03707289695739746
aF0.037265777587890625
aF0.03767800331115723
aF0.0390009880065918
aF0.0392918586730957
aF0.03920412063598633
aF0.038836002349853516
aF0.039247989654541016
aF0.03921818733215332
aF0.0374150276184082
aF0.03829789161682129
aF0.03825116157531738
aF0.03726696968078613
aF0.03703117370605469
aF0.03720211982727051
aF0.036787986755371094
aF0.037837982177734375
aF0.03931021690368652
aF0.03861522674560547
aF0.04051494598388672
aF0.03885006904602051
aF0.03860902786254883
aF0.03753089904785156
aF0.03771090507507324
aF0.037191152572631836
aF0.038362979888916016
aF0.03739809989929199
aF0.03808116912841797
aF0.037422895431518555
aF0.041237831115722656
aF0.04017210006713867
aF0.038697004318237305
aF0.03836202621459961
aF0.0393369197845459
aF0.0378270149230957
aF0.03858184814453125
aF0.03835916519165039
aF0.03800797462463379
aF0.038156986236572266
aF0.03861498832702637
aF0.03740191459655762
aF0.03729414939880371
aF0.036576032638549805
aF0.03888082504272461
aF0.03650498390197754
aF0.0377039909362793
aF0.03751492500305176
aF0.036192893981933594
aF0.03680300712585449
aF0.03699803352355957
aF0.03695106506347656
aF0.03689289093017578
aF0.03671717643737793
aF0.036370038986206055
aF0.03648805618286133
aF0.0374150276184082
aF0.03745889663696289
aF0.03711509704589844
aF0.03720378875732422
aF0.03651785850524902
aF0.036794185638427734
aF0.03616595268249512
aF0.03600502014160156
aF0.036422014236450195
aF0.03522801399230957
aF0.035433053970336914
aF0.03575491905212402
aF0.035470008850097656
aF0.036596059799194336
aF0.03636789321899414
aF0.03708505630493164
aF0.036477088928222656
aF0.036470890045166016
aF0.03912997245788574
aF0.03783082962036133
aF0.0363621711730957
aF0.03710603713989258
aF0.03656196594238281
aF0.0368349552154541
aF0.03652310371398926
aF0.036984920501708984
aF0.037154197692871094
aF0.03740096092224121
aF0.03808903694152832
aF0.037142038345336914
aF0.036882877349853516
aF0.03625988960266113
aF0.03682303428649902
aF0.03734302520751953
aF0.036138057708740234
aF0.0359799861907959
aF0.036286115646362305
aF0.035470008850097656
aF0.03545808792114258
aF0.03613901138305664
aF0.03596806526184082
aF0.03592395782470703
aF0.03606915473937988
aF0.03686690330505371
aF0.03700113296508789
aF0.038984060287475586
aF0.03784608840942383
aF0.03776693344116211
aF0.037587881088256836
aF0.0376439094543457
aF0.03689408302307129
aF0.03731107711791992
aF0.03764200210571289
aF0.037199974060058594
aF0.03701615333557129
aF0.038487911224365234
aF0.03730416297912598
aF0.03755784034729004
aF0.03792881965637207
aF0.038401126861572266
aF0.038632869720458984
aF0.03836202621459961
aF0.038819074630737305
aF0.03794598579406738
aF0.03670811653137207
aF0.03638792037963867
aF0.03541302680969238
aF0.03566908836364746
aF0.035893917083740234
aF0.037964820861816406
aF0.035978078842163086
aF0.03619194030761719
aF0.03740715980529785
aF0.03696489334106445
aF0.03710508346557617
aF0.037323951721191406
aF0.03697514533996582
aF0.03632783889770508
aF0.03507518768310547
aF0.034340858459472656
aF0.03511619567871094
aF0.03539085388183594
aF0.035614967346191406
aF0.03560280799865723
aF0.03494715690612793
aF0.03503704071044922
aF0.035472869873046875
aF0.03654885292053223
aF0.037323951721191406
aF0.03755378723144531
aF0.03730010986328125
aF0.037483930587768555
aF0.03760695457458496
aF0.0376739501953125
aF0.03781318664550781
aF0.037882089614868164
aF0.03711509704589844
aF0.03751492500305176
aF0.0370938777923584
aF0.03908491134643555
aF0.03890180587768555
aF0.03857278823852539
aF0.037329912185668945
aF0.036988019943237305
aF0.03656411170959473
aF0.03693103790283203
aF0.036949872970581055
aF0.03766798973083496
aF0.038105010986328125
aF0.03918313980102539
aF0.04022789001464844
aF0.03996777534484863
aF0.038153886795043945
aF0.038223981857299805
aF0.03724980354309082
aF0.036607980728149414
aF0.03778481483459473
aF0.03663182258605957
aF0.0372769832611084
aF0.0370631217956543
aF0.03751206398010254
aF0.03768491744995117
aF0.03758382797241211
aF0.03770709037780762
aF0.03779292106628418
aF0.03715991973876953
aF0.03934907913208008
aF0.03710603713989258
aF0.0366671085357666
aF0.03642392158508301
aF0.036210060119628906
aF0.03646206855773926
aF0.03643393516540527
aF0.036653995513916016
aF0.03527402877807617
aF0.034980058670043945
aF0.03649306297302246
aF0.03807997703552246
aF0.03802609443664551
aF0.03802490234375
aF0.03769278526306152
aF0.03665590286254883
aF0.03600120544433594
aF0.03624415397644043
aF0.03449892997741699
aF0.035262107849121094
aF0.0353999137878418
aF0.03389477729797363
aF0.03291511535644531
aF0.03356194496154785
aF0.03432297706604004
aF0.03592801094055176
aF0.03635692596435547
aF0.037470102310180664
aF0.03796696662902832
aF0.0387420654296875
aF0.03840303421020508
aF0.038507938385009766
aF0.03867077827453613
aF0.03900599479675293
aF0.038281917572021484
aF0.03788399696350098
aF0.037381887435913086
aF0.03853607177734375
aF0.03963303565979004
aF0.03965401649475098
aF0.03961992263793945
aF0.03982806205749512
aF0.039407968521118164
aF0.03836202621459961
aF0.038960933685302734
aF0.03868699073791504
aF0.03883504867553711
aF0.03889107704162598
aF0.03829598426818848
aF0.03859281539916992
aF0.038124799728393555
aF0.039340972900390625
aF0.03857278823852539
aF0.03822183609008789
aF0.03799891471862793
aF0.03751492500305176
aF0.037828922271728516
aF0.037851810455322266
aF0.03825092315673828
aF0.0376429557800293
aF0.03701210021972656
aF0.03787803649902344
aF0.03763103485107422
aF0.038316965103149414
aF0.03833603858947754
aF0.036744117736816406
aF0.03534293174743652
aF0.034297943115234375
aF0.03526902198791504
aF0.034593820571899414
aF0.03392601013183594
aF0.033473968505859375
aF0.032134056091308594
aF0.032846927642822266
aF0.033106088638305664
aF0.0344388484954834
aF0.035346031188964844
aF0.03578686714172363
aF0.0370180606842041
aF0.037420034408569336
aF0.03768491744995117
aF0.03879904747009277
aF0.035576820373535156
aF0.03393912315368652
aF0.033299922943115234
aF0.03338003158569336
aF0.0345759391784668
aF0.03612399101257324
aF0.03626585006713867
aF0.03587603569030762
aF0.03473401069641113
aF0.03403615951538086
aF0.03643298149108887
aF0.036171913146972656
aF0.03486990928649902
aF0.03499913215637207
aF0.03474903106689453
aF0.034529924392700195
aF0.03274798393249512
aF0.03322100639343262
aF0.03452301025390625
aF0.03423810005187988
aF0.03485679626464844
aF0.03514814376831055
aF0.03587985038757324
aF0.0350651741027832
aF0.03518986701965332
aF0.03640604019165039
aF0.03941011428833008
aF0.0391240119934082
aF0.038378000259399414
aF0.03598809242248535
aF0.03520488739013672
aF0.03508496284484863
aF0.036062002182006836
aF0.03706097602844238
aF0.03540992736816406
aF0.03484201431274414
aF0.035520076751708984
aF0.03552103042602539
aF0.03648996353149414
aF0.03562211990356445
aF0.034776926040649414
aF0.034214019775390625
aF0.03487110137939453
aF0.0352170467376709
aF0.03290295600891113
aF0.03296613693237305
aF0.032885074615478516
aF0.0327761173248291
aF0.03330707550048828
aF0.0332789421081543
aF0.03399300575256348
aF0.0335540771484375
aF0.033844947814941406
aF0.03353714942932129
aF0.03322100639343262
aF0.03371906280517578
aF0.03414297103881836
aF0.0332949161529541
aF0.03385591506958008
aF0.03606605529785156
aF0.03505086898803711
aF0.03512215614318848
aF0.03555417060852051
aF0.03532290458679199
aF0.03670215606689453
aF0.03609490394592285
aF0.03441905975341797
aF0.03567790985107422
aF0.03497004508972168
aF0.03493905067443848
aF0.0347440242767334
aF0.03467679023742676
aF0.03536510467529297
aF0.03425288200378418
aF0.033476829528808594
aF0.032453060150146484
aF0.031185150146484375
aF0.03137493133544922
aF0.03199291229248047
aF0.03411293029785156
aF0.03501296043395996
aF0.035562992095947266
aF0.03549695014953613
aF0.03531193733215332
aF0.035162925720214844
aF0.036132097244262695
aF0.03638505935668945
aF0.03520703315734863
aF0.03509807586669922
aF0.03516387939453125
aF0.03464508056640625
aF0.03446602821350098
aF0.03389096260070801
aF0.034147024154663086
aF0.03400897979736328
aF0.03253793716430664
aF0.03256988525390625
aF0.030432939529418945
aF0.029819011688232422
aF0.03012704849243164
aF0.029572010040283203
aF0.029376983642578125
aF0.029948949813842773
aF0.02892017364501953
aF0.029330015182495117
aF0.031174898147583008
aF0.0309751033782959
aF0.03106212615966797
aF0.03132009506225586
aF0.03166389465332031
aF0.0320589542388916
aF0.03219199180603027
aF0.0315098762512207
aF0.031974077224731445
aF0.03218197822570801
aF0.033763885498046875
aF0.03162789344787598
aF0.030642986297607422
aF0.029345989227294922
aF0.028686046600341797
aF0.029094934463500977
aF0.03112506866455078
aF0.0322420597076416
aF0.03161787986755371
aF0.0309140682220459
aF0.031842947006225586
aF0.03232407569885254
aF0.03227806091308594
aF0.032733917236328125
aF0.03653097152709961
aF0.035069942474365234
aF0.03514504432678223
aF0.03519296646118164
aF0.03557014465332031
aF0.03454399108886719
aF0.035279035568237305
aF0.0351109504699707
aF0.03380918502807617
aF0.03385591506958008
aF0.03390908241271973
aas.