(dp0
S'ORB'
p1
(lp2
I5
aI371
aF1.3477088948787064
aF2.118431806564331
a(dp3
S'start_to_end_time'
p4
F0.04145249665952196
sS'kp_detect_time'
p5
F0.031929787467507756
sS'match_time'
p6
F0.0036989847819010415
sS'open_time'
p7
F0.005736458535287895
sS'vis_time'
p8
F0.0
sas.