(dp0
S'ORB'
p1
(lp2
F43.983402489626556
a(lp3
F0.031204938888549805
aF0.029597997665405273
aF0.029383182525634766
aF0.027769804000854492
aF0.02700495719909668
aF0.027462005615234375
aF0.027738094329833984
aF0.02723383903503418
aF0.027779102325439453
aF0.027486085891723633
aF0.027853012084960938
aF0.026751041412353516
aF0.027517080307006836
aF0.027673006057739258
aF0.028293132781982422
aF0.02861785888671875
aF0.02941107749938965
aF0.029673099517822266
aF0.029376983642578125
aF0.029154062271118164
aF0.02853107452392578
aF0.03023386001586914
aF0.029613018035888672
aF0.02793097496032715
aF0.02803516387939453
aF0.02878594398498535
aF0.029040098190307617
aF0.029883861541748047
aF0.031145095825195312
aF0.031172990798950195
aF0.031151771545410156
aF0.03037285804748535
aF0.0309600830078125
aF0.0317540168762207
aF0.03197002410888672
aF0.03028702735900879
aF0.029852867126464844
aF0.031075000762939453
aF0.03267478942871094
aF0.030536890029907227
aF0.02955794334411621
aF0.029647111892700195
aF0.02704596519470215
aF0.026552915573120117
aF0.028144121170043945
aF0.03089308738708496
aF0.031767845153808594
aF0.031327009201049805
aF0.031136035919189453
aF0.030126094818115234
aF0.029839038848876953
aas.