(dp0
S'ORB'
p1
(lp2
I52
aI251
aF20.717131474103585
aF1.6718568801879883
a(dp3
S'start_to_end_time'
p4
F0.032694765165740367
sS'kp_detect_time'
p5
F0.023972903980928308
sS'match_time'
p6
F0.003725893357220818
sS'open_time'
p7
F0.004906439313701555
sS'vis_time'
p8
F0.0
sas.