(dp0
S'ORB'
p1
(lp2
F60.45112781954888
a(lp3
F0.035501956939697266
aF0.032189130783081055
aF0.03191995620727539
aF0.03212404251098633
aF0.03310203552246094
aF0.03373098373413086
aF0.03220105171203613
aF0.031019926071166992
aF0.030994892120361328
aF0.03141903877258301
aF0.031298160552978516
aF0.031106948852539062
aF0.030555009841918945
aF0.030827045440673828
aF0.03136897087097168
aF0.03138899803161621
aF0.03173708915710449
aF0.032614946365356445
aF0.0327761173248291
aF0.03208804130554199
aF0.032132863998413086
aF0.03203415870666504
aF0.03260302543640137
aF0.032257080078125
aF0.03172707557678223
aF0.033986806869506836
aF0.03327178955078125
aF0.031471967697143555
aF0.03133392333984375
aF0.031883955001831055
aF0.03150796890258789
aF0.0310671329498291
aF0.030644893646240234
aF0.030445098876953125
aF0.032598018646240234
aF0.03312087059020996
aF0.03121495246887207
aF0.0305020809173584
aF0.028727054595947266
aF0.02704787254333496
aF0.027883052825927734
aF0.027804136276245117
aF0.026335954666137695
aF0.02668309211730957
aF0.027592897415161133
aF0.028232812881469727
aF0.027961015701293945
aF0.0267181396484375
aF0.02493000030517578
aF0.025753021240234375
aF0.024692058563232422
aF0.025732994079589844
aF0.025665998458862305
aF0.02490520477294922
aF0.025136947631835938
aF0.026701927185058594
aF0.02609395980834961
aF0.026111841201782227
aF0.026600122451782227
aF0.027240991592407227
aF0.028982877731323242
aF0.028908967971801758
aF0.02781200408935547
aF0.027369022369384766
aF0.027806997299194336
aF0.02721405029296875
aF0.027111053466796875
aF0.02634596824645996
aF0.026582956314086914
aF0.026446819305419922
aF0.026968002319335938
aF0.02655315399169922
aF0.02692699432373047
aF0.029011011123657227
aF0.02786397933959961
aF0.027844905853271484
aF0.027904033660888672
aF0.028271198272705078
aF0.0285799503326416
aF0.028939008712768555
aF0.02895498275756836
aF0.029278993606567383
aF0.029675006866455078
aF0.028779983520507812
aF0.031071901321411133
aF0.030400991439819336
aF0.029129981994628906
aF0.029143095016479492
aF0.028900146484375
aF0.028610944747924805
aF0.02868199348449707
aF0.02827000617980957
aF0.02883005142211914
aF0.02803802490234375
aF0.028118133544921875
aF0.0278928279876709
aF0.027988910675048828
aF0.02789902687072754
aF0.02815699577331543
aF0.027940034866333008
aF0.02798914909362793
aF0.028317928314208984
aF0.02792811393737793
aF0.027429819107055664
aF0.027559995651245117
aF0.027350902557373047
aF0.027554988861083984
aF0.02793717384338379
aF0.030725955963134766
aF0.03152203559875488
aF0.02994513511657715
aF0.02954697608947754
aF0.02911090850830078
aF0.029031038284301758
aF0.02883005142211914
aF0.028414011001586914
aF0.027107954025268555
aF0.02721405029296875
aF0.02717900276184082
aF0.028162002563476562
aF0.02973008155822754
aF0.03040599822998047
aF0.030948877334594727
aF0.030812978744506836
aF0.03037095069885254
aF0.029980182647705078
aF0.030664920806884766
aF0.030638933181762695
aF0.030407190322875977
aF0.030614852905273438
aF0.03136420249938965
aF0.03048396110534668
aF0.030067920684814453
aF0.029662132263183594
aF0.028482913970947266
aF0.026458024978637695
aF0.02697277069091797
aF0.027640819549560547
aF0.030586957931518555
aF0.03143191337585449
aF0.030561208724975586
aF0.0307159423828125
aF0.02967691421508789
aF0.03144216537475586
aF0.030298948287963867
aF0.02880096435546875
aF0.028622150421142578
aF0.02866387367248535
aF0.028232097625732422
aF0.028988122940063477
aF0.030071020126342773
aF0.03331899642944336
aF0.03186988830566406
aF0.032122135162353516
aF0.03272104263305664
aF0.03184700012207031
aF0.031948089599609375
aF0.03152585029602051
aF0.031481027603149414
aF0.0308380126953125
aF0.030007123947143555
aF0.03116893768310547
aF0.03179788589477539
aF0.03412222862243652
aF0.03304910659790039
aF0.033705949783325195
aF0.03351306915283203
aF0.032917022705078125
aF0.03339695930480957
aF0.03381705284118652
aF0.033303022384643555
aF0.03293204307556152
aF0.03356003761291504
aF0.03357696533203125
aF0.033347129821777344
aF0.03171706199645996
aF0.03115391731262207
aF0.030791044235229492
aF0.029168128967285156
aF0.02883291244506836
aF0.02936697006225586
aF0.028537988662719727
aF0.0301971435546875
aF0.030443906784057617
aas.