(dp0
S'SIFT'
p1
(lp2
I1228
aI3483
aF35.256962388745336
aF29.20623207092285
a(dp3
S'start_to_end_time'
p4
F0.5722144865522197
sS'kp_detect_time'
p5
F0.5612088371725643
sS'match_time'
p6
F0.005922752268174116
sS'open_time'
p7
F0.0047501629474116305
sS'vis_time'
p8
F0.0
sa(lp9
F59.01639344262295
aF49.54128440366973
aF44.24778761061947
aF34.73684210526316
aF31.0
aF36.36363636363637
aF35.0
aF45.0
aF52.17391304347826
aF21.875
aF22.22222222222222
aF25.0
aF34.883720930232556
aF29.47368421052631
aF36.904761904761905
aF34.48275862068966
aF31.182795698924732
aF32.05128205128205
aF36.25
aF39.175257731958766
aF32.94117647058823
aF23.456790123456788
aF16.867469879518072
aF12.162162162162163
aF21.052631578947366
aF26.47058823529412
aF29.166666666666668
aF22.58064516129032
aF13.414634146341465
aF22.105263157894736
aF38.38383838383838
aF30.693069306930692
aF31.818181818181817
aF27.710843373493976
aF36.144578313253014
aF41.37931034482759
aF33.33333333333333
aF51.92307692307693
aF44.0
aF44.89795918367347
aF50.90909090909091
aF50.0
aF48.0
aF41.02564102564102
aF34.090909090909086
aF40.54054054054054
aF41.30434782608695
aF51.02040816326531
aF51.162790697674424
aF42.592592592592595
aF38.983050847457626
aasS'ORB'
p10
(lp11
I212
aI482
aF43.983402489626556
aF1.5057709217071533
a(dp12
g4
F0.02946174845975988
sg5
F0.023308983036116056
sg6
F0.0012167201322667738
sg7
F0.004841065874286727
sg8
F0.0
sa(lp13
F0.0
aF0.0
aF0.0
aF12.5
aF40.0
aF30.0
aF18.181818181818183
aF11.11111111111111
aF0.0
aF0.0
aF0.0
aF33.33333333333333
aF28.57142857142857
aF36.36363636363637
aF72.72727272727273
aF50.0
aF66.66666666666666
aF42.857142857142854
aF50.0
aF33.33333333333333
aF23.076923076923077
aF16.666666666666664
aF10.0
aF25.0
aF0.0
aF0.0
aF0.0
aF0.0
aF0.0
aF50.0
aF50.0
aF50.0
aF66.66666666666666
aF50.0
aF66.66666666666666
aF45.45454545454545
aF69.23076923076923
aF78.57142857142857
aF68.75
aF75.0
aF88.88888888888889
aF83.33333333333334
aF83.33333333333334
aF68.75
aF58.82352941176471
aF50.0
aF63.63636363636363
aF46.15384615384615
aF30.0
aF46.15384615384615
aF50.0
aasS'BRISK'
p14
(lp15
I205
aI1433
aF14.305652477320308
aF2.0421230792999268
a(dp16
g4
F0.021202942904304054
sg5
F0.016193777907128427
sg6
F0.0001870136634976256
sg7
F0.004738237343582453
sg8
F0.0
sa(lp17
F2.857142857142857
aF6.451612903225806
aF4.761904761904762
aF8.19672131147541
aF3.1746031746031744
aF12.121212121212121
aF0.0
aF0.0
aF25.0
aF0.0
aF0.0
aF2.272727272727273
aF10.714285714285714
aF9.75609756097561
aF11.76470588235294
aF13.333333333333334
aF16.216216216216218
aF8.108108108108109
aF12.5
aF21.27659574468085
aF12.76595744680851
aF19.51219512195122
aF6.521739130434782
aF0.0
aF11.11111111111111
aF0.0
aF0.0
aF0.0
aF8.695652173913043
aF9.67741935483871
aF17.142857142857142
aF3.8461538461538463
aF16.666666666666664
aF18.421052631578945
aF20.51282051282051
aF37.93103448275862
aF7.4074074074074066
aF30.0
aF35.294117647058826
aF16.666666666666664
aF57.14285714285714
aF45.0
aF30.76923076923077
aF16.666666666666664
aF45.0
aF35.294117647058826
aF33.33333333333333
aF44.44444444444444
aF30.76923076923077
aF43.75
aF12.5
aas.