(dp0
S'ORB'
p1
(lp2
F35.199999999999996
a(lp3
F0.03064894676208496
aF0.029170989990234375
aF0.027721881866455078
aF0.027644872665405273
aF0.02727508544921875
aF0.027334928512573242
aF0.02762317657470703
aF0.02691197395324707
aF0.02693796157836914
aF0.027039051055908203
aF0.027337074279785156
aF0.026738882064819336
aF0.02816009521484375
aF0.02872490882873535
aF0.028956174850463867
aF0.029139995574951172
aF0.029777050018310547
aF0.030148983001708984
aF0.029946088790893555
aF0.029180049896240234
aF0.02988886833190918
aF0.029760122299194336
aF0.028980016708374023
aF0.028455018997192383
aF0.027420997619628906
aF0.02951192855834961
aF0.029894113540649414
aF0.02999091148376465
aF0.03125190734863281
aF0.03122997283935547
aF0.031831979751586914
aF0.031419992446899414
aF0.031069040298461914
aF0.031017065048217773
aF0.030128955841064453
aF0.030556917190551758
aF0.030599117279052734
aF0.03300809860229492
aF0.03273797035217285
aF0.031223058700561523
aF0.028940200805664062
aF0.028126001358032227
aF0.02722001075744629
aF0.026619911193847656
aF0.027584075927734375
aF0.031018972396850586
aF0.03348398208618164
aF0.03111410140991211
aF0.0304410457611084
aF0.02951788902282715
aF0.029087066650390625
aF0.029195070266723633
aF0.028456926345825195
aF0.028126955032348633
aF0.02859187126159668
aF0.028452157974243164
aF0.0287020206451416
aF0.029870986938476562
aF0.03349494934082031
aF0.0327451229095459
aF0.03234386444091797
aF0.03240799903869629
aF0.032317161560058594
aF0.03156900405883789
aF0.03251290321350098
aF0.03240513801574707
aF0.03080606460571289
aF0.03023386001586914
aF0.03139519691467285
aF0.030709028244018555
aF0.033035993576049805
aF0.032978057861328125
aF0.032716989517211914
aF0.0334780216217041
aF0.03291487693786621
aF0.03352808952331543
aF0.033844947814941406
aF0.03382301330566406
aF0.035989999771118164
aF0.034113168716430664
aF0.03373885154724121
aF0.03151702880859375
aF0.031209945678710938
aF0.03081202507019043
aF0.030476093292236328
aF0.029258012771606445
aF0.02820420265197754
aF0.028253793716430664
aF0.028358936309814453
aF0.028933048248291016
aF0.031738996505737305
aas.