(dp0
S'ORB'
p1
(lp2
I941
aI1615
aF58.26625386996904
aF6.319230794906616
a(dp3
S'start_to_end_time'
p4
F0.038264559254501805
sS'kp_detect_time'
p5
F0.028912619388464726
sS'match_time'
p6
F0.003754477067427202
sS'open_time'
p7
F0.0055034550753506745
sS'vis_time'
p8
F0.0
sas.