(dp0
S'ORB'
p1
(lp2
I378
aI677
aF55.83456425406204
aF2.0350289344787598
a(dp3
S'start_to_end_time'
p4
F0.039051684049459606
sS'kp_detect_time'
p5
F0.029619056444901686
sS'match_time'
p6
F0.003653255792764517
sS'open_time'
p7
F0.00568621433698214
sS'vis_time'
p8
F0.0
sas.