(dp0
S'ORB'
p1
(lp2
F8.695652173913043
a(lp3
F0.04026508331298828
aF0.03642392158508301
aF0.03534698486328125
aF0.03450298309326172
aF0.03455805778503418
aF0.036216020584106445
aF0.03579306602478027
aF0.03647899627685547
aF0.036708831787109375
aF0.03637504577636719
aF0.0370030403137207
aF0.03656291961669922
aF0.036681175231933594
aF0.036496877670288086
aF0.035627126693725586
aF0.03627204895019531
aF0.03561592102050781
aF0.03542590141296387
aF0.03554105758666992
aF0.03631901741027832
aF0.036414146423339844
aF0.037081003189086914
aF0.03785395622253418
aF0.03827095031738281
aF0.03737497329711914
aF0.037574052810668945
aF0.03690910339355469
aF0.03744792938232422
aF0.037142038345336914
aF0.037477970123291016
aF0.04083609580993652
aF0.03997302055358887
aF0.03902792930603027
aF0.03821396827697754
aF0.03650999069213867
aF0.03418588638305664
aF0.03360891342163086
aF0.03441190719604492
aF0.034375905990600586
aF0.03531002998352051
aF0.03551602363586426
aF0.035201072692871094
aF0.03573799133300781
aF0.035073041915893555
aF0.034533023834228516
aF0.03338789939880371
aF0.0319521427154541
aF0.030915021896362305
aF0.030577898025512695
aF0.030621051788330078
aas.