(dp0
S'ORB'
p1
(lp2
F58.26625386996904
a(lp3
F0.04230809211730957
aF0.03918194770812988
aF0.03776693344116211
aF0.03723716735839844
aF0.03763079643249512
aF0.03736400604248047
aF0.039129018783569336
aF0.03854799270629883
aF0.03820991516113281
aF0.03778815269470215
aF0.037950992584228516
aF0.03797292709350586
aF0.03850698471069336
aF0.038331031799316406
aF0.03850889205932617
aF0.038410186767578125
aF0.03810691833496094
aF0.03846907615661621
aF0.03895282745361328
aF0.03865313529968262
aF0.038800954818725586
aF0.03870797157287598
aF0.03842496871948242
aF0.040083885192871094
aF0.03938007354736328
aF0.03878593444824219
aF0.03862404823303223
aF0.03842616081237793
aF0.038429975509643555
aF0.03737187385559082
aF0.037445068359375
aF0.03807711601257324
aF0.037858009338378906
aF0.039639949798583984
aF0.03729605674743652
aF0.03573203086853027
aF0.036032915115356445
aF0.036168813705444336
aF0.03628897666931152
aF0.036280155181884766
aF0.03616499900817871
aF0.03555107116699219
aF0.03557586669921875
aF0.03517794609069824
aF0.0334470272064209
aF0.03285813331604004
aF0.03224301338195801
aF0.03193306922912598
aF0.03184199333190918
aF0.03157401084899902
aF0.03176712989807129
aF0.03523898124694824
aF0.035923004150390625
aF0.03521919250488281
aF0.0353550910949707
aF0.03426003456115723
aF0.03342485427856445
aF0.033686161041259766
aF0.0330660343170166
aF0.03332114219665527
aF0.03456997871398926
aF0.03584098815917969
aF0.03789997100830078
aF0.0380709171295166
aF0.036666154861450195
aF0.03661799430847168
aF0.035285234451293945
aF0.036393165588378906
aF0.036028146743774414
aF0.03602194786071777
aF0.03468799591064453
aF0.03511691093444824
aF0.03522992134094238
aF0.03414583206176758
aF0.03446006774902344
aF0.03522205352783203
aF0.03573489189147949
aF0.03644084930419922
aF0.03682112693786621
aF0.036531925201416016
aF0.03784513473510742
aF0.037693023681640625
aF0.037344932556152344
aF0.037336111068725586
aF0.03770089149475098
aF0.03752303123474121
aF0.03883004188537598
aF0.03944087028503418
aF0.040221214294433594
aF0.042883872985839844
aF0.043061017990112305
aF0.042977094650268555
aF0.04127812385559082
aF0.04056382179260254
aF0.04057002067565918
aF0.03888678550720215
aF0.04006218910217285
aF0.03859686851501465
aF0.039388179779052734
aF0.039476871490478516
aF0.039713144302368164
aF0.04002094268798828
aF0.04066610336303711
aF0.04059791564941406
aF0.04066896438598633
aF0.04304814338684082
aF0.04150390625
aF0.041056156158447266
aF0.04126095771789551
aF0.04009294509887695
aF0.04016613960266113
aF0.04043102264404297
aF0.04080986976623535
aF0.04232597351074219
aF0.04218792915344238
aF0.039237022399902344
aF0.03779006004333496
aF0.037068843841552734
aF0.03696703910827637
aF0.03827714920043945
aF0.03845095634460449
aF0.039359092712402344
aF0.03833603858947754
aF0.039083003997802734
aF0.038899898529052734
aF0.03749394416809082
aF0.036631107330322266
aF0.035809993743896484
aF0.03421211242675781
aF0.034693002700805664
aF0.03420901298522949
aF0.03522682189941406
aF0.03529500961303711
aF0.03524494171142578
aF0.03476691246032715
aF0.03251504898071289
aF0.030426025390625
aF0.029912948608398438
aF0.030241966247558594
aF0.030277013778686523
aF0.030378103256225586
aF0.03075385093688965
aF0.03087782859802246
aF0.03021407127380371
aF0.030712127685546875
aF0.031581878662109375
aF0.03233194351196289
aF0.032389163970947266
aF0.03324604034423828
aF0.03260684013366699
aF0.03222799301147461
aF0.03242182731628418
aF0.0325779914855957
aF0.034195899963378906
aF0.03621101379394531
aF0.03743386268615723
aF0.03991222381591797
aF0.04014396667480469
aF0.04172396659851074
aF0.04182004928588867
aF0.04130101203918457
aF0.04144906997680664
aF0.04000496864318848
aF0.03905916213989258
aF0.03882908821105957
aas.