(dp0
S'ORB'
p1
(lp2
F63.0232558139535
a(lp3
F0.04080510139465332
aF0.038147926330566406
aF0.0379030704498291
aF0.03806304931640625
aF0.03792977333068848
aF0.0390470027923584
aF0.03820490837097168
aF0.03864789009094238
aF0.039407968521118164
aF0.04041790962219238
aF0.04067802429199219
aF0.040322065353393555
aF0.04014110565185547
aF0.04002785682678223
aF0.03957796096801758
aF0.0393671989440918
aF0.0387568473815918
aF0.038680076599121094
aF0.039251089096069336
aF0.03990793228149414
aF0.038778066635131836
aF0.0388948917388916
aF0.039175987243652344
aF0.03967881202697754
aF0.03978419303894043
aF0.04001498222351074
aF0.04169583320617676
aF0.04276418685913086
aF0.043089866638183594
aF0.04040789604187012
aF0.04062199592590332
aas.