(dp0
S'SIFT'
p1
(lp2
F0.6153846153846154
aF0.5963302752293578
aF0.5826086956521739
aF0.6153846153846154
aF0.6633663366336634
aF0.5565217391304348
aF0.5289256198347108
aF0.5409836065573771
aF0.5765765765765766
aF0.5701754385964912
aF0.5765765765765766
aF0.6050420168067226
aF0.5327868852459017
aF0.5217391304347826
aF0.5234375
aF0.5428571428571428
aF0.5190839694656488
aF0.5495495495495496
aF0.5130434782608696
aF0.5688073394495413
aF0.5566037735849056
aF0.5175438596491229
aF0.488
aF0.5037593984962406
aF0.544
aF0.52
aF0.47244094488188976
aF0.47540983606557374
aF0.5789473684210527
aF0.5714285714285714
aF0.5596330275229358
aF0.5833333333333334
aF0.5887850467289719
aF0.6805555555555556
aF0.7936507936507936
aF0.8064516129032258
aF0.7446808510638298
aF0.6666666666666666
aF0.6470588235294118
aF0.632183908045977
aF0.6292134831460674
aF0.6097560975609756
aF0.6145833333333334
aF0.6464646464646465
aF0.6292134831460674
aF0.7228915662650602
aF0.6764705882352942
aF0.6666666666666666
aF0.6829268292682927
aF0.6
aF0.6666666666666666
aF0.578125
aF0.5490196078431373
aF0.5445544554455446
aF0.5730337078651685
aF0.5432098765432098
aF0.5569620253164557
aF0.59375
aF0.5333333333333333
aF0.5285714285714286
aF0.45901639344262296
aF0.45918367346938777
aF0.5288461538461539
aF0.4954954954954955
aF0.45045045045045046
aF0.4807692307692308
aF0.5384615384615384
aF0.4807692307692308
aF0.5185185185185185
aF0.5054945054945055
aF0.391304347826087
aF0.1956521739130435
aF0.40298507462686567
aF0.47058823529411764
aF0.5901639344262295
aF0.7007874015748031
aF0.5822784810126582
aF0.3560606060606061
aF0.2569444444444444
aF0.375
aF0.6690647482014388
aF0.6466165413533834
aF0.6074074074074074
aF0.6538461538461539
aF0.5463917525773195
aF0.4523809523809524
aF0.42857142857142855
aF0.49382716049382713
aF0.4896907216494845
aF0.5198019801980198
aF0.5277777777777778
aF0.5073170731707317
aF0.5789473684210527
aF0.5611111111111111
aF0.503448275862069
aF0.3883495145631068
aF0.5119047619047619
aF0.25
aF0.3230769230769231
aF0.44642857142857145
aF0.3821138211382114
aF0.4563758389261745
aF0.5133333333333333
aF0.5765765765765766
aF0.8074074074074075
aF0.7418181818181818
aF0.6441441441441441
aF0.5540540540540541
aF0.5144927536231884
aF0.4444444444444444
aF0.4357142857142857
aF0.4603174603174603
aF0.45217391304347826
aF0.3888888888888889
aF0.36134453781512604
aF0.1780821917808219
aF0.10869565217391304
aF0.05660377358490566
aF0.07142857142857142
aF0.16326530612244897
aF0.12903225806451613
aF0.14666666666666667
aF0.17857142857142858
aF0.15625
aF0.07317073170731707
aF0.06666666666666667
aF0.0625
aF0.02564102564102564
aF0.02857142857142857
aF0.0
aF0.0
aF0.037037037037037035
aF0.07407407407407407
aF0.07692307692307693
aF0.02857142857142857
aF0.041666666666666664
aF0.0
aF0.0
aF0.0
aF0.0
aF0.0
aF0.0
aF0.0
aF0.043478260869565216
aF0.0
aF0.0
aF0.0625
aF0.044444444444444446
aF0.02631578947368421
aF0.08571428571428572
aF0.027777777777777776
aF0.0
aF0.02564102564102564
aF0.07894736842105263
aF0.11538461538461539
aF0.1568627450980392
aF0.3
aF0.17105263157894737
aF0.02666666666666667
aF0.0125
aF0.015873015873015872
aF0.05172413793103448
aF0.11290322580645161
aF0.0847457627118644
aF0.08
asS'ORB'
p3
(lp4
F0.8571428571428571
aF0.8333333333333334
aF0.8333333333333334
aF1.0
aF0.8181818181818182
aF1.0
aF0.8
aF0.7142857142857143
aF1.0
aF0.8
aF0.6666666666666666
aF0.9285714285714286
aF0.6666666666666666
aF0.7142857142857143
aF0.4
aF0.8571428571428571
aF0.8333333333333334
aF0.8181818181818182
aF0.8888888888888888
aF0.8571428571428571
aF0.6
aF0.8
aF1.0
aF0.0
aF1.0
aF0.75
aF0.875
aF0.7142857142857143
aF1.0
aF0.8333333333333334
aF1.0
aF0.5555555555555556
aF0.7142857142857143
aF0.625
aF0.6
aF0.6153846153846154
aF0.8333333333333334
aF0.8888888888888888
aF0.8888888888888888
aF0.6666666666666666
aF0.7
aF0.7
aF0.7142857142857143
aF0.8571428571428571
aF0.6666666666666666
aF0.625
aF0.5
aF0.625
aF0.7
aF1.0
aF0.8
aF1.0
aF0.6666666666666666
aF0.5
aF0.7142857142857143
aF0.875
aF1.0
aF0.75
aF0.7692307692307693
aF0.625
aF0.7647058823529411
aF0.8
aF0.8
aF0.7142857142857143
aF0.42857142857142855
aF0.0
aF0.0
aF0.14285714285714285
aF0.16666666666666666
aF0.25
aF0.0
aF0.0
aF0.5
aF0.0
aF0.5714285714285714
aF0.9333333333333333
aF0.5833333333333334
aF0.17647058823529413
aF0.15
aF0.043478260869565216
aF0.925
aF0.9666666666666667
aF0.926829268292683
aF0.7647058823529411
aF0.6111111111111112
aF0.3076923076923077
aF0.43478260869565216
aF0.71875
aF0.7906976744186046
aF0.88
aF0.8297872340425532
aF0.8918918918918919
aF0.7666666666666667
aF0.6
aF0.3333333333333333
aF0.2727272727272727
aF0.2222222222222222
aF0.0
aF0.125
aF0.0
aF0.0
aF0.16666666666666666
aF0.23076923076923078
aF0.5333333333333333
aF0.8873239436619719
aF0.8780487804878049
aF0.7916666666666666
aF0.5555555555555556
aF0.25
aF0.3333333333333333
aF0.2
aF0.14285714285714285
aF0.0
aF0.0
aF0.0
aF0.0
aF0.0
aF0.0
aF0.0
aF0.0
aF0.0
aF0.0
aF0.0
aF0.0
aF0.0
aF0.0
aF0.0
aF0.0
aF0.0
aF0.0
aF0.0
aF0.0
aF0.0
aF0.0
aF0.0
aF0.0
aF0.0
aF0.0
aF0.0
aF0.0
aF0.0
aF0.0
aF0.0
aF0.0
aF0.0
aF0.0
aF0.0
aF0.0
aF0.0
aF0.0
aF0.0
aF0.0
aF0.0
aF0.0
aF0.0
aF0.0
aF0.0
aF0.0
aF0.0
aF0.0
aF0.0
aF0.0
aF0.0
aF0.0
aF0.0
asS'BRISK'
p5
(lp6
F0.625
aF0.7142857142857143
aF0.4
aF0.5
aF0.75
aF0.8333333333333334
aF0.5833333333333334
aF0.6923076923076923
aF0.5
aF0.25
aF0.5
aF0.4375
aF0.6111111111111112
aF0.6153846153846154
aF0.6111111111111112
aF0.5714285714285714
aF0.3333333333333333
aF0.8571428571428571
aF0.45454545454545453
aF0.5833333333333334
aF0.6666666666666666
aF0.4
aF0.6
aF0.5
aF0.6428571428571429
aF0.6923076923076923
aF0.8461538461538461
aF0.7222222222222222
aF0.14285714285714285
aF0.875
aF0.5
aF0.3333333333333333
aF0.4166666666666667
aF0.75
aF0.4444444444444444
aF0.7142857142857143
aF0.6923076923076923
aF0.6
aF0.4444444444444444
aF0.6428571428571429
aF0.5
aF0.6363636363636364
aF0.5
aF0.5
aF0.5
aF0.75
aF0.6666666666666666
aF0.6666666666666666
aF0.6666666666666666
aF1.0
aF0.3333333333333333
aF0.2
aF0.7777777777777778
aF0.75
aF0.4
aF0.5
aF0.3333333333333333
aF0.5454545454545454
aF0.3333333333333333
aF0.3333333333333333
aF1.0
aF0.6
aF0.4
aF0.25
aF0.5
aF0.6
aF0.16666666666666666
aF0.16666666666666666
aF0.1111111111111111
aF0.18181818181818182
aF0.42857142857142855
aF0.25
aF0.38461538461538464
aF0.25
aF0.5555555555555556
aF0.2727272727272727
aF0.2727272727272727
aF0.16666666666666666
aF0.2222222222222222
aF0.3333333333333333
aF0.13333333333333333
aF0.3333333333333333
aF0.3333333333333333
aF0.47368421052631576
aF0.1
aF0.4166666666666667
aF0.11764705882352941
aF0.11764705882352941
aF0.16
aF0.11764705882352941
aF0.07142857142857142
aF0.1111111111111111
aF0.23529411764705882
aF0.2
aF0.05555555555555555
aF0.25
aF0.18181818181818182
aF0.16666666666666666
aF0.42857142857142855
aF0.125
aF0.3076923076923077
aF0.16666666666666666
aF0.3333333333333333
aF0.3333333333333333
aF0.7647058823529411
aF0.3235294117647059
aF0.4230769230769231
aF0.06666666666666667
aF0.2727272727272727
aF0.2727272727272727
aF0.375
aF0.23809523809523808
aF0.09523809523809523
aF0.3333333333333333
aF0.26666666666666666
aF0.23076923076923078
aF0.0
aF0.0
aF0.06666666666666667
aF0.08333333333333333
aF0.2
aF0.0
aF0.05263157894736842
aF0.07142857142857142
aF0.0
aF0.0
aF0.08333333333333333
aF0.0
aF0.0
aF0.0
aF0.0
aF0.0
aF0.0
aF0.0
aF0.0
aF0.0
aF0.0
aF0.0
aF0.0
aF0.0
aF0.0
aF0.0
aF0.0
aF0.0
aF0.0
aF0.0
aF0.0
aF0.0
aF0.0
aF0.0
aF0.0
aF0.0
aF0.0
aF0.0
aF0.0
aF0.0
aF0.0
aF0.0
aF0.0
aF0.0625
aF0.0
aF0.09090909090909091
aF0.0
aF0.0
aF0.0
as.