(dp0
S'SIFT'
p1
(lp2
I398
aI7039
aF5.6542122460576785
aF34.30446100234985
a(dp3
S'start_to_end_time'
p4
F0.672486239788579
sS'kp_detect_time'
p5
F0.6624590649324305
sS'match_time'
p6
F0.004995065576889936
sS'open_time'
p7
F0.004407910739674288
sS'vis_time'
p8
F0.0
sasS'ORB'
p9
(lp10
I15
aI1933
aF0.7759958613554061
aF1.4718079566955566
a(dp11
g4
F0.0288389290080351
sg5
F0.024008582620059744
sg6
F0.0003330894545012829
sg7
F0.004372765036190257
sg8
F0.0
sasS'BRISK'
p12
(lp13
I155
aI8059
aF1.923315547834719
aF2.136570930480957
a(dp14
g4
F0.029622919419232535
sg5
F0.02465962896160051
sg6
F0.0003809975642783969
sg7
F0.004307223301307827
sg8
F0.0
sas.