(dp0
S'SIFT'
p1
(lp2
I2971
aI9296
aF31.959982788296042
aF57.0892379283905
a(dp3
S'start_to_end_time'
p4
F0.6271150688548665
sS'kp_detect_time'
p5
F0.6110590709434761
sS'match_time'
p6
F0.011420108459808015
sS'open_time'
p7
F0.004169021333966937
sS'vis_time'
p8
F0.0
sasS'ORB'
p9
(lp10
I219
aI624
aF35.09615384615385
aF2.711216926574707
a(dp11
g4
F0.029770067759922574
sg5
F0.02399787536034217
sg6
F0.001134204340505076
sg7
F0.004510638478038075
sg8
F0.0
sasS'BRISK'
p12
(lp13
I128
aI1427
aF8.969866853538893
aF2.7630748748779297
a(dp14
g4
F0.023667000152252534
sg5
F0.019075412016648512
sg6
F0.0003159674969348279
sg7
F0.004173491027328995
sg8
F0.0
sas.