(dp0
S'SIFT'
p1
(lp2
I2663
aI4856
aF54.83937397034596
aF27.036638021469116
a(dp3
S'start_to_end_time'
p4
F0.8710952189660841
sS'kp_detect_time'
p5
F0.8014078755532542
sS'match_time'
p6
F0.06385251783555554
sS'open_time'
p7
F0.004825345931514617
sS'vis_time'
p8
F0.0
sasS'ORB'
p9
(lp10
I475
aI677
aF70.16248153618906
aF1.1246728897094727
a(dp11
g4
F0.036156454393940586
sg5
F0.027737240637502363
sg6
F0.003404701909711284
sg7
F0.004883820010769752
sg8
F0.0
sasS'BRISK'
p12
(lp13
I161
aI554
aF29.061371841155236
aF1.867568016052246
a(dp14
g4
F0.04028524891022713
sg5
F0.03199544260578771
sg6
F0.0031531087813838838
sg7
F0.004906462084862494
sg8
F0.0
sas.