(dp0
S'SIFT'
p1
(lp2
F30.05936881574836
a(lp3
F1.5803759098052979
aF1.208003044128418
aF1.515923023223877
aF1.1816749572753906
aF1.373478889465332
aF1.2957401275634766
aF1.1962571144104004
aF1.350466012954712
aF1.309988021850586
aF1.1881749629974365
aF1.2871229648590088
aF1.3798599243164062
aF1.2176518440246582
aF1.5164811611175537
aF1.2280828952789307
aF1.541491985321045
aF1.2234270572662354
aF1.5490810871124268
aF1.2413640022277832
aF1.4951651096343994
aF1.2996339797973633
aF1.392881155014038
aF1.367475986480713
aF1.277189016342163
aF1.4703478813171387
aF1.21685791015625
aF1.5195529460906982
aF1.2434511184692383
aF1.575807809829712
aF1.278352975845337
aF1.5705490112304688
aF1.2652459144592285
aF1.525542974472046
aF1.270733118057251
aF1.4497110843658447
aF1.3842520713806152
aF1.3977599143981934
aF1.4240460395812988
aF1.3125829696655273
aF1.4839668273925781
aF1.2363181114196777
aF1.4933338165283203
aF1.224372148513794
aF1.5298969745635986
aF1.2199459075927734
aF1.4907760620117188
aF1.2324531078338623
aF1.44004487991333
aF1.3559789657592773
aF1.3457767963409424
aF1.460461139678955
aasS'ORB'
p4
(lp5
F78.16091954022988
a(lp6
F0.055975914001464844
aF0.04234504699707031
aF0.041368961334228516
aF0.040946006774902344
aF0.04080486297607422
aF0.040963172912597656
aF0.04102897644042969
aF0.04100489616394043
aF0.04064607620239258
aF0.04204201698303223
aF0.04081010818481445
aF0.041237831115722656
aF0.04097580909729004
aF0.04184317588806152
aF0.04173398017883301
aF0.04133486747741699
aF0.04094696044921875
aF0.0411989688873291
aF0.04161977767944336
aF0.04141521453857422
aF0.04093194007873535
aF0.04127693176269531
aF0.040551185607910156
aF0.04126691818237305
aF0.04134702682495117
aF0.047573089599609375
aF0.04182791709899902
aF0.04112601280212402
aF0.04340100288391113
aF0.059835195541381836
aF0.05942392349243164
aF0.059648990631103516
aF0.0591130256652832
aF0.05928802490234375
aF0.059062957763671875
aF0.059777021408081055
aF0.05937504768371582
aF0.059721946716308594
aF0.05975198745727539
aF0.05965995788574219
aF0.05924391746520996
aF0.05906105041503906
aF0.05916309356689453
aF0.06368112564086914
aF0.05925488471984863
aF0.0496220588684082
aF0.040949106216430664
aF0.04177594184875488
aF0.04117298126220703
aF0.04158306121826172
aF0.04234910011291504
aasS'BRISK'
p7
(lp8
F33.85562395075545
a(lp9
F0.0569307804107666
aF0.054711103439331055
aF0.056268930435180664
aF0.0543370246887207
aF0.05353713035583496
aF0.05363798141479492
aF0.0546109676361084
aF0.05409502983093262
aF0.053637027740478516
aF0.05441689491271973
aF0.05365109443664551
aF0.05411386489868164
aF0.05520296096801758
aF0.0548090934753418
aF0.05627703666687012
aF0.06160688400268555
aF0.05505180358886719
aF0.05501103401184082
aF0.055255889892578125
aF0.054641008377075195
aF0.05532503128051758
aF0.05670809745788574
aF0.05466794967651367
aF0.05472898483276367
aF0.055457115173339844
aF0.056138038635253906
aF0.05450701713562012
aF0.05502605438232422
aF0.05684399604797363
aF0.05682182312011719
aF0.05793499946594238
aF0.05735492706298828
aF0.057119131088256836
aF0.056192874908447266
aF0.05581998825073242
aF0.0561528205871582
aF0.05753183364868164
aF0.05625200271606445
aF0.057875871658325195
aF0.05761218070983887
aF0.05759406089782715
aF0.054804086685180664
aF0.05689501762390137
aF0.057235002517700195
aF0.05578017234802246
aF0.05466485023498535
aF0.05614209175109863
aF0.0555729866027832
aF0.05659985542297363
aF0.05536699295043945
aF0.05610013008117676
aas.