(dp0
S'SIFT'
p1
(lp2
F35.256962388745336
a(lp3
F0.6044600009918213
aF0.5317718982696533
aF0.5285830497741699
aF0.5337810516357422
aF0.5262329578399658
aF0.5220630168914795
aF0.5194580554962158
aF0.5195329189300537
aF0.5275380611419678
aF0.5252139568328857
aF0.5218751430511475
aF0.5101790428161621
aF0.5134449005126953
aF0.5133070945739746
aF0.539186954498291
aF0.5751020908355713
aF0.6111669540405273
aF0.5997090339660645
aF0.5902130603790283
aF0.5810940265655518
aF0.5782010555267334
aF0.5790660381317139
aF0.5554759502410889
aF0.5133218765258789
aF0.5095038414001465
aF0.5170841217041016
aF0.5629861354827881
aF0.5984771251678467
aF0.6481380462646484
aF0.6597578525543213
aF0.6473591327667236
aF0.6523408889770508
aF0.6451501846313477
aF0.6357889175415039
aF0.6292750835418701
aF0.6251189708709717
aF0.6229009628295898
aF0.619927167892456
aF0.615858793258667
aF0.6081039905548096
aF0.5689938068389893
aF0.5312488079071045
aF0.49300599098205566
aF0.4862229824066162
aF0.5150580406188965
aF0.6379120349884033
aF0.6491329669952393
aF0.6378090381622314
aF0.6104159355163574
aF0.570469856262207
aF0.552105188369751
aasS'ORB'
p4
(lp5
F43.983402489626556
a(lp6
F0.04087209701538086
aF0.028534889221191406
aF0.02753615379333496
aF0.026785850524902344
aF0.026968002319335938
aF0.02681899070739746
aF0.027492046356201172
aF0.027070999145507812
aF0.027081012725830078
aF0.026997089385986328
aF0.027525901794433594
aF0.026832103729248047
aF0.02686905860900879
aF0.026880979537963867
aF0.027795076370239258
aF0.02875518798828125
aF0.029234886169433594
aF0.028954029083251953
aF0.028764009475708008
aF0.028753995895385742
aF0.02836012840270996
aF0.0296480655670166
aF0.028599977493286133
aF0.027362823486328125
aF0.027554988861083984
aF0.027673959732055664
aF0.02844095230102539
aF0.0294649600982666
aF0.03037095069885254
aF0.030950069427490234
aF0.030405044555664062
aF0.030273914337158203
aF0.030286073684692383
aF0.030256032943725586
aF0.03004002571105957
aF0.029919862747192383
aF0.029754161834716797
aF0.029700040817260742
aF0.02982497215270996
aF0.029477834701538086
aF0.028352975845336914
aF0.028306961059570312
aF0.02698493003845215
aF0.02642989158630371
aF0.027637004852294922
aF0.030616044998168945
aF0.03092193603515625
aF0.030641794204711914
aF0.030018091201782227
aF0.029758930206298828
aF0.02934718132019043
aasS'BRISK'
p7
(lp8
F14.305652477320308
a(lp9
F0.020076990127563477
aF0.02066516876220703
aF0.0189969539642334
aF0.018073081970214844
aF0.01777482032775879
aF0.018294095993041992
aF0.018358945846557617
aF0.01821279525756836
aF0.018545150756835938
aF0.018671035766601562
aF0.018123149871826172
aF0.01806187629699707
aF0.017973899841308594
aF0.01898193359375
aF0.019921064376831055
aF0.021450042724609375
aF0.02243494987487793
aF0.021904945373535156
aF0.021659135818481445
aF0.020889997482299805
aF0.02092599868774414
aF0.021044015884399414
aF0.01978898048400879
aF0.017744064331054688
aF0.01772284507751465
aF0.01829695701599121
aF0.02003788948059082
aF0.021836042404174805
aF0.02411198616027832
aF0.024766206741333008
aF0.02418994903564453
aF0.0242459774017334
aF0.023274898529052734
aF0.023472070693969727
aF0.023730039596557617
aF0.023830175399780273
aF0.02423882484436035
aF0.02367091178894043
aF0.024073123931884766
aF0.023550987243652344
aF0.021470069885253906
aF0.01949596405029297
aF0.01749110221862793
aF0.017277002334594727
aF0.019507884979248047
aF0.02513885498046875
aF0.02644181251525879
aF0.025484085083007812
aF0.023286819458007812
aF0.022604942321777344
aF0.021219968795776367
aas.