(dp0
S'SIFT'
p1
(lp2
F42.18907478330981
a(lp3
F0.7873990535736084
aF0.693310022354126
aF0.7044970989227295
aF0.6826038360595703
aF0.6823098659515381
aF0.6524341106414795
aF0.6429648399353027
aF0.6351618766784668
aF0.641448974609375
aF0.6573829650878906
aF0.6579349040985107
aF0.6484570503234863
aF0.6460020542144775
aF0.652519941329956
aF0.6546120643615723
aF0.654350996017456
aF0.6721022129058838
aF0.6989800930023193
aF0.6918489933013916
aF0.6593739986419678
aF0.6611628532409668
aF0.6555531024932861
aF0.6940500736236572
aF0.7056479454040527
aF0.6921219825744629
aF0.6902141571044922
aF0.6484858989715576
aF0.6438930034637451
aF0.6651520729064941
aF0.6882009506225586
aF0.6768341064453125
aF0.65659499168396
aF0.631317138671875
aF0.6121468544006348
aF0.6112501621246338
aF0.5973129272460938
aF0.5723071098327637
aF0.535254955291748
aF0.5025801658630371
aF0.491771936416626
aF0.5045421123504639
aF0.49787092208862305
aF0.4734809398651123
aF0.475538969039917
aF0.48175692558288574
aF0.5033581256866455
aF0.4992690086364746
aF0.48369693756103516
aF0.47040796279907227
aF0.4625558853149414
aF0.46330714225769043
aF0.4652090072631836
aF0.4674661159515381
aF0.4614830017089844
aF0.47168493270874023
aF0.47884297370910645
aF0.4868791103363037
aF0.48094797134399414
aF0.48152804374694824
aF0.48400092124938965
aF0.5246059894561768
aF0.519312858581543
aF0.5092082023620605
aF0.4953148365020752
aF0.5027658939361572
aF0.5010650157928467
aF0.5008571147918701
aF0.5018200874328613
aF0.5050210952758789
aF0.5061988830566406
aF0.5119209289550781
aF0.511383056640625
aF0.5089020729064941
aF0.5092999935150146
aF0.5114688873291016
aF0.5249950885772705
aF0.5284810066223145
aF0.5365598201751709
aF0.5449960231781006
aF0.5589079856872559
aF0.5543110370635986
aF0.5507149696350098
aF0.5631611347198486
aF0.5644469261169434
aF0.5728600025177002
aF0.57004714012146
aF0.5749919414520264
aF0.5730619430541992
aF0.5619111061096191
aF0.5622360706329346
aF0.5551440715789795
aF0.5415740013122559
aF0.5264971256256104
aF0.5264120101928711
aF0.5178689956665039
aF0.5156080722808838
aF0.5076849460601807
aF0.5130050182342529
aF0.5135409832000732
aF0.5189719200134277
aF0.5220680236816406
aF0.5270588397979736
aF0.5218539237976074
aF0.5248780250549316
aF0.5127999782562256
aF0.5165159702301025
aF0.5209939479827881
aF0.5409390926361084
aF0.5816390514373779
aF0.6250669956207275
aF0.6043379306793213
aF0.5982720851898193
aF0.5842881202697754
aF0.5836391448974609
aF0.583885908126831
aF0.5628180503845215
aF0.5168440341949463
aF0.5082671642303467
aF0.5206329822540283
aF0.5641419887542725
aF0.6069059371948242
aF0.6813130378723145
aF0.6828751564025879
aF0.8319430351257324
aF0.8054718971252441
aF0.6801178455352783
aF0.6484599113464355
aF0.8069431781768799
aF0.7593109607696533
aF0.6342508792877197
aF0.6254160404205322
aF0.6976561546325684
aF0.625924825668335
aF0.589378833770752
aF0.59029221534729
aF0.6876189708709717
aF0.5460319519042969
aF0.514955997467041
aF0.6400911808013916
aF0.6684808731079102
aF0.6646988391876221
aF0.7640979290008545
aF0.6821210384368896
aF0.5641148090362549
aF0.5672478675842285
aF0.5632498264312744
aF0.732759952545166
aF0.597743034362793
aF0.5383639335632324
aF0.6730010509490967
aF0.6045901775360107
aF0.687187910079956
aF0.718055009841919
aF0.8905909061431885
aF0.8563790321350098
aF0.7102391719818115
aF0.703636884689331
aF0.6921870708465576
aF0.6769721508026123
aF0.6526429653167725
aF0.6190838813781738
aF0.655203104019165
aF0.8875718116760254
aF0.7318708896636963
aF0.7544009685516357
aF0.7571079730987549
aF0.7621850967407227
aF0.7375121116638184
aF0.7309551239013672
aF0.7385659217834473
aF0.750640869140625
aF0.750781774520874
aF0.7707250118255615
aF0.7336812019348145
aF0.7223348617553711
aF0.6577188968658447
aF0.6302478313446045
aF0.5983338356018066
aF0.5801718235015869
aF0.5496339797973633
aF0.5377209186553955
aF0.5383679866790771
aF0.5576071739196777
aF0.5657699108123779
aasS'ORB'
p4
(lp5
F60.45112781954888
a(lp6
F0.04244399070739746
aF0.03195810317993164
aF0.031294822692871094
aF0.0312800407409668
aF0.031234025955200195
aF0.031189918518066406
aF0.03238081932067871
aF0.030474185943603516
aF0.030292987823486328
aF0.030417919158935547
aF0.030839204788208008
aF0.029985904693603516
aF0.030117034912109375
aF0.03030705451965332
aF0.030883073806762695
aF0.03107905387878418
aF0.031100034713745117
aF0.031494140625
aF0.03168201446533203
aF0.03114795684814453
aF0.03166604042053223
aF0.031684160232543945
aF0.03226304054260254
aF0.032002925872802734
aF0.032647132873535156
aF0.03167390823364258
aF0.03085613250732422
aF0.0313720703125
aF0.031038999557495117
aF0.031184911727905273
aF0.032295942306518555
aF0.0308229923248291
aF0.030470848083496094
aF0.030227184295654297
aF0.030292034149169922
aF0.029774904251098633
aF0.02932906150817871
aF0.0289459228515625
aF0.02740001678466797
aF0.026908159255981445
aF0.027193069458007812
aF0.027253150939941406
aF0.02596592903137207
aF0.02585911750793457
aF0.027502775192260742
aF0.027441978454589844
aF0.027284860610961914
aF0.026583194732666016
aF0.02573084831237793
aF0.024899005889892578
aF0.024693012237548828
aF0.0250699520111084
aF0.025227069854736328
aF0.024506092071533203
aF0.024995088577270508
aF0.026070833206176758
aF0.026520967483520508
aF0.026189804077148438
aF0.025926828384399414
aF0.02603006362915039
aF0.027131080627441406
aF0.026719093322753906
aF0.02678394317626953
aF0.026307106018066406
aF0.02919793128967285
aF0.02749800682067871
aF0.027336835861206055
aF0.02742910385131836
aF0.027384042739868164
aF0.027276039123535156
aF0.027267932891845703
aF0.027882099151611328
aF0.027276039123535156
aF0.027333974838256836
aF0.027390003204345703
aF0.02778482437133789
aF0.027650117874145508
aF0.0274660587310791
aF0.027636051177978516
aF0.0280148983001709
aF0.028062105178833008
aF0.027951955795288086
aF0.028423070907592773
aF0.0284879207611084
aF0.028549909591674805
aF0.028622865676879883
aF0.029098987579345703
aF0.028443098068237305
aF0.028035879135131836
aF0.028484821319580078
aF0.028914928436279297
aF0.028269052505493164
aF0.02832508087158203
aF0.02803206443786621
aF0.02799820899963379
aF0.027587890625
aF0.027556180953979492
aF0.02751302719116211
aF0.0272979736328125
aF0.027518033981323242
aF0.027218103408813477
aF0.027421951293945312
aF0.02697896957397461
aF0.027369022369384766
aF0.026723146438598633
aF0.02685999870300293
aF0.02708888053894043
aF0.027916908264160156
aF0.029365062713623047
aF0.029666900634765625
aF0.02947688102722168
aF0.02897500991821289
aF0.02923107147216797
aF0.029067039489746094
aF0.030117034912109375
aF0.028762102127075195
aF0.02776503562927246
aF0.027408838272094727
aF0.027770042419433594
aF0.02911210060119629
aF0.029846906661987305
aF0.03101205825805664
aF0.031549930572509766
aF0.03101801872253418
aF0.03087592124938965
aF0.03095698356628418
aF0.030704021453857422
aF0.03029799461364746
aF0.029999971389770508
aF0.030308008193969727
aF0.030527114868164062
aF0.031109094619750977
aF0.02978205680847168
aF0.02880382537841797
aF0.027734041213989258
aF0.02726912498474121
aF0.027096986770629883
aF0.02780914306640625
aF0.030430078506469727
aF0.03104710578918457
aF0.030671119689941406
aF0.03057384490966797
aF0.02963709831237793
aF0.02958393096923828
aF0.028782129287719727
aF0.028439044952392578
aF0.02885890007019043
aF0.028837919235229492
aF0.02834606170654297
aF0.028690099716186523
aF0.03032398223876953
aF0.03158903121948242
aF0.03210592269897461
aF0.03201699256896973
aF0.032356977462768555
aF0.0314638614654541
aF0.03135108947753906
aF0.0310208797454834
aF0.031003952026367188
aF0.030655860900878906
aF0.030132055282592773
aF0.030102014541625977
aF0.030949115753173828
aF0.03307509422302246
aF0.03327798843383789
aF0.03325605392456055
aF0.033296823501586914
aF0.03306698799133301
aF0.03281402587890625
aF0.03260302543640137
aF0.03346395492553711
aF0.032948970794677734
aF0.03304314613342285
aF0.03284096717834473
aF0.03156304359436035
aF0.03128695487976074
aF0.03047919273376465
aF0.030170917510986328
aF0.029762983322143555
aF0.0290529727935791
aF0.028779029846191406
aF0.028246164321899414
aF0.0289459228515625
aF0.029124021530151367
aasS'BRISK'
p7
(lp8
F32.39383690341977
a(lp9
F0.02758193016052246
aF0.02704596519470215
aF0.026601076126098633
aF0.026561975479125977
aF0.02725505828857422
aF0.02663898468017578
aF0.025981903076171875
aF0.02555084228515625
aF0.025149106979370117
aF0.02529001235961914
aF0.02662801742553711
aF0.026196002960205078
aF0.026019811630249023
aF0.02691197395324707
aF0.0269320011138916
aF0.027079105377197266
aF0.02754807472229004
aF0.02787184715270996
aF0.02737593650817871
aF0.026716947555541992
aF0.026200056076049805
aF0.02640700340270996
aF0.028331995010375977
aF0.028441905975341797
aF0.027851104736328125
aF0.027732133865356445
aF0.02594304084777832
aF0.025777816772460938
aF0.026372194290161133
aF0.02780604362487793
aF0.027684926986694336
aF0.026806116104125977
aF0.02598094940185547
aF0.02472686767578125
aF0.025146961212158203
aF0.02538609504699707
aF0.02376103401184082
aF0.021938085556030273
aF0.019540071487426758
aF0.01813507080078125
aF0.01928400993347168
aF0.01881718635559082
aF0.01723504066467285
aF0.01739811897277832
aF0.018023967742919922
aF0.01890110969543457
aF0.01891493797302246
aF0.018162965774536133
aF0.016637086868286133
aF0.016489028930664062
aF0.016256093978881836
aF0.016376972198486328
aF0.0162961483001709
aF0.015702009201049805
aF0.015768051147460938
aF0.017232894897460938
aF0.01737380027770996
aF0.0170438289642334
aF0.01696920394897461
aF0.01739501953125
aF0.019231796264648438
aF0.01895880699157715
aF0.018520116806030273
aF0.017878055572509766
aF0.018341064453125
aF0.018201112747192383
aF0.018455982208251953
aF0.017813920974731445
aF0.01833510398864746
aF0.01815009117126465
aF0.01852893829345703
aF0.01835799217224121
aF0.01851487159729004
aF0.018828868865966797
aF0.018622159957885742
aF0.019314050674438477
aF0.01966404914855957
aF0.02047896385192871
aF0.020051002502441406
aF0.020858049392700195
aF0.020869016647338867
aF0.021451950073242188
aF0.021825790405273438
aF0.021647930145263672
aF0.022691011428833008
aF0.021821975708007812
aF0.02223515510559082
aF0.021064043045043945
aF0.02084803581237793
aF0.021500110626220703
aF0.021622896194458008
aF0.020550012588500977
aF0.019613027572631836
aF0.019445180892944336
aF0.01930093765258789
aF0.018841028213500977
aF0.018275976181030273
aF0.017853975296020508
aF0.018865108489990234
aF0.018740177154541016
aF0.018924951553344727
aF0.019582033157348633
aF0.01898813247680664
aF0.01885986328125
aF0.018144845962524414
aF0.01864314079284668
aF0.018620967864990234
aF0.02047419548034668
aF0.02233099937438965
aF0.023027896881103516
aF0.023025035858154297
aF0.022172927856445312
aF0.021660804748535156
aF0.02144598960876465
aF0.021316051483154297
aF0.020535945892333984
aF0.018604040145874023
aF0.01770496368408203
aF0.01889514923095703
aF0.019951820373535156
aF0.021939992904663086
aF0.024901866912841797
aF0.024255990982055664
aF0.02430891990661621
aF0.025046825408935547
aF0.023893117904663086
aF0.024240970611572266
aF0.0239260196685791
aF0.024471044540405273
aF0.024279117584228516
aF0.023814916610717773
aF0.024513959884643555
aF0.0240328311920166
aF0.02231884002685547
aF0.020097970962524414
aF0.01806783676147461
aF0.0175321102142334
aF0.0198819637298584
aF0.026018857955932617
aF0.02714085578918457
aF0.026180028915405273
aF0.024314165115356445
aF0.02313995361328125
aF0.0217740535736084
aF0.022031068801879883
aF0.020786046981811523
aF0.020517826080322266
aF0.020727872848510742
aF0.021091938018798828
aF0.02210688591003418
aF0.024446964263916016
aF0.028264999389648438
aF0.029397010803222656
aF0.030666828155517578
aF0.029105186462402344
aF0.029702186584472656
aF0.028921842575073242
aF0.028492212295532227
aF0.028575897216796875
aF0.027955055236816406
aF0.025019168853759766
aF0.02562403678894043
aF0.028015851974487305
aF0.030894041061401367
aF0.031699180603027344
aF0.03217887878417969
aF0.03172707557678223
aF0.030836105346679688
aF0.03035902976989746
aF0.03127694129943848
aF0.033331871032714844
aF0.03401684761047363
aF0.033286094665527344
aF0.03329896926879883
aF0.029765844345092773
aF0.028774023056030273
aF0.027881145477294922
aF0.026566028594970703
aF0.02455902099609375
aF0.022166967391967773
aF0.022098064422607422
aF0.022073984146118164
aF0.02346205711364746
aF0.024340152740478516
aas.