(dp0
S'ORB'
p1
(lp2
F8.695652173913043
a(lp3
F0.036930084228515625
aF0.035089969635009766
aF0.03491520881652832
aF0.033525943756103516
aF0.033496856689453125
aF0.035182952880859375
aF0.035418033599853516
aF0.03610491752624512
aF0.03638505935668945
aF0.03621220588684082
aF0.03738713264465332
aF0.03656506538391113
aF0.03639698028564453
aF0.036260128021240234
aF0.0355679988861084
aF0.035890817642211914
aF0.036039113998413086
aF0.03507089614868164
aF0.03637504577636719
aF0.03705000877380371
aF0.0359041690826416
aF0.03634786605834961
aF0.03663992881774902
aF0.03717494010925293
aF0.03696799278259277
aF0.0370030403137207
aF0.03706789016723633
aF0.0379328727722168
aF0.03821206092834473
aF0.0394289493560791
aF0.04152393341064453
aF0.03937196731567383
aF0.03901791572570801
aF0.0391240119934082
aF0.03638482093811035
aF0.03498101234436035
aF0.03447413444519043
aF0.03530597686767578
aF0.03635287284851074
aF0.03538012504577637
aF0.03591203689575195
aF0.03582406044006348
aF0.0357210636138916
aF0.03656506538391113
aF0.03450798988342285
aF0.03365683555603027
aF0.03272509574890137
aF0.03179287910461426
aF0.030747175216674805
aF0.03122687339782715
aas.