(dp0
S'ORB'
p1
(lp2
F0.8333333333333334
aF0.7857142857142857
aF0.47058823529411764
aF0.2631578947368421
aF0.15
aF0.2
aF0.125
aF0.47058823529411764
aF0.3076923076923077
aF0.1875
aF0.23076923076923078
aF0.14285714285714285
aF0.045454545454545456
aF0.0
aF0.0
aF0.041666666666666664
aF0.0
aF0.0
aF0.0
aF0.0
aF0.03125
aF0.06060606060606061
aF0.05714285714285714
aF0.20833333333333334
aF0.1111111111111111
aF0.0
aF0.058823529411764705
aF0.0
aF0.0
aF0.0
aF0.0
aF0.0
aF0.07142857142857142
aF0.0
aF0.0
aF0.0
aF0.0
aF0.0
aF0.0
aF0.0
aF0.0
aF0.0
aF0.0
aF0.0
aF0.0
aF0.0
aF0.0
aF0.0
aF0.08333333333333333
aF0.0
as.