(dp0
S'SIFT'
p1
(lp2
F48.06546644844517
a(lp3
F0.876776933670044
aF0.785161018371582
aF0.770733118057251
aF0.7892839908599854
aF0.7879428863525391
aF0.7946560382843018
aF0.8139429092407227
aF0.824387788772583
aF0.8246488571166992
aF0.82846999168396
aF0.8256840705871582
aF0.8355269432067871
aF0.8346490859985352
aF0.839195966720581
aF0.8411350250244141
aF0.8405959606170654
aF0.834414005279541
aF0.8330919742584229
aF0.8425281047821045
aF0.8353071212768555
aF0.8383069038391113
aF0.8390660285949707
aF0.8460321426391602
aF0.8438830375671387
aF0.847412109375
aF0.8453381061553955
aF0.856374979019165
aF0.8472268581390381
aF0.8023879528045654
aF0.7880489826202393
aF0.793848991394043
aF0.7980208396911621
aF0.7823500633239746
aF0.6957998275756836
aF0.614933967590332
aF0.5972580909729004
aF0.6092729568481445
aF0.6270139217376709
aF0.6438078880310059
aF0.6832609176635742
aF0.6937859058380127
aF0.6951911449432373
aF0.6894879341125488
aF0.6658008098602295
aF0.607151985168457
aF0.5865509510040283
aF0.5682611465454102
aF0.549271821975708
aF0.5376181602478027
aF0.5395979881286621
aF0.540402889251709
aF0.6173009872436523
aF0.6807539463043213
aF0.6867201328277588
aF0.654181957244873
aF0.6252498626708984
aF0.6049129962921143
aF0.6013078689575195
aF0.5984470844268799
aF0.6007850170135498
aF0.6088159084320068
aF0.6381189823150635
aF0.6641230583190918
aF0.6659519672393799
aF0.6885380744934082
aF0.6886191368103027
aF0.6939740180969238
aF0.685856819152832
aF0.6877319812774658
aF0.6841909885406494
aF0.6606738567352295
aF0.6584579944610596
aF0.6648938655853271
aF0.6564791202545166
aF0.6540050506591797
aF0.6854689121246338
aF0.7203760147094727
aF0.7397098541259766
aF0.7661399841308594
aF0.7674450874328613
aF0.7724800109863281
aF0.772514820098877
aF0.7818689346313477
aF0.762498140335083
aF0.7546360492706299
aF0.7478170394897461
aF0.8328921794891357
aF0.8491179943084717
aF0.8906230926513672
aF0.893683910369873
aF0.8992021083831787
aF0.9045169353485107
aF0.9420289993286133
aF0.9140660762786865
aF0.9055061340332031
aF0.8637869358062744
aF0.8739051818847656
aF0.8583548069000244
aF0.8456299304962158
aF0.9021821022033691
aF0.8997199535369873
aF0.9245650768280029
aF0.9272880554199219
aF0.9349241256713867
aF0.9289019107818604
aF0.922266960144043
aF0.9182240962982178
aF0.9141290187835693
aF0.9406380653381348
aF0.9377830028533936
aF0.928926944732666
aF0.9203979969024658
aF0.921205997467041
aF0.917309045791626
aF0.9139699935913086
aF0.8240318298339844
aF0.7873239517211914
aF0.7541830539703369
aF0.768463134765625
aF0.7830600738525391
aF0.8219029903411865
aF0.8390810489654541
aF0.8318569660186768
aF0.8145458698272705
aF0.8174819946289062
aF0.813601016998291
aF0.7595930099487305
aF0.7116549015045166
aF0.6911439895629883
aF0.6574420928955078
aF0.6493930816650391
aF0.6572740077972412
aF0.6773681640625
aF0.6800439357757568
aF0.679088830947876
aF0.5963778495788574
aF0.5545318126678467
aF0.5376060009002686
aF0.5460889339447021
aF0.5497629642486572
aF0.5512330532073975
aF0.5458829402923584
aF0.5420389175415039
aF0.5394721031188965
aF0.5422298908233643
aF0.5782351493835449
aF0.6091771125793457
aF0.6209061145782471
aF0.6282088756561279
aF0.6224038600921631
aF0.6064720153808594
aF0.6126828193664551
aF0.6281449794769287
aF0.6639940738677979
aF0.731950044631958
aF0.794517993927002
aF0.8985230922698975
aF0.9535930156707764
aF0.9972438812255859
aF0.9725000858306885
aF0.9729471206665039
aF0.9623439311981201
aF0.8887219429016113
aF0.8493669033050537
aF0.850883960723877
aasS'ORB'
p4
(lp5
F58.26625386996904
a(lp6
F0.05117201805114746
aF0.0376889705657959
aF0.03615999221801758
aF0.03629183769226074
aF0.03661203384399414
aF0.03663206100463867
aF0.03749585151672363
aF0.03720378875732422
aF0.03722810745239258
aF0.03751206398010254
aF0.03747200965881348
aF0.037893056869506836
aF0.037905216217041016
aF0.037663936614990234
aF0.03767585754394531
aF0.038339853286743164
aF0.03789710998535156
aF0.03833484649658203
aF0.03916597366333008
aF0.03848409652709961
aF0.0379638671875
aF0.03764820098876953
aF0.03766489028930664
aF0.03768205642700195
aF0.03777194023132324
aF0.03782916069030762
aF0.03772902488708496
aF0.03791689872741699
aF0.037203073501586914
aF0.03687095642089844
aF0.037043094635009766
aF0.03751206398010254
aF0.03730583190917969
aF0.03621983528137207
aF0.0348820686340332
aF0.03423309326171875
aF0.03448200225830078
aF0.03487706184387207
aF0.03493905067443848
aF0.03534388542175293
aF0.035331010818481445
aF0.03540205955505371
aF0.03557991981506348
aF0.03451204299926758
aF0.033334970474243164
aF0.03272700309753418
aF0.03222990036010742
aF0.03221297264099121
aF0.0315241813659668
aF0.03197503089904785
aF0.03161501884460449
aF0.03347301483154297
aF0.034964799880981445
aF0.03450798988342285
aF0.03423190116882324
aF0.033663034439086914
aF0.03317093849182129
aF0.03274703025817871
aF0.03300905227661133
aF0.032814979553222656
aF0.03322100639343262
aF0.03437495231628418
aF0.03510689735412598
aF0.03467297554016113
aF0.03532004356384277
aF0.03507804870605469
aF0.035247087478637695
aF0.03541302680969238
aF0.0351560115814209
aF0.03501081466674805
aF0.03424382209777832
aF0.03376889228820801
aF0.034384965896606445
aF0.034191131591796875
aF0.03410983085632324
aF0.03584408760070801
aF0.035984039306640625
aF0.03616809844970703
aF0.036628007888793945
aF0.03628087043762207
aF0.036846160888671875
aF0.03708386421203613
aF0.03718900680541992
aF0.03723001480102539
aF0.03687000274658203
aF0.03649282455444336
aF0.038091182708740234
aF0.03856396675109863
aF0.03895902633666992
aF0.039424896240234375
aF0.03941798210144043
aF0.03926515579223633
aF0.03971099853515625
aF0.03923201560974121
aF0.03913378715515137
aF0.03853487968444824
aF0.03835415840148926
aF0.037689924240112305
aF0.037828922271728516
aF0.03949379920959473
aF0.03872394561767578
aF0.03979301452636719
aF0.03943490982055664
aF0.0397028923034668
aF0.039849042892456055
aF0.04017496109008789
aF0.039834022521972656
aF0.0394439697265625
aF0.0399320125579834
aF0.039617061614990234
aF0.04005098342895508
aF0.03998398780822754
aF0.040229082107543945
aF0.04022097587585449
aF0.04046797752380371
aF0.0384058952331543
aF0.03666496276855469
aF0.036019086837768555
aF0.03635096549987793
aF0.036839962005615234
aF0.03756999969482422
aF0.038475990295410156
aF0.03814411163330078
aF0.03780007362365723
aF0.03788876533508301
aF0.03692007064819336
aF0.03641104698181152
aF0.03603792190551758
aF0.03432416915893555
aF0.033503055572509766
aF0.03329920768737793
aF0.03305387496948242
aF0.033895015716552734
aF0.0337681770324707
aF0.033754825592041016
aF0.03164100646972656
aF0.03014397621154785
aF0.029434919357299805
aF0.0295870304107666
aF0.029847145080566406
aF0.02998185157775879
aF0.029662132263183594
aF0.030086994171142578
aF0.029690027236938477
aF0.030308008193969727
aF0.030963897705078125
aF0.03174781799316406
aF0.031759023666381836
aF0.031870126724243164
aF0.03194594383239746
aF0.031742095947265625
aF0.031260013580322266
aF0.03188896179199219
aF0.032755136489868164
aF0.03475189208984375
aF0.03675699234008789
aF0.03882288932800293
aF0.03909897804260254
aF0.040493011474609375
aF0.04000091552734375
aF0.04017901420593262
aF0.0398099422454834
aF0.038069963455200195
aF0.03767800331115723
aF0.03727984428405762
aasS'BRISK'
p7
(lp8
F31.783369803063454
a(lp9
F0.0389409065246582
aF0.03509807586669922
aF0.03542494773864746
aF0.03545689582824707
aF0.03487706184387207
aF0.03580307960510254
aF0.03705191612243652
aF0.037052154541015625
aF0.038498878479003906
aF0.038043975830078125
aF0.03891611099243164
aF0.03916311264038086
aF0.03916501998901367
aF0.03904390335083008
aF0.03843402862548828
aF0.03926992416381836
aF0.03989601135253906
aF0.038748979568481445
aF0.0386199951171875
aF0.03858208656311035
aF0.03914999961853027
aF0.0387420654296875
aF0.03955698013305664
aF0.03941702842712402
aF0.03904891014099121
aF0.03983497619628906
aF0.039988040924072266
aF0.04062700271606445
aF0.0366358757019043
aF0.03670001029968262
aF0.03666281700134277
aF0.03723788261413574
aF0.037982940673828125
aF0.034364938735961914
aF0.030005216598510742
aF0.028722047805786133
aF0.028994083404541016
aF0.02978992462158203
aF0.031043052673339844
aF0.03081989288330078
aF0.03187394142150879
aF0.032095909118652344
aF0.03191184997558594
aF0.030372142791748047
aF0.02603602409362793
aF0.024631023406982422
aF0.023847103118896484
aF0.022665023803710938
aF0.021610021591186523
aF0.021331071853637695
aF0.022131919860839844
aF0.027930021286010742
aF0.03036785125732422
aF0.03110504150390625
aF0.029734134674072266
aF0.02747488021850586
aF0.026298046112060547
aF0.025413990020751953
aF0.02563190460205078
aF0.026411056518554688
aF0.027698993682861328
aF0.028764963150024414
aF0.030298948287963867
aF0.03119802474975586
aF0.03125500679016113
aF0.03184914588928223
aF0.031148910522460938
aF0.032190799713134766
aF0.03280496597290039
aF0.0328519344329834
aF0.029682159423828125
aF0.030284881591796875
aF0.031137943267822266
aF0.0306398868560791
aF0.03149700164794922
aF0.033303022384643555
aF0.034674882888793945
aF0.035336971282958984
aF0.03529191017150879
aF0.03444385528564453
aF0.03571200370788574
aF0.03577303886413574
aF0.03589916229248047
aF0.03823399543762207
aF0.03261399269104004
aF0.032958984375
aF0.03865313529968262
aF0.040001869201660156
aF0.040656089782714844
aF0.041468143463134766
aF0.04224205017089844
aF0.0421290397644043
aF0.042150020599365234
aF0.042810916900634766
aF0.04156899452209473
aF0.039034128189086914
aF0.03943490982055664
aF0.037245988845825195
aF0.03668808937072754
aF0.03823685646057129
aF0.038763999938964844
aF0.03968191146850586
aF0.04066109657287598
aF0.04362010955810547
aF0.04439091682434082
aF0.043770790100097656
aF0.04364299774169922
aF0.042738914489746094
aF0.04348897933959961
aF0.04186296463012695
aF0.042497873306274414
aF0.043869972229003906
aF0.044313907623291016
aF0.044058799743652344
aF0.04411482810974121
aF0.03862404823303223
aF0.03506302833557129
aF0.03369498252868652
aF0.03561687469482422
aF0.03724408149719238
aF0.03923511505126953
aF0.03867697715759277
aF0.03876805305480957
aF0.03883099555969238
aF0.03731703758239746
aF0.036110877990722656
aF0.03432106971740723
aF0.03022909164428711
aF0.027790069580078125
aF0.026434898376464844
aF0.0256650447845459
aF0.025664091110229492
aF0.026324987411499023
aF0.02679610252380371
aF0.02746105194091797
aF0.022975921630859375
aF0.019340991973876953
aF0.01847100257873535
aF0.01887798309326172
aF0.01938605308532715
aF0.019726037979125977
aF0.01960587501525879
aF0.019587039947509766
aF0.019239187240600586
aF0.019984006881713867
aF0.021331071853637695
aF0.022228002548217773
aF0.022490978240966797
aF0.02277684211730957
aF0.02232193946838379
aF0.022320985794067383
aF0.02164912223815918
aF0.022562026977539062
aF0.025964975357055664
aF0.029713153839111328
aF0.033677101135253906
aF0.04033493995666504
aF0.04279494285583496
aF0.04555487632751465
aF0.04418206214904785
aF0.044547080993652344
aF0.04547595977783203
aF0.03972196578979492
aF0.038761138916015625
aF0.037869930267333984
aas.