(dp0
S'SIFT'
p1
(lp2
F46.79433805162365
a(lp3
F0.850775957107544
aF0.7705321311950684
aF0.750540018081665
aF0.7440168857574463
aF0.7314071655273438
aF0.8183190822601318
aF0.8310928344726562
aF0.8756990432739258
aF0.8674941062927246
aF0.8796439170837402
aF0.8812851905822754
aF0.9144418239593506
aF0.8894519805908203
aF0.8758039474487305
aF0.8416919708251953
aF0.852741003036499
aF0.8309738636016846
aF0.8262929916381836
aF0.8815670013427734
aF0.8778040409088135
aF0.8975620269775391
aF0.9054670333862305
aF0.908397912979126
aF0.9028279781341553
aF0.8988139629364014
aF0.8973250389099121
aF0.8977360725402832
aF0.9073407649993896
aF0.9071509838104248
aF0.9031150341033936
aF0.9015729427337646
aasS'ORB'
p4
(lp5
F63.0232558139535
a(lp6
F0.05062294006347656
aF0.03742814064025879
aF0.036296844482421875
aF0.03609800338745117
aF0.03575301170349121
aF0.03728294372558594
aF0.0387721061706543
aF0.03812980651855469
aF0.038349151611328125
aF0.03840804100036621
aF0.03837084770202637
aF0.03895902633666992
aF0.03853106498718262
aF0.038285017013549805
aF0.03769803047180176
aF0.03819394111633301
aF0.036992788314819336
aF0.03708600997924805
aF0.03749513626098633
aF0.037529945373535156
aF0.03791499137878418
aF0.038372039794921875
aF0.03868913650512695
aF0.03911280632019043
aF0.03970813751220703
aF0.03893589973449707
aF0.03877711296081543
aF0.03901100158691406
aF0.0388948917388916
aF0.03946709632873535
aF0.03911900520324707
aasS'BRISK'
p7
(lp8
F21.215469613259668
a(lp9
F0.03768801689147949
aF0.03564810752868652
aF0.03575396537780762
aF0.032380104064941406
aF0.032492876052856445
aF0.03871512413024902
aF0.039990901947021484
aF0.040728092193603516
aF0.04101896286010742
aF0.04196810722351074
aF0.04162096977233887
aF0.041760921478271484
aF0.042244911193847656
aF0.04155778884887695
aF0.03859114646911621
aF0.03868889808654785
aF0.036493778228759766
aF0.036176204681396484
aF0.03807497024536133
aF0.03868389129638672
aF0.03934597969055176
aF0.0404660701751709
aF0.043374061584472656
aF0.04392409324645996
aF0.043066978454589844
aF0.0431671142578125
aF0.04225802421569824
aF0.04187798500061035
aF0.04128003120422363
aF0.04360198974609375
aF0.04338812828063965
aas.