(dp0
S'SIFT'
p1
(lp2
I11544
aI38404
aF30.05936881574836
aF63.11493897438049
a(dp3
S'start_to_end_time'
p4
F1.2344696521759033
sS'kp_detect_time'
p5
F0.905039488100538
sS'match_time'
p6
F0.3222566258673574
sS'open_time'
p7
F0.005444825864305683
sS'vis_time'
p8
F0.0
sa(lp9
F61.898395721925134
aF56.50767987065481
aF54.13669064748201
aF53.85996409335727
aF48.78048780487805
aF40.5940594059406
aF40.11049723756906
aF41.91489361702128
aF41.39387539598733
aF31.484049930651874
aF30.519480519480517
aF29.571984435797667
aF34.86997635933806
aF37.63188745603752
aF36.31221719457013
aF36.13916947250281
aF27.586206896551722
aF23.84937238493724
aF27.421555252387446
aF32.046783625730995
aF32.86219081272085
aF33.101851851851855
aF26.33495145631068
aF18.915343915343914
aF18.76750700280112
aF17.117117117117118
aF17.908309455587393
aF15.680473372781064
aF16.262482168330955
aF21.712538226299692
aF21.162444113263785
aF23.042168674698797
aF24.369747899159663
aF19.747235387045812
aF19.30116472545757
aF17.6759410801964
aF16.71875
aF17.098445595854923
aF16.298811544991512
aF19.246031746031747
aF15.414258188824661
aF12.645914396887159
aF13.619402985074627
aF14.972273567467653
aF13.394495412844037
aF16.387959866220736
aF15.018315018315018
aF18.451400329489292
aF19.306930693069308
aF17.874396135265698
aF18.195718654434252
aasS'ORB'
p10
(lp11
I612
aI783
aF78.16091954022988
aF2.136322021484375
a(dp12
g4
F0.04162112404318417
sg5
F0.03042912015727922
sg6
F0.00564117057650697
sg7
F0.005454367282343846
sg8
F0.0
sa(lp13
F96.15384615384616
aF97.5
aF96.42857142857143
aF94.66666666666667
aF88.88888888888889
aF86.36363636363636
aF94.11764705882352
aF91.66666666666666
aF91.66666666666666
aF33.33333333333333
aF0.0
aF33.33333333333333
aF96.875
aF95.83333333333334
aF92.85714285714286
aF96.875
aF20.0
aF33.33333333333333
aF57.14285714285714
aF80.0
aF85.0
aF76.19047619047619
aF50.0
aF0.0
aF0.0
aF0.0
aF0.0
aF0.0
aF0.0
aF0.0
aF0.0
aF0.0
aF33.33333333333333
aF0.0
aF0.0
aF0.0
aF0.0
aF0.0
aF0.0
aF0.0
aF0.0
aF0.0
aF0.0
aF50.0
aF0.0
aF0.0
aF0.0
aF0.0
aF0.0
aF20.0
aF0.0
aasS'BRISK'
p14
(lp15
I605
aI1787
aF33.85562395075545
aF4.035037994384766
a(dp16
g4
F0.06008391754299987
sg5
F0.04062521691415824
sg6
F0.013507670047236424
sg7
F0.0056609967175652
sg8
F0.0
sa(lp17
F78.125
aF71.23287671232876
aF74.07407407407408
aF68.33333333333333
aF73.68421052631578
aF48.97959183673469
aF50.0
aF44.18604651162791
aF44.18604651162791
aF29.268292682926827
aF13.88888888888889
aF11.11111111111111
aF34.78260869565217
aF46.15384615384615
aF36.95652173913043
aF42.857142857142854
aF28.947368421052634
aF25.925925925925924
aF34.48275862068966
aF33.33333333333333
aF34.285714285714285
aF29.166666666666668
aF22.916666666666664
aF10.714285714285714
aF15.909090909090908
aF17.647058823529413
aF3.225806451612903
aF13.636363636363635
aF24.0
aF12.903225806451612
aF24.137931034482758
aF24.0
aF4.0
aF25.806451612903224
aF15.0
aF13.636363636363635
aF10.526315789473683
aF10.526315789473683
aF14.285714285714285
aF17.857142857142858
aF8.695652173913043
aF7.6923076923076925
aF20.833333333333336
aF14.814814814814813
aF11.538461538461538
aF8.0
aF23.809523809523807
aF12.0
aF9.375
aF9.090909090909092
aF20.833333333333336
aas.