(dp0
S'SIFT'
p1
(lp2
I6396
aI74702
aF8.562019758507136
aF446.41711020469666
a(dp3
S'start_to_end_time'
p4
F0.8981912745316504
sS'kp_detect_time'
p5
F0.8804682917758013
sS'match_time'
p6
F0.010959455424871003
sS'open_time'
p7
F0.005701277577421315
sS'vis_time'
p8
F0.0
sa(lp9
F0.5434782608695652
aF0.0
aF0.684931506849315
aF1.25
aF1.6574585635359116
aF2.1164021164021163
aF0.9523809523809524
aF0.46511627906976744
aF1.2987012987012987
aF1.0362694300518136
aF1.4285714285714286
aF0.0
aF1.3888888888888888
aF0.0
aF0.0
aF1.0752688172043012
aF1.9230769230769231
aF1.0101010101010102
aF3.571428571428571
aF4.444444444444445
aF3.8461538461538463
aF3.571428571428571
aF2.793296089385475
aF2.5773195876288657
aF3.1390134529147984
aF1.9801980198019802
aF2.7522935779816518
aF1.9607843137254901
aF4.464285714285714
aF2.6785714285714284
aF3.0534351145038165
aF2.857142857142857
aF2.0
aF3.0303030303030303
aF2.459016393442623
aF2.7777777777777777
aF3.4482758620689653
aF4.10958904109589
aF4.10958904109589
aF6.504065040650407
aF3.508771929824561
aF2.3529411764705883
aF9.67741935483871
aF6.382978723404255
aF5.670103092783505
aF5.617977528089887
aF8.49056603773585
aF6.5420560747663545
aF10.204081632653061
aF9.844559585492227
aF8.256880733944955
aF8.465608465608465
aF7.6923076923076925
aF11.009174311926607
aF9.813084112149532
aF5.825242718446602
aF7.4866310160427805
aF9.75609756097561
aF7.537688442211055
aF9.090909090909092
aF7.18954248366013
aF7.317073170731707
aF6.7669172932330826
aF5.555555555555555
aF6.0606060606060606
aF7.964601769911504
aF3.007518796992481
aF2.7027027027027026
aF3.1746031746031744
aF2.631578947368421
aF4.195804195804196
aF2.684563758389262
aF1.5151515151515151
aF1.3333333333333335
aF4.545454545454546
aF3.1746031746031744
aF2.272727272727273
aF4.032258064516129
aF5.084745762711865
aF3.10077519379845
aF3.816793893129771
aF1.2987012987012987
aF6.8493150684931505
aF2.2988505747126435
aF3.7037037037037033
aF1.9047619047619049
aF0.0
aF1.0416666666666665
aF0.9009009009009009
aF1.8018018018018018
aF0.0
aF0.0
aF0.0
aF0.0
aF0.0
aF0.0
aF0.0
aF0.0
aF0.0
aF0.0
aF0.0
aF0.0
aF0.0
aF0.0
aF0.0
aF0.7407407407407408
aF0.0
aF0.7936507936507936
aF1.0526315789473684
aF0.0
aF1.7094017094017095
aF1.2738853503184715
aF1.4184397163120568
aF0.0
aF0.0
aF0.0
aF0.0
aF0.7575757575757576
aF3.90625
aF3.7735849056603774
aF4.504504504504505
aF0.9009009009009009
aF1.36986301369863
aF5.633802816901409
aF2.197802197802198
aF2.7522935779816518
aF2.564102564102564
aF0.0
aF3.5398230088495577
aF0.9708737864077669
aF3.2
aF3.669724770642202
aF0.8771929824561403
aF2.1739130434782608
aF0.8620689655172413
aF0.0
aF1.1494252873563218
aF0.0
aF0.0
aF0.0
aF0.0
aF0.0
aF0.0
aF0.0
aF0.0
aF0.0
aF0.0
aF0.0
aF0.0
aF0.0
aF0.9433962264150944
aF0.0
aF0.8928571428571428
aF1.8691588785046727
aF0.0
aF1.8691588785046727
aF3.3783783783783785
aF1.1235955056179776
aF1.9607843137254901
aF1.8867924528301887
aF0.0
aF0.9174311926605505
aF0.7142857142857143
aF0.6134969325153374
aF0.0
aF0.0
aF0.0
aF0.8403361344537815
aF2.083333333333333
aF0.46728971962616817
aF0.5208333333333333
aF1.0416666666666665
aF2.0100502512562812
aF0.9345794392523363
aF1.507537688442211
aF2.3696682464454977
aF1.6853932584269662
aF1.1428571428571428
aF0.6329113924050633
aF0.0
aF2.5806451612903225
aF0.6756756756756757
aF2.3952095808383236
aF2.857142857142857
aF2.272727272727273
aF0.7692307692307693
aF0.6756756756756757
aF1.3071895424836601
aF0.6666666666666667
aF1.3157894736842104
aF3.314917127071823
aF5.521472392638037
aF3.428571428571429
aF5.232558139534884
aF5.806451612903226
aF5.0
aF6.0402684563758395
aF8.527131782945736
aF9.89010989010989
aF13.461538461538462
aF15.517241379310345
aF22.916666666666664
aF22.105263157894736
aF23.214285714285715
aF16.304347826086957
aF9.75609756097561
aF10.112359550561797
aF12.82051282051282
aF9.420289855072465
aF9.868421052631579
aF9.6
aF6.315789473684211
aF11.304347826086957
aF12.658227848101266
aF15.032679738562091
aF9.523809523809524
aF12.048192771084338
aF14.285714285714285
aF10.559006211180124
aF13.10344827586207
aF9.202453987730062
aF11.242603550295858
aF12.962962962962962
aF11.666666666666666
aF14.594594594594595
aF14.207650273224044
aF12.690355329949238
aF12.643678160919542
aF10.240963855421686
aF12.698412698412698
aF11.65644171779141
aF13.714285714285715
aF14.772727272727273
aF13.114754098360656
aF14.201183431952662
aF14.917127071823206
aF15.625
aF14.563106796116504
aF13.414634146341465
aF13.068181818181818
aF14.689265536723164
aF14.917127071823206
aF17.073170731707318
aF11.891891891891893
aF11.428571428571429
aF11.616161616161616
aF10.552763819095476
aF13.88888888888889
aF14.054054054054054
aF12.299465240641712
aF13.40782122905028
aF16.666666666666664
aF13.297872340425531
aF13.294797687861271
aF15.463917525773196
aF12.883435582822086
aF12.751677852348994
aF12.751677852348994
aF14.935064935064934
aF19.58041958041958
aF10.434782608695652
aF13.20754716981132
aF13.461538461538462
aF15.0
aF19.491525423728813
aF23.076923076923077
aF25.438596491228072
aF22.93577981651376
aF18.64406779661017
aF16.19047619047619
aF24.770642201834864
aF16.16766467065868
aF16.666666666666664
aF17.159763313609467
aF18.435754189944134
aF10.191082802547772
aF8.720930232558139
aF15.591397849462366
aF13.812154696132598
aF13.218390804597702
aF14.792899408284024
aF14.285714285714285
aF16.3265306122449
aF15.483870967741936
aF17.791411042944784
aF16.751269035532996
aF17.703349282296653
aF15.841584158415841
aF15.025906735751295
aF12.76595744680851
aF12.195121951219512
aF8.0
aF8.040201005025125
aF7.853403141361256
aF5.46448087431694
aF10.909090909090908
aF10.625
aF11.320754716981133
aF9.090909090909092
aF11.046511627906977
aF16.091954022988507
aF13.333333333333334
aF13.548387096774196
aF15.568862275449103
aF13.714285714285715
aF8.620689655172415
aF14.723926380368098
aF12.941176470588237
aF13.924050632911392
aF8.75
aF9.49367088607595
aF12.195121951219512
aF11.320754716981133
aF17.197452229299362
aF10.982658959537572
aF15.135135135135137
aF11.30952380952381
aF13.297872340425531
aF13.872832369942195
aF12.574850299401197
aF12.154696132596685
aF12.631578947368421
aF12.755102040816327
aF14.207650273224044
aF12.716763005780345
aF11.494252873563218
aF9.826589595375722
aF15.476190476190476
aF9.941520467836257
aF13.142857142857142
aF12.994350282485875
aF11.39240506329114
aF17.177914110429448
aF17.73049645390071
aF12.587412587412588
aF10.38961038961039
aF8.88888888888889
aF12.612612612612612
aF9.722222222222223
aF12.101910828025478
aF12.903225806451612
aF18.75
aF12.727272727272727
aF14.659685863874344
aF14.285714285714285
aF15.053763440860216
aF16.0427807486631
aF16.129032258064516
aF13.978494623655912
aF12.568306010928962
aF13.903743315508022
aF11.76470588235294
aF10.989010989010989
aF8.108108108108109
aF9.202453987730062
aF9.49367088607595
aF11.920529801324504
aF8.227848101265822
aF7.38255033557047
aF11.834319526627219
aF14.736842105263156
aF12.690355329949238
aF13.903743315508022
aF12.568306010928962
aF14.204545454545455
aF14.210526315789473
aF11.351351351351353
aF14.054054054054054
aF14.285714285714285
aF10.695187165775401
aF9.693877551020408
aF11.702127659574469
aF11.76470588235294
aF13.861386138613863
aF14.85148514851485
aF18.95734597156398
aF14.795918367346939
aF14.358974358974358
aF14.583333333333334
aF16.666666666666664
aF12.76595744680851
aF14.85148514851485
aF15.53398058252427
aF13.392857142857142
aF16.5
aF14.07035175879397
aF14.832535885167463
aF11.827956989247312
aF11.055276381909549
aF7.462686567164178
aF4.25531914893617
aF4.145077720207254
aF4.819277108433735
aF8.287292817679557
aF8.522727272727272
aF7.514450867052023
aF9.659090909090908
aF11.76470588235294
aF11.428571428571429
aF6.962025316455696
aF7.453416149068323
aF9.655172413793103
aF7.051282051282051
aF8.80503144654088
aF8.666666666666668
aF7.6923076923076925
aF6.211180124223603
aF8.609271523178808
aF7.2992700729927
aF12.080536912751679
aF13.20754716981132
aF11.042944785276074
aF12.154696132596685
aF11.44578313253012
aF10.493827160493826
aF10.843373493975903
aF10.429447852760736
aF10.759493670886076
aF11.042944785276074
aF8.98876404494382
aF9.554140127388536
aF3.79746835443038
aF9.558823529411764
aF10.377358490566039
aF8.94308943089431
aF10.273972602739725
aF8.904109589041095
aF11.678832116788321
aF13.492063492063492
aF12.5
aF11.11111111111111
aF10.0
aF10.714285714285714
aF8.333333333333332
aF7.741935483870968
aF6.338028169014084
aF7.38255033557047
aF7.228915662650602
aF8.333333333333332
aF9.146341463414634
aF2.1505376344086025
aF8.333333333333332
aF10.204081632653061
aF13.333333333333334
aF14.457831325301203
aF9.63855421686747
aF8.73015873015873
aF9.322033898305085
aF5.223880597014925
aF8.396946564885496
aF3.816793893129771
aF8.275862068965518
aF6.802721088435375
aF8.522727272727272
aF6.0606060606060606
aF7.602339181286549
aF5.9880239520958085
aF8.670520231213873
aF10.112359550561797
aF7.936507936507936
aF12.5
aF12.865497076023392
aF10.919540229885058
aF7.647058823529412
aF12.121212121212121
aF13.043478260869565
aF14.184397163120568
aF11.688311688311687
aF8.49673202614379
aF9.395973154362416
aF10.294117647058822
aF11.11111111111111
aF9.937888198757763
aF9.467455621301776
aF10.843373493975903
aF8.974358974358974
aF7.547169811320755
aF6.962025316455696
aF6.369426751592357
aF8.928571428571429
aF6.593406593406594
aF6.626506024096386
aF4.069767441860465
aF3.7735849056603774
aF6.289308176100629
aF5.813953488372093
aF8.284023668639055
aF7.317073170731707
aF9.036144578313253
aF8.125
aF7.784431137724551
aF6.547619047619048
aF4.3478260869565215
aF5.747126436781609
aF8.47457627118644
aF7.894736842105263
aF8.571428571428571
aasS'ORB'
p10
(lp11
I446
aI13666
aF3.263573832869896
aF17.41825795173645
a(dp12
g4
F0.035039904611691146
sg5
F0.029219000392276755
sg6
F0.00035786196979238714
sg7
F0.005353352433479048
sg8
F0.0
sa(lp13
F5.714285714285714
aF0.0
aF0.0
aF0.0
aF0.0
aF0.0
aF0.0
aF0.0
aF0.0
aF0.0
aF0.0
aF0.0
aF0.0
aF0.0
aF0.0
aF0.0
aF0.0
aF0.0
aF0.0
aF0.0
aF0.0
aF0.0
aF0.0
aF0.0
aF0.0
aF0.0
aF0.0
aF0.0
aF0.0
aF0.0
aF0.0
aF0.0
aF0.0
aF0.0
aF0.0
aF0.0
aF0.0
aF0.0
aF0.0
aF0.0
aF0.0
aF0.0
aF0.0
aF0.0
aF0.0
aF0.0
aF0.0
aF0.0
aF3.125
aF3.3333333333333335
aF0.0
aF4.761904761904762
aF0.0
aF4.166666666666666
aF6.666666666666667
aF4.166666666666666
aF4.3478260869565215
aF3.7037037037037033
aF3.4482758620689653
aF3.7037037037037033
aF6.666666666666667
aF6.666666666666667
aF4.761904761904762
aF0.0
aF0.0
aF0.0
aF0.0
aF0.0
aF0.0
aF0.0
aF0.0
aF0.0
aF0.0
aF0.0
aF0.0
aF0.0
aF0.0
aF0.0
aF0.0
aF0.0
aF0.0
aF0.0
aF0.0
aF0.0
aF0.0
aF0.0
aF0.0
aF0.0
aF0.0
aF0.0
aF0.0
aF0.0
aF0.0
aF0.0
aF0.0
aF0.0
aF0.0
aF0.0
aF0.0
aF0.0
aF0.0
aF0.0
aF0.0
aF0.0
aF0.0
aF0.0
aF0.0
aF0.0
aF0.0
aF0.0
aF0.0
aF0.0
aF0.0
aF0.0
aF0.0
aF0.0
aF0.0
aF0.0
aF0.0
aF0.0
aF0.0
aF0.0
aF0.0
aF0.0
aF0.0
aF0.0
aF0.0
aF0.0
aF0.0
aF0.0
aF0.0
aF0.0
aF0.0
aF0.0
aF0.0
aF0.0
aF0.0
aF0.0
aF0.0
aF0.0
aF0.0
aF0.0
aF0.0
aF0.0
aF0.0
aF0.0
aF0.0
aF0.0
aF0.0
aF0.0
aF0.0
aF0.0
aF0.0
aF0.0
aF0.0
aF0.0
aF0.0
aF0.0
aF0.0
aF0.0
aF0.0
aF0.0
aF0.0
aF0.0
aF0.0
aF0.0
aF0.0
aF0.0
aF0.0
aF0.0
aF0.0
aF0.0
aF0.0
aF0.0
aF0.0
aF0.0
aF0.0
aF0.0
aF0.0
aF0.0
aF0.0
aF4.166666666666666
aF5.263157894736842
aF0.0
aF0.0
aF0.0
aF0.0
aF0.0
aF0.0
aF0.0
aF0.0
aF0.0
aF0.0
aF0.0
aF0.0
aF0.0
aF0.0
aF0.0
aF9.090909090909092
aF0.0
aF0.0
aF3.4482758620689653
aF0.0
aF0.0
aF0.0
aF0.0
aF0.0
aF0.0
aF0.0
aF0.0
aF0.0
aF0.0
aF10.0
aF0.0
aF3.125
aF8.333333333333332
aF4.166666666666666
aF0.0
aF3.4482758620689653
aF7.4074074074074066
aF4.0
aF4.3478260869565215
aF0.0
aF4.0
aF12.121212121212121
aF6.896551724137931
aF11.428571428571429
aF4.761904761904762
aF8.0
aF6.666666666666667
aF3.571428571428571
aF7.142857142857142
aF8.333333333333332
aF10.344827586206897
aF8.0
aF21.428571428571427
aF25.0
aF13.636363636363635
aF13.043478260869565
aF12.0
aF10.526315789473683
aF15.151515151515152
aF15.625
aF11.11111111111111
aF12.5
aF10.344827586206897
aF11.76470588235294
aF10.714285714285714
aF11.11111111111111
aF5.714285714285714
aF7.142857142857142
aF10.344827586206897
aF19.230769230769234
aF17.857142857142858
aF8.0
aF12.0
aF11.538461538461538
aF8.0
aF0.0
aF0.0
aF0.0
aF0.0
aF0.0
aF0.0
aF0.0
aF6.25
aF0.0
aF0.0
aF0.0
aF0.0
aF0.0
aF0.0
aF0.0
aF0.0
aF0.0
aF3.7037037037037033
aF0.0
aF0.0
aF4.166666666666666
aF0.0
aF0.0
aF0.0
aF0.0
aF7.142857142857142
aF0.0
aF3.8461538461538463
aF3.571428571428571
aF0.0
aF7.6923076923076925
aF0.0
aF0.0
aF0.0
aF0.0
aF0.0
aF4.166666666666666
aF0.0
aF0.0
aF0.0
aF0.0
aF0.0
aF0.0
aF0.0
aF0.0
aF0.0
aF0.0
aF0.0
aF0.0
aF3.7037037037037033
aF0.0
aF0.0
aF6.896551724137931
aF8.333333333333332
aF10.344827586206897
aF8.333333333333332
aF10.0
aF9.67741935483871
aF16.0
aF4.761904761904762
aF3.3333333333333335
aF0.0
aF3.571428571428571
aF6.25
aF7.4074074074074066
aF3.8461538461538463
aF6.666666666666667
aF10.0
aF12.5
aF13.043478260869565
aF0.0
aF6.451612903225806
aF7.142857142857142
aF0.0
aF0.0
aF0.0
aF2.857142857142857
aF0.0
aF0.0
aF0.0
aF3.0303030303030303
aF0.0
aF0.0
aF0.0
aF2.7777777777777777
aF3.4482758620689653
aF2.941176470588235
aF0.0
aF0.0
aF7.4074074074074066
aF3.4482758620689653
aF0.0
aF0.0
aF0.0
aF0.0
aF5.88235294117647
aF0.0
aF16.666666666666664
aF13.88888888888889
aF3.571428571428571
aF6.666666666666667
aF5.405405405405405
aF6.451612903225806
aF8.333333333333332
aF12.903225806451612
aF20.0
aF12.903225806451612
aF16.129032258064516
aF8.823529411764707
aF11.11111111111111
aF9.67741935483871
aF13.88888888888889
aF5.714285714285714
aF0.0
aF0.0
aF3.225806451612903
aF15.625
aF13.333333333333334
aF11.428571428571429
aF6.666666666666667
aF0.0
aF2.941176470588235
aF6.25
aF3.125
aF5.714285714285714
aF14.285714285714285
aF3.0303030303030303
aF0.0
aF3.225806451612903
aF0.0
aF0.0
aF4.545454545454546
aF4.0
aF6.666666666666667
aF13.793103448275861
aF23.333333333333332
aF15.151515151515152
aF10.0
aF10.714285714285714
aF11.538461538461538
aF7.142857142857142
aF6.451612903225806
aF3.3333333333333335
aF9.67741935483871
aF8.571428571428571
aF12.903225806451612
aF7.142857142857142
aF12.121212121212121
aF4.545454545454546
aF4.166666666666666
aF9.375
aF6.451612903225806
aF3.8461538461538463
aF0.0
aF3.8461538461538463
aF0.0
aF7.4074074074074066
aF0.0
aF3.225806451612903
aF3.4482758620689653
aF6.451612903225806
aF6.451612903225806
aF2.941176470588235
aF6.451612903225806
aF5.0
aF13.793103448275861
aF3.7037037037037033
aF0.0
aF0.0
aF0.0
aF0.0
aF0.0
aF0.0
aF0.0
aF5.0
aF0.0
aF0.0
aF0.0
aF3.7037037037037033
aF0.0
aF4.545454545454546
aF4.761904761904762
aF0.0
aF3.7037037037037033
aF17.391304347826086
aF6.0606060606060606
aF7.142857142857142
aF8.0
aF18.181818181818183
aF6.0606060606060606
aF3.0303030303030303
aF8.333333333333332
aF3.4482758620689653
aF9.090909090909092
aF10.344827586206897
aF3.4482758620689653
aF6.25
aF8.0
aF5.0
aF0.0
aF3.7037037037037033
aF8.0
aF11.538461538461538
aF7.142857142857142
aF8.0
aF0.0
aF10.714285714285714
aF3.7037037037037033
aF10.0
aF0.0
aF6.25
aF14.705882352941178
aF3.3333333333333335
aF3.4482758620689653
aF4.166666666666666
aF6.666666666666667
aF0.0
aF4.3478260869565215
aF3.571428571428571
aF5.0
aF3.571428571428571
aF0.0
aF0.0
aF3.125
aF2.941176470588235
aF3.7037037037037033
aF3.7037037037037033
aF3.8461538461538463
aF0.0
aF0.0
aF0.0
aF3.3333333333333335
aF0.0
aF4.761904761904762
aF2.857142857142857
aF0.0
aF0.0
aF3.4482758620689653
aF4.0
aasS'BRISK'
p14
(lp15
I11473
aI109692
aF10.459286000802246
aF21.69382119178772
a(dp16
g4
F0.04127563749040876
sg5
F0.03459465431735309
sg6
F0.0007380758013044085
sg7
F0.005530239350838921
sg8
F0.0
sa(lp17
F1.4018691588785046
aF0.5235602094240838
aF2.083333333333333
aF0.4878048780487805
aF0.5102040816326531
aF1.0204081632653061
aF1.3888888888888888
aF0.0
aF0.4878048780487805
aF0.847457627118644
aF1.3824884792626728
aF1.0416666666666665
aF0.0
aF1.2903225806451613
aF0.6134969325153374
aF0.0
aF0.8849557522123894
aF0.5617977528089888
aF1.5037593984962405
aF1.1111111111111112
aF0.0
aF1.4925373134328357
aF0.0
aF2.2900763358778624
aF2.197802197802198
aF0.6666666666666667
aF1.4598540145985401
aF3.361344537815126
aF2.7586206896551726
aF0.7352941176470588
aF2.666666666666667
aF0.0
aF4.23728813559322
aF2.6785714285714284
aF0.8771929824561403
aF1.4285714285714286
aF1.36986301369863
aF0.0
aF1.4705882352941175
aF0.0
aF1.0526315789473684
aF0.0
aF0.0
aF1.2903225806451613
aF0.5263157894736842
aF1.507537688442211
aF2.6455026455026456
aF2.5
aF0.9302325581395349
aF1.7543859649122806
aF1.293103448275862
aF3.765690376569038
aF4.4534412955465585
aF4.280155642023346
aF4.621848739495799
aF2.4193548387096775
aF2.766798418972332
aF2.459016393442623
aF2.2556390977443606
aF1.550387596899225
aF1.8433179723502304
aF2.7027027027027026
aF2.6143790849673203
aF1.1976047904191618
aF1.3071895424836601
aF2.6595744680851063
aF1.0204081632653061
aF0.0
aF0.0
aF0.5319148936170213
aF1.092896174863388
aF0.0
aF0.0
aF0.5847953216374269
aF0.0
aF0.0
aF1.0
aF0.0
aF0.6369426751592357
aF1.0810810810810811
aF1.1627906976744187
aF1.1235955056179776
aF0.0
aF0.0
aF0.628930817610063
aF0.0
aF0.0
aF0.0
aF0.0
aF0.0
aF0.0
aF0.0
aF0.0
aF0.0
aF0.0
aF0.0
aF0.0
aF0.0
aF0.6451612903225806
aF0.0
aF0.628930817610063
aF1.0471204188481675
aF2.030456852791878
aF3.4653465346534658
aF1.015228426395939
aF1.4354066985645932
aF0.9950248756218906
aF0.5050505050505051
aF0.7042253521126761
aF0.0
aF0.5780346820809248
aF0.5102040816326531
aF0.0
aF0.9803921568627451
aF1.8867924528301887
aF0.0
aF0.9523809523809524
aF0.9433962264150944
aF0.4608294930875576
aF0.5780346820809248
aF2.484472049689441
aF0.628930817610063
aF0.7407407407407408
aF0.8264462809917356
aF0.6211180124223602
aF0.5988023952095809
aF0.5813953488372093
aF0.628930817610063
aF0.0
aF0.0
aF0.0
aF0.0
aF0.4716981132075472
aF0.0
aF0.0
aF0.0
aF0.0
aF0.0
aF0.0
aF0.0
aF0.0
aF0.0
aF0.0
aF0.0
aF0.0
aF0.0
aF0.0
aF0.0
aF0.0
aF0.0
aF0.0
aF0.5076142131979695
aF0.5154639175257731
aF0.0
aF0.5319148936170213
aF2.4390243902439024
aF0.8771929824561403
aF0.847457627118644
aF0.35842293906810035
aF0.0
aF0.0
aF0.0
aF0.0
aF0.7547169811320755
aF0.34965034965034963
aF0.0
aF0.7575757575757576
aF0.0
aF1.5037593984962405
aF1.098901098901099
aF0.6578947368421052
aF0.78125
aF0.37735849056603776
aF0.6688963210702341
aF0.3597122302158274
aF1.0344827586206897
aF1.824817518248175
aF0.6756756756756757
aF2.1739130434782608
aF0.7246376811594203
aF2.575107296137339
aF5.405405405405405
aF3.1963470319634704
aF2.4896265560165975
aF1.2
aF2.7237354085603114
aF3.041825095057034
aF1.185770750988142
aF1.4814814814814816
aF1.937984496124031
aF1.718213058419244
aF3.937007874015748
aF4.743083003952568
aF9.090909090909092
aF7.883817427385892
aF7.755102040816326
aF16.097560975609756
aF11.560693641618498
aF12.213740458015266
aF14.074074074074074
aF10.588235294117647
aF10.83743842364532
aF10.869565217391305
aF15.07537688442211
aF15.609756097560975
aF10.638297872340425
aF11.03896103896104
aF16.355140186915886
aF12.903225806451612
aF10.245901639344263
aF11.386138613861387
aF5.47945205479452
aF6.842105263157896
aF10.87866108786611
aF9.649122807017543
aF13.461538461538462
aF10.42654028436019
aF10.483870967741936
aF8.292682926829269
aF9.130434782608695
aF12.97071129707113
aF13.414634146341465
aF15.272727272727273
aF19.08713692946058
aF18.620689655172416
aF16.363636363636363
aF17.421602787456447
aF16.27906976744186
aF17.77777777777778
aF12.4031007751938
aF11.372549019607844
aF16.85823754789272
aF21.810699588477366
aF14.50980392156863
aF20.080321285140563
aF24.90566037735849
aF19.72318339100346
aF22.463768115942027
aF18.367346938775512
aF18.181818181818183
aF22.17898832684825
aF20.54263565891473
aF20.229007633587788
aF15.32567049808429
aF22.264150943396228
aF26.190476190476193
aF19.753086419753085
aF23.015873015873016
aF17.120622568093385
aF21.73913043478261
aF21.14695340501792
aF23.655913978494624
aF24.90118577075099
aF25.93984962406015
aF15.909090909090908
aF18.97810218978102
aF16.894977168949772
aF16.666666666666664
aF17.46724890829694
aF17.372881355932204
aF16.289592760180994
aF17.96116504854369
aF18.0
aF20.603015075376884
aF22.905027932960895
aF15.897435897435896
aF20.634920634920633
aF22.325581395348838
aF18.807339449541285
aF23.376623376623375
aF24.782608695652176
aF26.87224669603524
aF25.106382978723403
aF25.1937984496124
aF20.318725099601593
aF21.53846153846154
aF15.476190476190476
aF16.7420814479638
aF22.509225092250922
aF16.532258064516128
aF21.030042918454935
aF16.386554621848738
aF15.384615384615385
aF22.268907563025213
aF20.37735849056604
aF18.478260869565215
aF20.233463035019454
aF20.640569395017792
aF20.8955223880597
aF20.070422535211268
aF15.985130111524162
aF15.319148936170212
aF13.580246913580247
aF13.877551020408163
aF14.035087719298245
aF15.062761506276152
aF17.061611374407583
aF17.408906882591094
aF18.072289156626507
aF16.666666666666664
aF19.63470319634703
aF18.58407079646018
aF17.94871794871795
aF20.179372197309416
aF22.22222222222222
aF14.042553191489363
aF21.1864406779661
aF16.517857142857142
aF18.25726141078838
aF16.157205240174672
aF18.6046511627907
aF14.814814814814813
aF19.305019305019304
aF20.883534136546185
aF16.47509578544061
aF17.670682730923694
aF18.11320754716981
aF20.318725099601593
aF22.22222222222222
aF24.6031746031746
aF23.46153846153846
aF22.22222222222222
aF23.076923076923077
aF17.322834645669293
aF19.230769230769234
aF20.833333333333336
aF14.957264957264957
aF17.647058823529413
aF17.857142857142858
aF16.014234875444842
aF14.553990610328638
aF13.852813852813853
aF14.285714285714285
aF15.74468085106383
aF14.754098360655737
aF13.452914798206278
aF11.961722488038278
aF13.77551020408163
aF15.121951219512194
aF11.353711790393014
aF17.509727626459142
aF16.93548387096774
aF18.14516129032258
aF16.988416988416986
aF17.985611510791365
aF12.878787878787879
aF22.745098039215687
aF23.107569721115535
aF15.873015873015872
aF18.01801801801802
aF15.11627906976744
aF13.924050632911392
aF13.675213675213676
aF10.931174089068826
aF16.666666666666664
aF18.143459915611814
aF15.810276679841898
aF18.75
aF14.814814814814813
aF16.363636363636363
aF12.449799196787147
aF20.238095238095237
aF15.062761506276152
aF18.75
aF17.959183673469386
aF14.468085106382977
aF15.725806451612904
aF17.307692307692307
aF15.899581589958158
aF14.705882352941178
aF15.352697095435685
aF12.236286919831224
aF14.173228346456693
aF17.509727626459142
aF14.590747330960854
aF16.379310344827587
aF15.6
aF12.313432835820896
aF11.923076923076923
aF11.636363636363637
aF12.681159420289855
aF13.765182186234817
aF15.546218487394958
aF14.963503649635038
aF17.293233082706767
aF8.641975308641975
aF9.401709401709402
aF7.468879668049793
aF6.870229007633588
aF8.366533864541832
aF8.661417322834646
aF12.455516014234876
aF12.552301255230125
aF14.285714285714285
aF13.043478260869565
aF12.890625
aF10.909090909090908
aF12.264150943396226
aF13.168724279835391
aF14.566929133858267
aF12.350597609561753
aF14.393939393939394
aF15.17509727626459
aF12.552301255230125
aF13.114754098360656
aF10.980392156862745
aF14.671814671814673
aF12.345679012345679
aF11.344537815126051
aF13.492063492063492
aF11.96911196911197
aF10.212765957446807
aF8.695652173913043
aF10.486891385767791
aF11.72161172161172
aF12.550607287449392
aF8.627450980392156
aF10.300429184549357
aF9.58904109589041
aF3.91304347826087
aF4.368932038834951
aF6.787330316742081
aF4.205607476635514
aF9.417040358744394
aF11.618257261410788
aF10.909090909090908
aF8.558558558558559
aF12.76595744680851
aF15.492957746478872
aF14.52513966480447
aF16.546762589928058
aF17.77777777777778
aF12.422360248447205
aF12.698412698412698
aF11.940298507462686
aF15.384615384615385
aF21.100917431192663
aF16.88888888888889
aF11.83673469387755
aF12.977099236641221
aF14.193548387096774
aF14.529914529914532
aF15.083798882681565
aF15.135135135135137
aF17.010309278350515
aF12.735849056603774
aF13.084112149532709
aF12.389380530973451
aF15.254237288135593
aF11.76470588235294
aF13.83399209486166
aF8.860759493670885
aF10.62992125984252
aF13.671875
aF13.114754098360656
aF13.223140495867769
aF15.83011583011583
aF10.483870967741936
aF12.446351931330472
aF15.267175572519085
aF12.727272727272727
aF13.253012048192772
aF15.18987341772152
aF10.236220472440944
aF9.375
aF13.23529411764706
aF13.145539906103288
aF17.479674796747968
aF16.39344262295082
aF12.857142857142856
aF13.191489361702127
aF12.552301255230125
aF15.319148936170212
aF8.46774193548387
aF12.5
aF14.814814814814813
aF11.067193675889328
aF16.30901287553648
aF16.731517509727624
aF8.130081300813007
aF9.578544061302683
aF11.363636363636363
aF11.194029850746269
aF11.235955056179774
aF13.223140495867769
aF16.371681415929203
aF14.000000000000002
aF12.692307692307692
aF14.074074074074074
aF11.636363636363637
aF11.068702290076336
aF9.803921568627452
aF9.486166007905137
aF10.080645161290322
aF11.553784860557768
aF11.894273127753303
aF9.876543209876543
aas.