(dp0
S'SIFT'
p1
(lp2
I2248
aI4804
aF46.79433805162365
aF27.097657918930054
a(dp3
S'start_to_end_time'
p4
F0.8731719216992778
sS'kp_detect_time'
p5
F0.8100373591146162
sS'match_time'
p6
F0.056386409267302484
sS'open_time'
p7
F0.005809060988887664
sS'vis_time'
p8
F0.0
sa(lp9
F75.77639751552795
aF68.75
aF71.64179104477611
aF69.79591836734694
aF65.12605042016807
aF56.32183908045977
aF45.27363184079602
aF45.05494505494506
aF41.30434782608695
aF37.89473684210527
aF32.18390804597701
aF34.24657534246575
aF32.02614379084967
aF27.710843373493976
aF26.923076923076923
aF28.846153846153843
aF35.714285714285715
aF35.51401869158878
aF39.682539682539684
aF34.55882352941176
aF29.069767441860467
aF27.7027027027027
aF35.374149659863946
aF28.767123287671232
aF41.7910447761194
aF43.80165289256198
aF45.1219512195122
aF43.529411764705884
aF40.229885057471265
aF39.81481481481482
aF37.38317757009346
aasS'ORB'
p10
(lp11
I271
aI430
aF63.0232558139535
aF1.201573133468628
a(dp12
g4
F0.0386443599577873
sg5
F0.02986505723768665
sg6
F0.002967188435216104
sg7
F0.00570850218496015
sg8
F0.0
sa(lp13
F33.33333333333333
aF0.0
aF50.0
aF0.0
aF57.14285714285714
aF73.68421052631578
aF77.77777777777779
aF88.0
aF46.15384615384615
aF40.0
aF25.0
aF0.0
aF0.0
aF20.0
aF16.666666666666664
aF42.857142857142854
aF36.36363636363637
aF71.42857142857143
aF69.23076923076923
aF70.0
aF66.66666666666666
aF81.81818181818183
aF83.33333333333334
aF68.18181818181817
aF72.22222222222221
aF47.05882352941176
aF48.0
aF62.5
aF68.18181818181817
aF90.0
aF88.0
aasS'BRISK'
p14
(lp15
I192
aI905
aF21.215469613259668
aF2.2070748805999756
a(dp16
g4
F0.04027775026136829
sg5
F0.03133095464398784
sg6
F0.002990291964623236
sg7
F0.005736835541263703
sg8
F0.0
sa(lp17
F37.735849056603776
aF22.5
aF37.142857142857146
aF17.073170731707318
aF20.0
aF27.27272727272727
aF21.875
aF12.82051282051282
aF20.588235294117645
aF21.428571428571427
aF15.151515151515152
aF10.344827586206897
aF18.181818181818183
aF19.047619047619047
aF21.73913043478261
aF23.809523809523807
aF21.73913043478261
aF21.428571428571427
aF10.0
aF6.25
aF16.0
aF18.181818181818183
aF33.33333333333333
aF21.73913043478261
aF12.5
aF38.46153846153847
aF21.73913043478261
aF21.052631578947366
aF10.344827586206897
aF19.047619047619047
aF29.166666666666668
aas.