(dp0
S'ORB'
p1
(lp2
I76
aI874
aF8.695652173913043
aF1.790834903717041
a(dp3
S'start_to_end_time'
p4
F0.035736799240112305
sS'kp_detect_time'
p5
F0.029573969841003418
sS'match_time'
p6
F0.0002990293502807617
sS'open_time'
p7
F0.00576444149017334
sS'vis_time'
p8
F0.0
sa(lp9
F0.0
aF8.333333333333332
aF0.0
aF0.0
aF0.0
aF0.0
aF0.0
aF0.0
aF0.0
aF0.0
aF0.0
aF0.0
aF0.0
aF0.0
aF0.0
aF0.0
aF0.0
aF7.142857142857142
aF0.0
aF0.0
aF0.0
aF0.0
aF0.0
aF5.88235294117647
aF0.0
aF11.11111111111111
aF20.833333333333336
aF5.714285714285714
aF6.0606060606060606
aF3.125
aF0.0
aF0.0
aF0.0
aF0.0
aF4.166666666666666
aF0.0
aF0.0
aF4.545454545454546
aF14.285714285714285
aF23.076923076923077
aF18.75
aF30.76923076923077
aF47.05882352941176
aF12.5
aF20.0
aF15.0
aF26.31578947368421
aF47.05882352941176
aF78.57142857142857
aF83.33333333333334
aas.