(dp0
S'SIFT'
p1
(lp2
F37.83249304589708
a(lp3
F1.642806053161621
aF1.4975409507751465
aF1.377082109451294
aF1.484740972518921
aF1.530397891998291
aF1.420983076095581
aF1.3854920864105225
aF1.5185930728912354
aF1.5495479106903076
aF1.3539738655090332
aF1.39821195602417
aF1.525359869003296
aF1.5308029651641846
aF1.4117240905761719
aF1.4734251499176025
aF1.5739269256591797
aF1.570457935333252
aF1.4095978736877441
aF1.4789199829101562
aF1.586656093597412
aF1.593513011932373
aF1.4127888679504395
aF1.432631015777588
aF1.5492479801177979
aF1.586733102798462
aF1.3996429443359375
aF1.4214599132537842
aF1.5726501941680908
aF1.6221940517425537
aF1.5171458721160889
aF1.4460258483886719
aF1.5780749320983887
aF1.6017000675201416
aF1.2760519981384277
aF1.6198079586029053
aF1.3174779415130615
aF1.6169228553771973
aF1.2969939708709717
aF1.6203320026397705
aF1.2957370281219482
aF1.5834438800811768
aF1.2471449375152588
aF1.5092041492462158
aF1.3395180702209473
aF1.431502103805542
aF1.397672176361084
aF1.380506992340088
aF1.5130131244659424
aF1.3626739978790283
aF1.5247080326080322
aF1.356597900390625
aF1.5703730583190918
aF1.331737995147705
aF1.563910961151123
aF1.320214033126831
aF1.5632238388061523
aF1.240661859512329
aF1.5444400310516357
aF1.2461159229278564
aF1.5635099411010742
aF1.2667710781097412
aF1.5732920169830322
aF1.26422119140625
aF1.5271599292755127
aF1.32955002784729
aF1.4766860008239746
aF1.3832931518554688
aF1.449254035949707
aF1.4301400184631348
aF1.3471941947937012
aF1.4382719993591309
aF1.2326300144195557
aF1.4918549060821533
aF1.20222806930542
aF1.4478991031646729
aF1.121293067932129
aF1.3609321117401123
aF1.3022809028625488
aF1.2752690315246582
aF1.4422340393066406
aF1.251796007156372
aF1.5117518901824951
aF1.252121925354004
aF1.5987029075622559
aF1.2956879138946533
aF1.58866286277771
aF1.2911701202392578
aF1.6007869243621826
aF1.2753899097442627
aF1.613368034362793
aF1.2869579792022705
aF1.5895209312438965
aF1.3226511478424072
aF1.5228362083435059
aF1.3549859523773193
aF1.4630680084228516
aF1.3762938976287842
aF1.4125750064849854
aF1.428861141204834
aF1.326080083847046
aF1.4927458763122559
aF1.2324399948120117
aF1.5082380771636963
aF1.2285618782043457
aF1.5472941398620605
aF1.244960069656372
aF1.5629889965057373
aF1.2477538585662842
aF1.5117268562316895
aF1.3205640316009521
aF1.267336130142212
aF1.5695011615753174
aF1.2688591480255127
aF1.5151751041412354
aF1.2861120700836182
aF1.2237119674682617
aF1.4959099292755127
aF1.3087890148162842
aF1.2506730556488037
aF1.5683209896087646
aF1.251744031906128
aF1.4940998554229736
aF1.400057077407837
aF1.5528738498687744
aF1.4151010513305664
aF1.3335020542144775
aF1.6612298488616943
aF1.3329830169677734
aF1.5464508533477783
aF1.1667768955230713
aF1.321518898010254
aF1.261164903640747
aF1.2071268558502197
aF1.5042331218719482
aF1.2357289791107178
aF1.5432748794555664
aF1.2384881973266602
aF1.229551076889038
aF1.497926950454712
aF1.206037998199463
aF1.5100970268249512
aF1.1539161205291748
aF1.2147529125213623
aF1.1576402187347412
aF0.9944319725036621
aF1.2235980033874512
aF1.0198559761047363
aF0.9827899932861328
aF1.2535161972045898
aF0.915057897567749
aF0.9143209457397461
aF1.211101770401001
aF1.0844910144805908
aF1.4618499279022217
aF1.3315699100494385
aF1.3861708641052246
aF1.4200639724731445
aF1.3832550048828125
aF1.5420811176300049
aF1.3385000228881836
aF1.5899200439453125
aF1.4123289585113525
aF1.6242799758911133
aF1.3984379768371582
aasS'ORB'
p4
(lp5
F29.61832061068702
a(lp6
F0.05536198616027832
aF0.04171395301818848
aF0.0412290096282959
aF0.04069995880126953
aF0.040914058685302734
aF0.0410308837890625
aF0.04126405715942383
aF0.04099106788635254
aF0.04082798957824707
aF0.04117989540100098
aF0.041285037994384766
aF0.04164695739746094
aF0.04107213020324707
aF0.041265010833740234
aF0.046957969665527344
aF0.04155111312866211
aF0.04129290580749512
aF0.04352307319641113
aF0.05893993377685547
aF0.05952095985412598
aF0.058804988861083984
aF0.05869007110595703
aF0.05829906463623047
aF0.05848193168640137
aF0.05831098556518555
aF0.05875396728515625
aF0.05853915214538574
aF0.059031009674072266
aF0.05930495262145996
aF0.05967903137207031
aF0.059358835220336914
aF0.059522151947021484
aF0.06337594985961914
aF0.0591888427734375
aF0.051095008850097656
aF0.04151010513305664
aF0.042257070541381836
aF0.04142904281616211
aF0.04139089584350586
aF0.04201817512512207
aF0.04170083999633789
aF0.0412750244140625
aF0.04095816612243652
aF0.04138803482055664
aF0.04114890098571777
aF0.040873050689697266
aF0.04125809669494629
aF0.04132390022277832
aF0.04106497764587402
aF0.041680097579956055
aF0.041986942291259766
aF0.0416409969329834
aF0.041544198989868164
aF0.04132795333862305
aF0.040947914123535156
aF0.04101109504699707
aF0.040756940841674805
aF0.0408930778503418
aF0.041094064712524414
aF0.04082798957824707
aF0.04099106788635254
aF0.040862083435058594
aF0.04072093963623047
aF0.04115796089172363
aF0.04138016700744629
aF0.04146218299865723
aF0.04116082191467285
aF0.04130816459655762
aF0.041526079177856445
aF0.04120683670043945
aF0.04092717170715332
aF0.04098987579345703
aF0.04072904586791992
aF0.040834903717041016
aF0.03983712196350098
aF0.03979897499084473
aF0.04041314125061035
aF0.04053187370300293
aF0.040910959243774414
aF0.04575514793395996
aF0.041815996170043945
aF0.04056096076965332
aF0.0419621467590332
aF0.05922508239746094
aF0.062406063079833984
aF0.05983591079711914
aF0.06256818771362305
aF0.0592961311340332
aF0.05914187431335449
aF0.05928993225097656
aF0.059294939041137695
aF0.059385061264038086
aF0.05922198295593262
aF0.05935502052307129
aF0.05924201011657715
aF0.05926704406738281
aF0.059162139892578125
aF0.06512808799743652
aF0.058840036392211914
aF0.0487370491027832
aF0.040693044662475586
aF0.0416722297668457
aF0.04030585289001465
aF0.0403439998626709
aF0.0409390926361084
aF0.04111003875732422
aF0.043174028396606445
aF0.04066610336303711
aF0.040901899337768555
aF0.04118490219116211
aF0.041046142578125
aF0.04145002365112305
aF0.040997982025146484
aF0.04101109504699707
aF0.04081296920776367
aF0.04099702835083008
aF0.04094886779785156
aF0.04180192947387695
aF0.040862083435058594
aF0.040509939193725586
aF0.04044604301452637
aF0.040471792221069336
aF0.04116010665893555
aF0.04180502891540527
aF0.04160189628601074
aF0.04169297218322754
aF0.04214882850646973
aF0.04189801216125488
aF0.04132795333862305
aF0.04133486747741699
aF0.0407261848449707
aF0.04046797752380371
aF0.0406489372253418
aF0.04102301597595215
aF0.0408930778503418
aF0.04108691215515137
aF0.04070019721984863
aF0.04082798957824707
aF0.04225897789001465
aF0.04123497009277344
aF0.04105401039123535
aF0.04062700271606445
aF0.04022979736328125
aF0.03968000411987305
aF0.044439077377319336
aF0.04055213928222656
aF0.03917288780212402
aF0.03959512710571289
aF0.056839942932128906
aF0.05599212646484375
aF0.05571103096008301
aF0.05621194839477539
aF0.05786013603210449
aF0.05936098098754883
aF0.05936598777770996
aF0.059584856033325195
aF0.059600830078125
aF0.060524940490722656
aF0.060111045837402344
aF0.060350894927978516
aF0.06032514572143555
aF0.06052112579345703
aF0.06469202041625977
aF0.06055402755737305
aasS'BRISK'
p7
(lp8
F40.03142458100559
a(lp9
F0.058259010314941406
aF0.0575408935546875
aF0.05681490898132324
aF0.05474400520324707
aF0.0546720027923584
aF0.05597496032714844
aF0.05586504936218262
aF0.05662894248962402
aF0.05446505546569824
aF0.05681109428405762
aF0.054646968841552734
aF0.056307077407836914
aF0.05498194694519043
aF0.05694913864135742
aF0.05700993537902832
aF0.05652308464050293
aF0.05639195442199707
aF0.05765700340270996
aF0.0559689998626709
aF0.05670309066772461
aF0.05730891227722168
aF0.05772089958190918
aF0.056181907653808594
aF0.0578761100769043
aF0.05707406997680664
aF0.05710792541503906
aF0.055761098861694336
aF0.05831503868103027
aF0.058331966400146484
aF0.05912494659423828
aF0.058489084243774414
aF0.059851884841918945
aF0.059050798416137695
aF0.06577682495117188
aF0.05715203285217285
aF0.058290958404541016
aF0.058825016021728516
aF0.05896711349487305
aF0.05941605567932129
aF0.059664011001586914
aF0.059777021408081055
aF0.057044029235839844
aF0.05717587471008301
aF0.05722689628601074
aF0.054737091064453125
aF0.05649399757385254
aF0.056342124938964844
aF0.05750083923339844
aF0.05785489082336426
aF0.0579380989074707
aF0.06285786628723145
aF0.05891299247741699
aF0.06348991394042969
aF0.08279109001159668
aF0.0823359489440918
aF0.08066701889038086
aF0.0801241397857666
aF0.07911896705627441
aF0.07932519912719727
aF0.08017611503601074
aF0.07958698272705078
aF0.07965803146362305
aF0.08039093017578125
aF0.08518695831298828
aF0.08139419555664062
aF0.05891013145446777
aF0.055999040603637695
aF0.05836296081542969
aF0.059214115142822266
aF0.05838298797607422
aF0.056501150131225586
aF0.0567021369934082
aF0.05560302734375
aF0.05513405799865723
aF0.05112099647521973
aF0.049453020095825195
aF0.05212211608886719
aF0.053811073303222656
aF0.05504202842712402
aF0.0562288761138916
aF0.057090044021606445
aF0.05618000030517578
aF0.05704498291015625
aF0.057868003845214844
aF0.05914115905761719
aF0.06121087074279785
aF0.057951927185058594
aF0.05687093734741211
aF0.058737993240356445
aF0.056801795959472656
aF0.058534860610961914
aF0.05833292007446289
aF0.05849599838256836
aF0.05743694305419922
aF0.057951927185058594
aF0.05786705017089844
aF0.05871081352233887
aF0.057965993881225586
aF0.059706926345825195
aF0.05679512023925781
aF0.056973934173583984
aF0.06439518928527832
aF0.05529904365539551
aF0.054724931716918945
aF0.05620718002319336
aF0.05666089057922363
aF0.05577898025512695
aF0.05567193031311035
aF0.0571591854095459
aF0.05712699890136719
aF0.05824995040893555
aF0.056324005126953125
aF0.05755209922790527
aF0.057276010513305664
aF0.05696511268615723
aF0.055574893951416016
aF0.05588197708129883
aF0.056257009506225586
aF0.05619096755981445
aF0.05521512031555176
aF0.05794095993041992
aF0.054792165756225586
aF0.05886387825012207
aF0.0585019588470459
aF0.060812950134277344
aF0.05858898162841797
aF0.06074213981628418
aF0.061354875564575195
aF0.058992862701416016
aF0.055505990982055664
aF0.054184913635253906
aF0.05415201187133789
aF0.05425691604614258
aF0.056028127670288086
aF0.05798697471618652
aF0.05739307403564453
aF0.05760002136230469
aF0.055737972259521484
aF0.05622100830078125
aF0.05564999580383301
aF0.05646920204162598
aF0.052979230880737305
aF0.05011391639709473
aF0.04683494567871094
aF0.047708988189697266
aF0.04598402976989746
aF0.04675889015197754
aF0.04690217971801758
aF0.04647994041442871
aF0.04437112808227539
aF0.04433894157409668
aF0.04609513282775879
aF0.05212807655334473
aF0.05823206901550293
aF0.05626702308654785
aF0.05786705017089844
aF0.057253122329711914
aF0.05868697166442871
aF0.05963301658630371
aF0.05930614471435547
aF0.061354875564575195
aF0.060157060623168945
aF0.060621023178100586
aF0.06031990051269531
aas.