(dp0
S'SIFT'
p1
(lp2
F0.1819571865443425
aF0.178743961352657
aF0.19306930693069307
aF0.18451400329489293
aF0.15018315018315018
aF0.16387959866220736
aF0.13394495412844037
aF0.14972273567467653
aF0.13619402985074627
aF0.1264591439688716
aF0.15414258188824662
aF0.19246031746031747
aF0.16298811544991512
aF0.17098445595854922
aF0.1671875
aF0.176759410801964
aF0.1930116472545757
aF0.19747235387045814
aF0.24369747899159663
aF0.23042168674698796
aF0.21162444113263784
aF0.21712538226299694
aF0.16262482168330955
aF0.15680473372781065
aF0.17908309455587393
aF0.17117117117117117
aF0.1876750700280112
aF0.18915343915343916
aF0.2633495145631068
aF0.33101851851851855
aF0.3286219081272085
aF0.32046783625730996
aF0.2742155525238745
aF0.2384937238493724
aF0.27586206896551724
aF0.3613916947250281
aF0.36312217194570134
aF0.37631887456037516
aF0.3486997635933806
aF0.29571984435797666
aF0.3051948051948052
aF0.31484049930651875
aF0.4139387539598733
aF0.41914893617021276
aF0.4011049723756906
aF0.40594059405940597
aF0.4878048780487805
aF0.5385996409335727
aF0.5413669064748201
aF0.5650767987065481
aF0.6189839572192514
asS'ORB'
p3
(lp4
F0.0
aF0.2
aF0.0
aF0.0
aF0.0
aF0.0
aF0.0
aF0.5
aF0.0
aF0.0
aF0.0
aF0.0
aF0.0
aF0.0
aF0.0
aF0.0
aF0.0
aF0.0
aF0.3333333333333333
aF0.0
aF0.0
aF0.0
aF0.0
aF0.0
aF0.0
aF0.0
aF0.0
aF0.0
aF0.5
aF0.7619047619047619
aF0.85
aF0.8
aF0.5714285714285714
aF0.3333333333333333
aF0.2
aF0.96875
aF0.9285714285714286
aF0.9583333333333334
aF0.96875
aF0.3333333333333333
aF0.0
aF0.3333333333333333
aF0.9166666666666666
aF0.9166666666666666
aF0.9411764705882353
aF0.8636363636363636
aF0.8888888888888888
aF0.9466666666666667
aF0.9642857142857143
aF0.975
aF0.9615384615384616
asS'BRISK'
p5
(lp6
F0.20833333333333334
aF0.09090909090909091
aF0.09375
aF0.12
aF0.23809523809523808
aF0.08
aF0.11538461538461539
aF0.14814814814814814
aF0.20833333333333334
aF0.07692307692307693
aF0.08695652173913043
aF0.17857142857142858
aF0.14285714285714285
aF0.10526315789473684
aF0.10526315789473684
aF0.13636363636363635
aF0.15
aF0.25806451612903225
aF0.04
aF0.24
aF0.2413793103448276
aF0.12903225806451613
aF0.24
aF0.13636363636363635
aF0.03225806451612903
aF0.17647058823529413
aF0.1590909090909091
aF0.10714285714285714
aF0.22916666666666666
aF0.2916666666666667
aF0.34285714285714286
aF0.3333333333333333
aF0.3448275862068966
aF0.25925925925925924
aF0.2894736842105263
aF0.42857142857142855
aF0.3695652173913043
aF0.46153846153846156
aF0.34782608695652173
aF0.1111111111111111
aF0.1388888888888889
aF0.2926829268292683
aF0.4418604651162791
aF0.4418604651162791
aF0.5
aF0.4897959183673469
aF0.7368421052631579
aF0.6833333333333333
aF0.7407407407407407
aF0.7123287671232876
aF0.78125
as.