(dp0
S'SIFT'
p1
(lp2
F0.3898305084745763
aF0.42592592592592593
aF0.5116279069767442
aF0.5102040816326531
aF0.41304347826086957
aF0.40540540540540543
aF0.3409090909090909
aF0.41025641025641024
aF0.48
aF0.5
aF0.509090909090909
aF0.4489795918367347
aF0.44
aF0.5192307692307693
aF0.3333333333333333
aF0.41379310344827586
aF0.3614457831325301
aF0.27710843373493976
aF0.3181818181818182
aF0.3069306930693069
aF0.3838383838383838
aF0.22105263157894736
aF0.13414634146341464
aF0.22580645161290322
aF0.2916666666666667
aF0.2647058823529412
aF0.21052631578947367
aF0.12162162162162163
aF0.1686746987951807
aF0.2345679012345679
aF0.32941176470588235
aF0.3917525773195876
aF0.3625
aF0.32051282051282054
aF0.3118279569892473
aF0.3448275862068966
aF0.36904761904761907
aF0.29473684210526313
aF0.3488372093023256
aF0.25
aF0.2222222222222222
aF0.21875
aF0.5217391304347826
aF0.45
aF0.35
aF0.36363636363636365
aF0.31
aF0.3473684210526316
aF0.4424778761061947
aF0.4954128440366973
aF0.5901639344262295
asS'ORB'
p3
(lp4
F0.5
aF0.46153846153846156
aF0.3
aF0.46153846153846156
aF0.6363636363636364
aF0.5
aF0.5882352941176471
aF0.6875
aF0.8333333333333334
aF0.8333333333333334
aF0.8888888888888888
aF0.75
aF0.6875
aF0.7857142857142857
aF0.6923076923076923
aF0.45454545454545453
aF0.6666666666666666
aF0.5
aF0.6666666666666666
aF0.5
aF0.5
aF0.5
aF0.0
aF0.0
aF0.0
aF0.0
aF0.0
aF0.25
aF0.1
aF0.16666666666666666
aF0.23076923076923078
aF0.3333333333333333
aF0.5
aF0.42857142857142855
aF0.6666666666666666
aF0.5
aF0.7272727272727273
aF0.36363636363636365
aF0.2857142857142857
aF0.3333333333333333
aF0.0
aF0.0
aF0.0
aF0.1111111111111111
aF0.18181818181818182
aF0.3
aF0.4
aF0.125
aF0.0
aF0.0
aF0.0
asS'BRISK'
p5
(lp6
F0.125
aF0.4375
aF0.3076923076923077
aF0.4444444444444444
aF0.3333333333333333
aF0.35294117647058826
aF0.45
aF0.16666666666666666
aF0.3076923076923077
aF0.45
aF0.5714285714285714
aF0.16666666666666666
aF0.35294117647058826
aF0.3
aF0.07407407407407407
aF0.3793103448275862
aF0.20512820512820512
aF0.18421052631578946
aF0.16666666666666666
aF0.038461538461538464
aF0.17142857142857143
aF0.0967741935483871
aF0.08695652173913043
aF0.0
aF0.0
aF0.0
aF0.1111111111111111
aF0.0
aF0.06521739130434782
aF0.1951219512195122
aF0.1276595744680851
aF0.2127659574468085
aF0.125
aF0.08108108108108109
aF0.16216216216216217
aF0.13333333333333333
aF0.11764705882352941
aF0.0975609756097561
aF0.10714285714285714
aF0.022727272727272728
aF0.0
aF0.0
aF0.25
aF0.0
aF0.0
aF0.12121212121212122
aF0.031746031746031744
aF0.08196721311475409
aF0.047619047619047616
aF0.06451612903225806
aF0.02857142857142857
as.