(dp0
S'SIFT'
p1
(lp2
F31.959982788296042
a(lp3
F0.6158349514007568
aF0.5356509685516357
aF0.5389759540557861
aF0.5174999237060547
aF0.5183911323547363
aF0.5241649150848389
aF0.5288100242614746
aF0.531137228012085
aF0.5269031524658203
aF0.5254380702972412
aF0.5313739776611328
aF0.519582986831665
aF0.5258169174194336
aF0.5212409496307373
aF0.5704319477081299
aF0.5837259292602539
aF0.6084239482879639
aF0.6058011054992676
aF0.5947670936584473
aF0.5893428325653076
aF0.5867919921875
aF0.5931000709533691
aF0.5579359531402588
aF0.5177600383758545
aF0.5405969619750977
aF0.5250039100646973
aF0.571336030960083
aF0.6046881675720215
aF0.6638858318328857
aF0.6831860542297363
aF0.6645040512084961
aF0.6764860153198242
aF0.6555981636047363
aF0.6473720073699951
aF0.6457319259643555
aF0.6487941741943359
aF0.6334431171417236
aF0.6411609649658203
aF0.6331171989440918
aF0.6231539249420166
aF0.5869901180267334
aF0.5360100269317627
aF0.5038700103759766
aF0.4941890239715576
aF0.5254731178283691
aF0.6451010704040527
aF0.6650798320770264
aF0.6564748287200928
aF0.6115097999572754
aF0.5783398151397705
aF0.5576441287994385
aF0.5691559314727783
aF0.536492109298706
aF0.5332279205322266
aF0.5325238704681396
aF0.5315048694610596
aF0.5438330173492432
aF0.5909640789031982
aF0.6797640323638916
aF0.7113568782806396
aF0.7159600257873535
aF0.7140278816223145
aF0.7036161422729492
aF0.705517053604126
aF0.6827349662780762
aF0.6816000938415527
aF0.6407959461212158
aF0.6082139015197754
aF0.6125099658966064
aF0.6297810077667236
aF0.7251780033111572
aF0.7409420013427734
aF0.742621898651123
aF0.7406628131866455
aF0.730090856552124
aF0.722876787185669
aF0.7366719245910645
aF0.7440111637115479
aF0.7411739826202393
aF0.7530391216278076
aF0.7239110469818115
aF0.6557838916778564
aF0.6411621570587158
aF0.6030349731445312
aF0.5918929576873779
aF0.5593490600585938
aF0.5338230133056641
aF0.5287470817565918
aF0.531836986541748
aF0.5555531978607178
aF0.556602954864502
aasS'ORB'
p4
(lp5
F35.199999999999996
a(lp6
F0.04132795333862305
aF0.028165102005004883
aF0.027577877044677734
aF0.026852130889892578
aF0.026549100875854492
aF0.026777029037475586
aF0.026890993118286133
aF0.027189016342163086
aF0.02720499038696289
aF0.027339935302734375
aF0.027484893798828125
aF0.027220964431762695
aF0.02717900276184082
aF0.02742290496826172
aF0.028577089309692383
aF0.02937602996826172
aF0.02968001365661621
aF0.028857946395874023
aF0.028814077377319336
aF0.028692007064819336
aF0.02852320671081543
aF0.029208898544311523
aF0.028043031692504883
aF0.027009010314941406
aF0.02714705467224121
aF0.02786993980407715
aF0.028825044631958008
aF0.029679059982299805
aF0.030165910720825195
aF0.03038620948791504
aF0.030359983444213867
aF0.030457019805908203
aF0.03038811683654785
aF0.029859066009521484
aF0.029912233352661133
aF0.029881954193115234
aF0.029686927795410156
aF0.029783010482788086
aF0.029693126678466797
aF0.0294342041015625
aF0.028388023376464844
aF0.027575016021728516
aF0.027148008346557617
aF0.026942968368530273
aF0.028093814849853516
aF0.03147006034851074
aF0.031419992446899414
aF0.031177997589111328
aF0.030265092849731445
aF0.0294339656829834
aF0.02902698516845703
aF0.028934955596923828
aF0.028205156326293945
aF0.028723955154418945
aF0.028129100799560547
aF0.02835679054260254
aF0.028546810150146484
aF0.03001093864440918
aF0.03131985664367676
aF0.032179832458496094
aF0.03195905685424805
aF0.03180503845214844
aF0.032351016998291016
aF0.032173871994018555
aF0.03190016746520996
aF0.03212881088256836
aF0.03132891654968262
aF0.03084707260131836
aF0.03115081787109375
aF0.03135204315185547
aF0.033360958099365234
aF0.03367209434509277
aF0.03332400321960449
aF0.03348088264465332
aF0.033393144607543945
aF0.032968997955322266
aF0.03353404998779297
aF0.033885955810546875
aF0.03365683555603027
aF0.03375101089477539
aF0.03360414505004883
aF0.03233218193054199
aF0.032037973403930664
aF0.031311988830566406
aF0.030991792678833008
aF0.029175996780395508
aF0.028123140335083008
aF0.028635025024414062
aF0.028451919555664062
aF0.029104948043823242
aF0.029206037521362305
aasS'BRISK'
p7
(lp8
F8.969866853538893
a(lp9
F0.019687891006469727
aF0.02051401138305664
aF0.0189511775970459
aF0.018504858016967773
aF0.018158912658691406
aF0.018728971481323242
aF0.018717050552368164
aF0.01875615119934082
aF0.019283056259155273
aF0.01885700225830078
aF0.018522024154663086
aF0.018519878387451172
aF0.01835012435913086
aF0.018849849700927734
aF0.020760774612426758
aF0.022192001342773438
aF0.022960186004638672
aF0.022436857223510742
aF0.022457122802734375
aF0.02158188819885254
aF0.0216519832611084
aF0.021221160888671875
aF0.020411968231201172
aF0.018303871154785156
aF0.017982006072998047
aF0.01883077621459961
aF0.020424842834472656
aF0.022119998931884766
aF0.025061845779418945
aF0.024670124053955078
aF0.024769067764282227
aF0.024905920028686523
aF0.02398991584777832
aF0.02413010597229004
aF0.024644136428833008
aF0.024272918701171875
aF0.024163007736206055
aF0.02444314956665039
aF0.024626970291137695
aF0.02385997772216797
aF0.022057056427001953
aF0.020055055618286133
aF0.017982959747314453
aF0.017442941665649414
aF0.020022153854370117
aF0.025821924209594727
aF0.027271032333374023
aF0.025881052017211914
aF0.02427983283996582
aF0.02284717559814453
aF0.021769046783447266
aF0.021903038024902344
aF0.02100396156311035
aF0.02046799659729004
aF0.020699024200439453
aF0.021080970764160156
aF0.0225369930267334
aF0.02465200424194336
aF0.028033971786499023
aF0.02918696403503418
aF0.03024911880493164
aF0.02925586700439453
aF0.029571056365966797
aF0.02869892120361328
aF0.02862405776977539
aF0.028554916381835938
aF0.027904033660888672
aF0.025251150131225586
aF0.025276899337768555
aF0.02601480484008789
aF0.03187894821166992
aF0.031846046447753906
aF0.03236508369445801
aF0.03132987022399902
aF0.030704975128173828
aF0.030215978622436523
aF0.03139901161193848
aF0.03183889389038086
aF0.03312110900878906
aF0.032022953033447266
aF0.03240704536437988
aF0.0297849178314209
aF0.02867412567138672
aF0.027369976043701172
aF0.026607036590576172
aF0.02422308921813965
aF0.021863937377929688
aF0.022006988525390625
aF0.02212977409362793
aF0.023363828659057617
aF0.024234771728515625
aas.