(dp0
S'SIFT'
p1
(lp2
F0.37383177570093457
aF0.39814814814814814
aF0.40229885057471265
aF0.43529411764705883
aF0.45121951219512196
aF0.4380165289256198
aF0.417910447761194
aF0.2876712328767123
aF0.35374149659863946
aF0.27702702702702703
aF0.29069767441860467
aF0.34558823529411764
aF0.3968253968253968
aF0.35514018691588783
aF0.35714285714285715
aF0.28846153846153844
aF0.2692307692307692
aF0.27710843373493976
aF0.3202614379084967
aF0.3424657534246575
aF0.3218390804597701
aF0.37894736842105264
aF0.41304347826086957
aF0.45054945054945056
aF0.4527363184079602
aF0.5632183908045977
aF0.6512605042016807
aF0.6979591836734694
aF0.7164179104477612
aF0.6875
aF0.7577639751552795
asS'ORB'
p3
(lp4
F0.88
aF0.9
aF0.6818181818181818
aF0.625
aF0.48
aF0.47058823529411764
aF0.7222222222222222
aF0.6818181818181818
aF0.8333333333333334
aF0.8181818181818182
aF0.6666666666666666
aF0.7
aF0.6923076923076923
aF0.7142857142857143
aF0.36363636363636365
aF0.42857142857142855
aF0.16666666666666666
aF0.2
aF0.0
aF0.0
aF0.25
aF0.4
aF0.46153846153846156
aF0.88
aF0.7777777777777778
aF0.7368421052631579
aF0.5714285714285714
aF0.0
aF0.5
aF0.0
aF0.3333333333333333
asS'BRISK'
p5
(lp6
F0.2916666666666667
aF0.19047619047619047
aF0.10344827586206896
aF0.21052631578947367
aF0.21739130434782608
aF0.38461538461538464
aF0.125
aF0.21739130434782608
aF0.3333333333333333
aF0.18181818181818182
aF0.16
aF0.0625
aF0.1
aF0.21428571428571427
aF0.21739130434782608
aF0.23809523809523808
aF0.21739130434782608
aF0.19047619047619047
aF0.18181818181818182
aF0.10344827586206896
aF0.15151515151515152
aF0.21428571428571427
aF0.20588235294117646
aF0.1282051282051282
aF0.21875
aF0.2727272727272727
aF0.2
aF0.17073170731707318
aF0.37142857142857144
aF0.225
aF0.37735849056603776
as.