(dp0
S'SIFT'
p1
(lp2
I7342
aI15275
aF48.06546644844517
aF125.24257612228394
a(dp3
S'start_to_end_time'
p4
F0.7582792209856438
sS'kp_detect_time'
p5
F0.7013513391668146
sS'match_time'
p6
F0.05096506205472079
sS'open_time'
p7
F0.005312395095825195
sS'vis_time'
p8
F0.0
sa(lp9
F8.0
aF8.47457627118644
aF11.29032258064516
aF5.172413793103448
aF1.5873015873015872
aF1.25
aF2.666666666666667
aF17.105263157894736
aF30.0
aF15.686274509803921
aF11.538461538461538
aF7.894736842105263
aF2.564102564102564
aF0.0
aF2.7777777777777777
aF8.571428571428571
aF2.631578947368421
aF4.444444444444445
aF6.25
aF0.0
aF0.0
aF4.3478260869565215
aF0.0
aF0.0
aF0.0
aF0.0
aF0.0
aF0.0
aF0.0
aF4.166666666666666
aF2.857142857142857
aF7.6923076923076925
aF7.4074074074074066
aF3.7037037037037033
aF0.0
aF0.0
aF2.857142857142857
aF2.564102564102564
aF6.25
aF6.666666666666667
aF7.317073170731707
aF15.625
aF17.857142857142858
aF14.666666666666666
aF12.903225806451612
aF16.3265306122449
aF7.142857142857142
aF5.660377358490567
aF10.869565217391305
aF17.80821917808219
aF36.134453781512605
aF38.88888888888889
aF45.21739130434783
aF46.03174603174603
aF43.57142857142857
aF44.44444444444444
aF51.449275362318836
aF55.4054054054054
aF64.41441441441441
aF74.18181818181819
aF80.74074074074075
aF57.65765765765766
aF51.33333333333333
aF45.63758389261745
aF38.21138211382114
aF44.642857142857146
aF32.30769230769231
aF25.0
aF51.19047619047619
aF38.83495145631068
aF50.3448275862069
aF56.111111111111114
aF57.89473684210527
aF50.73170731707317
aF52.77777777777778
aF51.98019801980198
aF48.96907216494845
aF49.382716049382715
aF42.857142857142854
aF45.23809523809524
aF54.63917525773196
aF65.38461538461539
aF60.74074074074074
aF64.66165413533834
aF66.90647482014388
aF37.5
aF25.694444444444443
aF35.60606060606061
aF58.22784810126582
aF70.07874015748031
aF59.01639344262295
aF47.05882352941176
aF40.298507462686565
aF19.565217391304348
aF39.130434782608695
aF50.54945054945055
aF51.85185185185185
aF48.07692307692308
aF53.84615384615385
aF48.07692307692308
aF45.04504504504504
aF49.549549549549546
aF52.88461538461539
aF45.91836734693878
aF45.90163934426229
aF52.85714285714286
aF53.333333333333336
aF59.375
aF55.69620253164557
aF54.32098765432099
aF57.30337078651685
aF54.45544554455446
aF54.90196078431373
aF57.8125
aF66.66666666666666
aF60.0
aF68.29268292682927
aF66.66666666666666
aF67.64705882352942
aF72.28915662650603
aF62.92134831460674
aF64.64646464646465
aF61.458333333333336
aF60.97560975609756
aF62.92134831460674
aF63.2183908045977
aF64.70588235294117
aF66.66666666666666
aF74.46808510638297
aF80.64516129032258
aF79.36507936507937
aF68.05555555555556
aF58.87850467289719
aF58.333333333333336
aF55.96330275229357
aF57.14285714285714
aF57.89473684210527
aF47.540983606557376
aF47.24409448818898
aF52.0
aF54.400000000000006
aF50.37593984962406
aF48.8
aF51.75438596491229
aF55.660377358490564
aF56.88073394495413
aF51.30434782608696
aF54.95495495495496
aF51.908396946564885
aF54.285714285714285
aF52.34375
aF52.17391304347826
aF53.278688524590166
aF60.50420168067227
aF57.65765765765766
aF57.01754385964912
aF57.65765765765766
aF54.09836065573771
aF52.892561983471076
aF55.65217391304348
aF66.33663366336634
aF61.53846153846154
aF58.26086956521739
aF59.63302752293578
aF61.53846153846154
aasS'ORB'
p10
(lp11
I941
aI1615
aF58.26625386996904
aF6.0060460567474365
a(dp12
g4
F0.03636675025477554
sg5
F0.02746029911619244
sg6
F0.0035409566127892695
sg7
F0.005273090709339488
sg8
F0.0
sa(lp13
F0.0
aF0.0
aF0.0
aF0.0
aF0.0
aF0.0
aF0.0
aF0.0
aF0.0
aF0.0
aF0.0
aF0.0
aF0.0
aF0.0
aF0.0
aF0.0
aF0.0
aF0.0
aF0.0
aF0.0
aF0.0
aF0.0
aF0.0
aF0.0
aF0.0
aF0.0
aF0.0
aF0.0
aF0.0
aF0.0
aF0.0
aF0.0
aF0.0
aF0.0
aF0.0
aF0.0
aF0.0
aF0.0
aF0.0
aF0.0
aF0.0
aF0.0
aF0.0
aF0.0
aF0.0
aF0.0
aF0.0
aF0.0
aF0.0
aF0.0
aF0.0
aF0.0
aF0.0
aF14.285714285714285
aF20.0
aF33.33333333333333
aF25.0
aF55.55555555555556
aF79.16666666666666
aF87.8048780487805
aF88.73239436619718
aF53.333333333333336
aF23.076923076923077
aF16.666666666666664
aF0.0
aF0.0
aF12.5
aF0.0
aF22.22222222222222
aF27.27272727272727
aF33.33333333333333
aF60.0
aF76.66666666666667
aF89.1891891891892
aF82.97872340425532
aF88.0
aF79.06976744186046
aF71.875
aF43.47826086956522
aF30.76923076923077
aF61.111111111111114
aF76.47058823529412
aF92.6829268292683
aF96.66666666666667
aF92.5
aF4.3478260869565215
aF15.0
aF17.647058823529413
aF58.333333333333336
aF93.33333333333333
aF57.14285714285714
aF0.0
aF50.0
aF0.0
aF0.0
aF25.0
aF16.666666666666664
aF14.285714285714285
aF0.0
aF0.0
aF42.857142857142854
aF71.42857142857143
aF80.0
aF80.0
aF76.47058823529412
aF62.5
aF76.92307692307693
aF75.0
aF100.0
aF87.5
aF71.42857142857143
aF50.0
aF66.66666666666666
aF100.0
aF80.0
aF100.0
aF70.0
aF62.5
aF50.0
aF62.5
aF66.66666666666666
aF85.71428571428571
aF71.42857142857143
aF70.0
aF70.0
aF66.66666666666666
aF88.88888888888889
aF88.88888888888889
aF83.33333333333334
aF61.53846153846154
aF60.0
aF62.5
aF71.42857142857143
aF55.55555555555556
aF100.0
aF83.33333333333334
aF100.0
aF71.42857142857143
aF87.5
aF75.0
aF100.0
aF0.0
aF100.0
aF80.0
aF60.0
aF85.71428571428571
aF88.88888888888889
aF81.81818181818183
aF83.33333333333334
aF85.71428571428571
aF40.0
aF71.42857142857143
aF66.66666666666666
aF92.85714285714286
aF66.66666666666666
aF80.0
aF100.0
aF71.42857142857143
aF80.0
aF100.0
aF81.81818181818183
aF100.0
aF83.33333333333334
aF83.33333333333334
aF85.71428571428571
aasS'BRISK'
p14
(lp15
I581
aI1828
aF31.783369803063454
aF6.5704240798950195
a(dp16
g4
F0.03377307256062825
sg5
F0.02604547558408795
sg6
F0.002280634099786932
sg7
F0.005304335102890477
sg8
F0.0
sa(lp17
F0.0
aF0.0
aF0.0
aF9.090909090909092
aF0.0
aF6.25
aF0.0
aF0.0
aF0.0
aF0.0
aF0.0
aF0.0
aF0.0
aF0.0
aF0.0
aF0.0
aF0.0
aF0.0
aF0.0
aF0.0
aF0.0
aF0.0
aF0.0
aF0.0
aF0.0
aF0.0
aF0.0
aF0.0
aF0.0
aF0.0
aF0.0
aF0.0
aF0.0
aF0.0
aF0.0
aF0.0
aF0.0
aF0.0
aF8.333333333333332
aF0.0
aF0.0
aF7.142857142857142
aF5.263157894736842
aF0.0
aF20.0
aF8.333333333333332
aF6.666666666666667
aF0.0
aF0.0
aF23.076923076923077
aF26.666666666666668
aF33.33333333333333
aF9.523809523809524
aF23.809523809523807
aF37.5
aF27.27272727272727
aF27.27272727272727
aF6.666666666666667
aF42.30769230769231
aF32.35294117647059
aF76.47058823529412
aF33.33333333333333
aF33.33333333333333
aF16.666666666666664
aF30.76923076923077
aF12.5
aF42.857142857142854
aF16.666666666666664
aF18.181818181818183
aF25.0
aF5.555555555555555
aF20.0
aF23.52941176470588
aF11.11111111111111
aF7.142857142857142
aF11.76470588235294
aF16.0
aF11.76470588235294
aF11.76470588235294
aF41.66666666666667
aF10.0
aF47.368421052631575
aF33.33333333333333
aF33.33333333333333
aF13.333333333333334
aF33.33333333333333
aF22.22222222222222
aF16.666666666666664
aF27.27272727272727
aF27.27272727272727
aF55.55555555555556
aF25.0
aF38.46153846153847
aF25.0
aF42.857142857142854
aF18.181818181818183
aF11.11111111111111
aF16.666666666666664
aF16.666666666666664
aF60.0
aF50.0
aF25.0
aF40.0
aF60.0
aF100.0
aF33.33333333333333
aF33.33333333333333
aF54.54545454545454
aF33.33333333333333
aF50.0
aF40.0
aF75.0
aF77.77777777777779
aF20.0
aF33.33333333333333
aF100.0
aF66.66666666666666
aF66.66666666666666
aF66.66666666666666
aF75.0
aF50.0
aF50.0
aF50.0
aF63.63636363636363
aF50.0
aF64.28571428571429
aF44.44444444444444
aF60.0
aF69.23076923076923
aF71.42857142857143
aF44.44444444444444
aF75.0
aF41.66666666666667
aF33.33333333333333
aF50.0
aF87.5
aF14.285714285714285
aF72.22222222222221
aF84.61538461538461
aF69.23076923076923
aF64.28571428571429
aF50.0
aF60.0
aF40.0
aF66.66666666666666
aF58.333333333333336
aF45.45454545454545
aF85.71428571428571
aF33.33333333333333
aF57.14285714285714
aF61.111111111111114
aF61.53846153846154
aF61.111111111111114
aF43.75
aF50.0
aF25.0
aF50.0
aF69.23076923076923
aF58.333333333333336
aF83.33333333333334
aF75.0
aF50.0
aF40.0
aF71.42857142857143
aF62.5
aas.