(dp0
I512
(dp1
S'boxes'
p2
(dp3
I512
(lp4
I510
aI434
aI450
aI278
asI513
(lp5
I510
aI446
aI450
aI290
asI514
(lp6
I516
aI462
aI452
aI304
asI515
(lp7
I524
aI484
aI462
aI322
asI516
(lp8
I536
aI502
aI474
aI338
asI517
(lp9
I544
aI520
aI480
aI352
asI518
(lp10
I550
aI528
aI478
aI358
asI519
(lp11
I552
aI538
aI478
aI366
asI520
(lp12
I552
aI544
aI478
aI372
asI521
(lp13
I552
aI550
aI478
aI378
asI522
(lp14
I552
aI554
aI478
aI382
asI523
(lp15
I550
aI564
aI470
aI382
asI524
(lp16
I548
aI568
aI470
aI386
asI525
(lp17
I546
aI570
aI468
aI388
asI526
(lp18
I542
aI578
aI454
aI392
asI527
(lp19
I540
aI584
aI452
aI398
asI528
(lp20
I538
aI588
aI450
aI402
asI529
(lp21
I536
aI592
aI448
aI404
asI530
(lp22
I534
aI596
aI446
aI406
asI531
(lp23
I530
aI600
aI440
aI408
asI532
(lp24
I528
aI604
aI438
aI412
asI533
(lp25
I524
aI616
aI428
aI414
asI534
(lp26
I520
aI628
aI424
aI426
asI535
(lp27
I512
aI640
aI416
aI434
asI536
(lp28
I508
aI648
aI408
aI440
asI537
(lp29
I504
aI648
aI404
aI440
asI538
(lp30
I500
aI654
aI396
aI440
asI539
(lp31
I494
aI654
aI390
aI440
asI540
(lp32
I490
aI660
aI384
aI444
asI541
(lp33
I486
aI662
aI380
aI444
asI542
(lp34
I484
aI662
aI376
aI444
asI543
(lp35
I486
aI658
aI374
aI440
asI544
(lp36
I490
aI656
aI374
aI436
asI545
(lp37
I490
aI646
aI374
aI426
asI546
(lp38
I490
aI634
aI372
aI414
asI547
(lp39
I486
aI620
aI366
aI398
asI548
(lp40
I480
aI610
aI350
aI386
asI549
(lp41
I472
aI598
aI346
aI374
asI550
(lp42
I468
aI590
aI324
aI360
asI551
(lp43
I462
aI580
aI318
aI350
asI552
(lp44
I456
aI576
aI312
aI342
asI553
(lp45
I450
aI570
aI304
aI334
asI554
(lp46
I448
aI570
aI302
aI328
asI555
(lp47
I446
aI566
aI300
aI322
asI556
(lp48
I446
aI566
aI300
aI318
asI557
(lp49
I448
aI564
aI300
aI314
asI558
(lp50
I442
aI536
aI294
aI300
asI559
(lp51
I438
aI524
aI284
aI284
asI560
(lp52
I428
aI510
aI270
aI262
asI561
(lp53
I414
aI514
aI250
aI256
asI562
(lp54
I402
aI520
aI236
aI256
asI563
(lp55
I396
aI522
aI220
aI252
asI564
(lp56
I396
aI522
aI218
aI250
asI565
(lp57
I396
aI524
aI218
aI248
asI566
(lp58
I400
aI526
aI218
aI248
asI567
(lp59
I402
aI528
aI218
aI246
asI568
(lp60
I402
aI528
aI216
aI244
asI569
(lp61
I402
aI528
aI212
aI240
asI570
(lp62
I400
aI530
aI206
aI238
asI571
(lp63
I398
aI532
aI202
aI236
asI572
(lp64
I396
aI538
aI196
aI234
asI573
(lp65
I392
aI544
aI184
aI236
asI574
(lp66
I382
aI548
aI170
aI236
asI575
(lp67
I376
aI556
aI160
aI240
asI576
(lp68
I370
aI574
aI146
aI246
asI577
(lp69
I362
aI592
aI132
aI256
asI578
(lp70
I358
aI616
aI118
aI274
asI579
(lp71
I348
aI646
aI94
aI288
asI580
(lp72
I338
aI672
aI78
aI302
asI581
(lp73
I332
aI696
aI50
aI308
asI582
(lp74
I330
aI706
aI46
aI310
asI583
(lp75
I334
aI712
aI42
aI316
asI584
(lp76
I338
aI716
aI32
aI318
asI585
(lp77
I338
aI716
aI32
aI318
asI586
(lp78
I336
aI718
aI24
aI316
asI587
(lp79
I340
aI718
aI20
aI316
asI588
(lp80
I346
aI718
aI40
aI316
asI589
(lp81
I362
aI718
aI48
aI316
asI590
(lp82
I374
aI718
aI60
aI316
asI591
(lp83
I384
aI714
aI60
aI322
asI592
(lp84
I396
aI718
aI62
aI326
asI593
(lp85
I406
aI718
aI68
aI330
asI594
(lp86
I416
aI718
aI90
aI330
asI595
(lp87
I426
aI718
aI98
aI330
asI596
(lp88
I442
aI718
aI102
aI328
asI597
(lp89
I452
aI718
aI120
aI326
asI598
(lp90
I468
aI718
aI122
aI326
asI599
(lp91
I480
aI718
aI126
aI326
asI600
(lp92
I498
aI718
aI128
aI326
asI601
(lp93
I510
aI718
aI134
aI330
asI602
(lp94
I514
aI718
aI136
aI332
asI603
(lp95
I532
aI718
aI136
aI338
asI604
(lp96
I542
aI718
aI134
aI346
asI605
(lp97
I548
aI718
aI134
aI348
asI606
(lp98
I548
aI718
aI118
aI356
asI607
(lp99
I550
aI718
aI118
aI364
asI608
(lp100
I550
aI718
aI118
aI380
asI609
(lp101
I554
aI718
aI112
aI380
asI610
(lp102
I554
aI718
aI108
aI388
asI611
(lp103
I556
aI718
aI102
aI388
asI612
(lp104
I560
aI718
aI98
aI388
asI613
(lp105
I568
aI718
aI96
aI386
asI614
(lp106
I566
aI718
aI94
aI382
asI615
(lp107
I568
aI718
aI90
aI378
asI616
(lp108
I574
aI718
aI86
aI378
asI617
(lp109
I576
aI718
aI86
aI372
asI618
(lp110
I580
aI718
aI86
aI366
asI619
(lp111
I586
aI718
aI86
aI360
asI620
(lp112
I594
aI718
aI86
aI354
asI621
(lp113
I604
aI718
aI86
aI350
asI622
(lp114
I616
aI718
aI86
aI342
asI623
(lp115
I624
aI718
aI82
aI338
asI624
(lp116
I634
aI718
aI82
aI338
asI625
(lp117
I640
aI718
aI82
aI338
asI626
(lp118
I646
aI718
aI72
aI338
asI627
(lp119
I654
aI718
aI72
aI338
asI628
(lp120
I660
aI718
aI66
aI346
asI629
(lp121
I662
aI718
aI42
aI346
asI630
(lp122
I672
aI718
aI42
aI346
asI631
(lp123
I678
aI718
aI42
aI346
asI632
(lp124
I682
aI718
aI36
aI348
asI633
(lp125
I688
aI718
aI32
aI346
asI634
(lp126
I692
aI718
aI28
aI344
asI635
(lp127
I710
aI718
aI28
aI340
asI636
(lp128
I710
aI718
aI28
aI336
asI637
(lp129
I716
aI718
aI28
aI322
asI638
(lp130
I718
aI718
aI28
aI310
asI639
(lp131
I722
aI718
aI46
aI302
asI640
(lp132
I728
aI718
aI46
aI292
asI641
(lp133
I728
aI718
aI46
aI272
asI642
(lp134
I730
aI718
aI50
aI258
asI643
(lp135
I732
aI718
aI62
aI244
asI644
(lp136
I740
aI718
aI64
aI234
asI645
(lp137
I748
aI718
aI64
aI204
asI646
(lp138
I752
aI718
aI68
aI182
asI647
(lp139
I762
aI716
aI78
aI170
asI648
(lp140
I768
aI718
aI88
aI158
asI649
(lp141
I770
aI718
aI90
aI150
asI650
(lp142
I774
aI718
aI90
aI138
asI651
(lp143
I770
aI718
aI88
aI126
asI652
(lp144
I764
aI718
aI88
aI106
asI653
(lp145
I770
aI718
aI96
aI84
asI654
(lp146
I772
aI718
aI102
aI66
asI655
(lp147
I774
aI718
aI114
aI64
asI656
(lp148
I778
aI716
aI126
aI48
asI657
(lp149
I778
aI718
aI128
aI32
asI658
(lp150
I774
aI720
aI138
aI24
asI659
(lp151
I772
aI718
aI136
aI22
asI660
(lp152
I770
aI716
aI134
aI20
asI661
(lp153
I770
aI712
aI134
aI16
asI662
(lp154
I768
aI718
aI140
aI12
asI663
(lp155
I772
aI716
aI144
aI10
asI664
(lp156
I772
aI716
aI148
aI8
asI665
(lp157
I774
aI716
aI150
aI8
asI666
(lp158
I774
aI718
aI150
aI10
asI667
(lp159
I772
aI718
aI148
aI10
asI668
(lp160
I772
aI718
aI148
aI6
asI669
(lp161
I772
aI718
aI148
aI6
asI670
(lp162
I772
aI718
aI148
aI6
asI671
(lp163
I772
aI718
aI148
aI6
asI672
(lp164
I770
aI718
aI146
aI6
asI673
(lp165
I768
aI718
aI144
aI6
asI674
(lp166
I768
aI718
aI144
aI6
asI675
(lp167
I766
aI718
aI138
aI2
asI676
(lp168
I764
aI716
aI136
aI0
asI677
(lp169
I764
aI716
aI136
aI0
asI678
(lp170
I764
aI716
aI136
aI0
asI679
(lp171
I766
aI716
aI138
aI0
asI680
(lp172
I766
aI716
aI138
aI0
asI681
(lp173
I768
aI716
aI140
aI0
asI682
(lp174
I770
aI716
aI142
aI0
asI683
(lp175
I772
aI716
aI144
aI0
asI684
(lp176
I772
aI716
aI144
aI0
asI685
(lp177
I774
aI716
aI146
aI0
asI686
(lp178
I778
aI716
aI150
aI0
asI687
(lp179
I784
aI716
aI150
aI0
asI688
(lp180
I788
aI716
aI154
aI0
asI689
(lp181
I790
aI716
aI156
aI0
asI690
(lp182
I794
aI716
aI160
aI0
asI691
(lp183
I794
aI716
aI160
aI0
asI692
(lp184
I794
aI718
aI160
aI2
asI693
(lp185
I794
aI718
aI160
aI2
asI694
(lp186
I796
aI718
aI162
aI8
asI695
(lp187
I796
aI718
aI162
aI8
assS'overall accuracy'
p188
F75.0
sS'c_match'
p189
(lp190
I01
aI01
aI01
aI00
aI01
aI00
aI01
aI00
aI00
aI00
aI01
aI01
aI01
aI01
aI01
aI00
asS'frame numbers'
p191
(lp192
S'00512'
p193
aS'00513'
p194
aS'00514'
p195
aS'00515'
p196
aS'00518'
p197
aS'00523'
p198
aS'00527'
p199
aS'00536'
p200
aS'00556'
p201
aS'00596'
p202
aS'00608'
p203
aS'00631'
p204
aS'00636'
p205
aS'00637'
p206
aS'00658'
p207
aS'00691'
p208
asS'correct kp matches'
p209
(lp210
I9
aI1
aI1
aI0
aI1
aI0
aI1
aI0
aI0
aI0
aI1
aI1
aI1
aI1
aI1
aI0
asS'total kp matches'
p211
(lp212
I9
aI1
aI1
aI1
aI1
aI1
aI1
aI1
aI1
aI1
aI1
aI1
aI1
aI1
aI1
aI1
asS'hypotenuse'
p213
(lp214
F167.14065932620943
aF167.14065932620943
aF170.46993869888027
aF173.4589288563722
aF184.61852561430555
aF198.80643852752857
aF205.7668583615933
aF230.7899477880265
aF287.7846417027844
aF517.3973328110611
aF548.5143571502938
aF736.8039087844201
aF781.6955929260444
aF793.826177446927
aF942.8212980199376
aF956.3534911318095
asS'distance from center'
p215
(lp216
F25.238858928247925
aF13.92838827718412
aF70.00714249274856
aF167.6305461424021
aF25.0
aF207.88458336298052
aF93.40770846134703
aF600.5763898123203
aF833.2214591571679
aF441.0181402164768
aF140.98226838861686
aF85.84287972802403
aF106.23088063270491
aF109.9317970379817
aF301.7614952242913
aF397.2316704393042
assI672
(dp217
g2
(dp218
I512
(lp219
I510
aI434
aI450
aI278
asI513
(lp220
I510
aI446
aI450
aI290
asI514
(lp221
I516
aI462
aI452
aI304
asI515
(lp222
I524
aI484
aI462
aI322
asI516
(lp223
I536
aI502
aI474
aI338
asI517
(lp224
I544
aI520
aI480
aI352
asI518
(lp225
I550
aI528
aI478
aI358
asI519
(lp226
I552
aI538
aI478
aI366
asI520
(lp227
I552
aI544
aI478
aI372
asI521
(lp228
I552
aI550
aI478
aI378
asI522
(lp229
I552
aI554
aI478
aI382
asI523
(lp230
I550
aI564
aI470
aI382
asI524
(lp231
I548
aI568
aI470
aI386
asI525
(lp232
I546
aI570
aI468
aI388
asI526
(lp233
I542
aI578
aI454
aI392
asI527
(lp234
I540
aI584
aI452
aI398
asI528
(lp235
I538
aI588
aI450
aI402
asI529
(lp236
I536
aI592
aI448
aI404
asI530
(lp237
I534
aI596
aI446
aI406
asI531
(lp238
I530
aI600
aI440
aI408
asI532
(lp239
I528
aI604
aI438
aI412
asI533
(lp240
I524
aI616
aI428
aI414
asI534
(lp241
I520
aI628
aI424
aI426
asI535
(lp242
I512
aI640
aI416
aI434
asI536
(lp243
I508
aI648
aI408
aI440
asI537
(lp244
I504
aI648
aI404
aI440
asI538
(lp245
I500
aI654
aI396
aI440
asI539
(lp246
I494
aI654
aI390
aI440
asI540
(lp247
I490
aI660
aI384
aI444
asI541
(lp248
I486
aI662
aI380
aI444
asI542
(lp249
I484
aI662
aI376
aI444
asI543
(lp250
I486
aI658
aI374
aI440
asI544
(lp251
I490
aI656
aI374
aI436
asI545
(lp252
I490
aI646
aI374
aI426
asI546
(lp253
I490
aI634
aI372
aI414
asI547
(lp254
I486
aI620
aI366
aI398
asI548
(lp255
I480
aI610
aI350
aI386
asI549
(lp256
I472
aI598
aI346
aI374
asI550
(lp257
I468
aI590
aI324
aI360
asI551
(lp258
I462
aI580
aI318
aI350
asI552
(lp259
I456
aI576
aI312
aI342
asI553
(lp260
I450
aI570
aI304
aI334
asI554
(lp261
I448
aI570
aI302
aI328
asI555
(lp262
I446
aI566
aI300
aI322
asI556
(lp263
I446
aI566
aI300
aI318
asI557
(lp264
I448
aI564
aI300
aI314
asI558
(lp265
I442
aI536
aI294
aI300
asI559
(lp266
I438
aI524
aI284
aI284
asI560
(lp267
I428
aI510
aI270
aI262
asI561
(lp268
I414
aI514
aI250
aI256
asI562
(lp269
I402
aI520
aI236
aI256
asI563
(lp270
I396
aI522
aI220
aI252
asI564
(lp271
I396
aI522
aI218
aI250
asI565
(lp272
I396
aI524
aI218
aI248
asI566
(lp273
I400
aI526
aI218
aI248
asI567
(lp274
I402
aI528
aI218
aI246
asI568
(lp275
I402
aI528
aI216
aI244
asI569
(lp276
I402
aI528
aI212
aI240
asI570
(lp277
I400
aI530
aI206
aI238
asI571
(lp278
I398
aI532
aI202
aI236
asI572
(lp279
I396
aI538
aI196
aI234
asI573
(lp280
I392
aI544
aI184
aI236
asI574
(lp281
I382
aI548
aI170
aI236
asI575
(lp282
I376
aI556
aI160
aI240
asI576
(lp283
I370
aI574
aI146
aI246
asI577
(lp284
I362
aI592
aI132
aI256
asI578
(lp285
I358
aI616
aI118
aI274
asI579
(lp286
I348
aI646
aI94
aI288
asI580
(lp287
I338
aI672
aI78
aI302
asI581
(lp288
I332
aI696
aI50
aI308
asI582
(lp289
I330
aI706
aI46
aI310
asI583
(lp290
I334
aI712
aI42
aI316
asI584
(lp291
I338
aI716
aI32
aI318
asI585
(lp292
I338
aI716
aI32
aI318
asI586
(lp293
I336
aI718
aI24
aI316
asI587
(lp294
I340
aI718
aI20
aI316
asI588
(lp295
I346
aI718
aI40
aI316
asI589
(lp296
I362
aI718
aI48
aI316
asI590
(lp297
I374
aI718
aI60
aI316
asI591
(lp298
I384
aI714
aI60
aI322
asI592
(lp299
I396
aI718
aI62
aI326
asI593
(lp300
I406
aI718
aI68
aI330
asI594
(lp301
I416
aI718
aI90
aI330
asI595
(lp302
I426
aI718
aI98
aI330
asI596
(lp303
I442
aI718
aI102
aI328
asI597
(lp304
I452
aI718
aI120
aI326
asI598
(lp305
I468
aI718
aI122
aI326
asI599
(lp306
I480
aI718
aI126
aI326
asI600
(lp307
I498
aI718
aI128
aI326
asI601
(lp308
I510
aI718
aI134
aI330
asI602
(lp309
I514
aI718
aI136
aI332
asI603
(lp310
I532
aI718
aI136
aI338
asI604
(lp311
I542
aI718
aI134
aI346
asI605
(lp312
I548
aI718
aI134
aI348
asI606
(lp313
I548
aI718
aI118
aI356
asI607
(lp314
I550
aI718
aI118
aI364
asI608
(lp315
I550
aI718
aI118
aI380
asI609
(lp316
I554
aI718
aI112
aI380
asI610
(lp317
I554
aI718
aI108
aI388
asI611
(lp318
I556
aI718
aI102
aI388
asI612
(lp319
I560
aI718
aI98
aI388
asI613
(lp320
I568
aI718
aI96
aI386
asI614
(lp321
I566
aI718
aI94
aI382
asI615
(lp322
I568
aI718
aI90
aI378
asI616
(lp323
I574
aI718
aI86
aI378
asI617
(lp324
I576
aI718
aI86
aI372
asI618
(lp325
I580
aI718
aI86
aI366
asI619
(lp326
I586
aI718
aI86
aI360
asI620
(lp327
I594
aI718
aI86
aI354
asI621
(lp328
I604
aI718
aI86
aI350
asI622
(lp329
I616
aI718
aI86
aI342
asI623
(lp330
I624
aI718
aI82
aI338
asI624
(lp331
I634
aI718
aI82
aI338
asI625
(lp332
I640
aI718
aI82
aI338
asI626
(lp333
I646
aI718
aI72
aI338
asI627
(lp334
I654
aI718
aI72
aI338
asI628
(lp335
I660
aI718
aI66
aI346
asI629
(lp336
I662
aI718
aI42
aI346
asI630
(lp337
I672
aI718
aI42
aI346
asI631
(lp338
I678
aI718
aI42
aI346
asI632
(lp339
I682
aI718
aI36
aI348
asI633
(lp340
I688
aI718
aI32
aI346
asI634
(lp341
I692
aI718
aI28
aI344
asI635
(lp342
I710
aI718
aI28
aI340
asI636
(lp343
I710
aI718
aI28
aI336
asI637
(lp344
I716
aI718
aI28
aI322
asI638
(lp345
I718
aI718
aI28
aI310
asI639
(lp346
I722
aI718
aI46
aI302
asI640
(lp347
I728
aI718
aI46
aI292
asI641
(lp348
I728
aI718
aI46
aI272
asI642
(lp349
I730
aI718
aI50
aI258
asI643
(lp350
I732
aI718
aI62
aI244
asI644
(lp351
I740
aI718
aI64
aI234
asI645
(lp352
I748
aI718
aI64
aI204
asI646
(lp353
I752
aI718
aI68
aI182
asI647
(lp354
I762
aI716
aI78
aI170
asI648
(lp355
I768
aI718
aI88
aI158
asI649
(lp356
I770
aI718
aI90
aI150
asI650
(lp357
I774
aI718
aI90
aI138
asI651
(lp358
I770
aI718
aI88
aI126
asI652
(lp359
I764
aI718
aI88
aI106
asI653
(lp360
I770
aI718
aI96
aI84
asI654
(lp361
I772
aI718
aI102
aI66
asI655
(lp362
I774
aI718
aI114
aI64
asI656
(lp363
I778
aI716
aI126
aI48
asI657
(lp364
I778
aI718
aI128
aI32
asI658
(lp365
I774
aI720
aI138
aI24
asI659
(lp366
I772
aI718
aI136
aI22
asI660
(lp367
I770
aI716
aI134
aI20
asI661
(lp368
I770
aI712
aI134
aI16
asI662
(lp369
I768
aI718
aI140
aI12
asI663
(lp370
I772
aI716
aI144
aI10
asI664
(lp371
I772
aI716
aI148
aI8
asI665
(lp372
I774
aI716
aI150
aI8
asI666
(lp373
I774
aI718
aI150
aI10
asI667
(lp374
I772
aI718
aI148
aI10
asI668
(lp375
I772
aI718
aI148
aI6
asI669
(lp376
I772
aI718
aI148
aI6
asI670
(lp377
I772
aI718
aI148
aI6
asI671
(lp378
I772
aI718
aI148
aI6
asI672
(lp379
I770
aI718
aI146
aI6
asI673
(lp380
I768
aI718
aI144
aI6
asI674
(lp381
I768
aI718
aI144
aI6
asI675
(lp382
I766
aI718
aI138
aI2
asI676
(lp383
I764
aI716
aI136
aI0
asI677
(lp384
I764
aI716
aI136
aI0
asI678
(lp385
I764
aI716
aI136
aI0
asI679
(lp386
I766
aI716
aI138
aI0
asI680
(lp387
I766
aI716
aI138
aI0
asI681
(lp388
I768
aI716
aI140
aI0
asI682
(lp389
I770
aI716
aI142
aI0
asI683
(lp390
I772
aI716
aI144
aI0
asI684
(lp391
I772
aI716
aI144
aI0
asI685
(lp392
I774
aI716
aI146
aI0
asI686
(lp393
I778
aI716
aI150
aI0
asI687
(lp394
I784
aI716
aI150
aI0
asI688
(lp395
I788
aI716
aI154
aI0
asI689
(lp396
I790
aI716
aI156
aI0
asI690
(lp397
I794
aI716
aI160
aI0
asI691
(lp398
I794
aI716
aI160
aI0
asI692
(lp399
I794
aI718
aI160
aI2
asI693
(lp400
I794
aI718
aI160
aI2
asI694
(lp401
I796
aI718
aI162
aI8
asI695
(lp402
I796
aI718
aI162
aI8
assg188
F90.24478041756659
sg189
(lp403
I01
aI01
aI01
aI01
aI01
aI01
aI01
aI01
aI01
aI01
aI01
aI01
aI01
aI01
aI01
aI01
aI01
aI01
aI01
aI01
aI01
aI01
aI01
aI01
asg191
(lp404
S'00672'
p405
aS'00673'
p406
aS'00674'
p407
aS'00675'
p408
aS'00676'
p409
aS'00677'
p410
aS'00678'
p411
aS'00679'
p412
aS'00680'
p413
aS'00681'
p414
aS'00682'
p415
aS'00683'
p416
aS'00684'
p417
aS'00685'
p418
aS'00686'
p419
aS'00687'
p420
aS'00688'
p421
aS'00689'
p422
aS'00690'
p423
aS'00691'
p424
aS'00692'
p425
aS'00693'
p426
aS'00694'
p427
aS'00695'
p428
asg209
(lp429
I439
aI136
aI102
aI101
aI89
aI88
aI76
aI84
aI86
aI89
aI82
aI80
aI91
aI92
aI84
aI91
aI93
aI85
aI94
aI88
aI90
aI86
aI86
aI75
asg211
(lp430
I439
aI153
aI115
aI113
aI101
aI103
aI88
aI97
aI101
aI102
aI91
aI84
aI104
aI104
aI88
aI101
aI97
aI93
aI103
aI109
aI102
aI105
aI98
aI87
asg213
(lp431
F946.7417810575384
aF946.7417810575384
aF946.7417810575384
aF952.3864761744572
aF952.3864761744572
aF952.3864761744572
aF952.3864761744572
aF952.3864761744572
aF952.3864761744572
aF952.3864761744572
aF952.3864761744572
aF952.3864761744572
aF952.3864761744572
aF952.3864761744572
aF952.3864761744572
aF956.3534911318095
aF956.3534911318095
aF956.3534911318095
aF956.3534911318095
aF956.3534911318095
aF956.3534911318095
aF956.3534911318095
aF951.869738987431
aF951.869738987431
asg215
(lp432
F102.48902380255166
aF104.38869670610895
aF97.09788875150684
aF40.162171256046406
aF111.39569111954016
aF118.6001686339442
aF81.8413098624405
aF102.55242561733974
aF109.2520022699813
aF86.33075929238663
aF90.0499861188218
aF107.35455276791944
aF141.94717327231282
aF78.29431652425353
aF115.41230437002807
aF68.30812543175226
aF53.45091205957107
aF63.694583757176716
aF114.20157617125956
aF107.89810007595129
aF115.45128842936315
aF35.84689665786984
aF93.00537618869137
aF109.27488274987991
assI612
(dp433
g2
(dp434
I512
(lp435
I510
aI434
aI450
aI278
asI513
(lp436
I510
aI446
aI450
aI290
asI514
(lp437
I516
aI462
aI452
aI304
asI515
(lp438
I524
aI484
aI462
aI322
asI516
(lp439
I536
aI502
aI474
aI338
asI517
(lp440
I544
aI520
aI480
aI352
asI518
(lp441
I550
aI528
aI478
aI358
asI519
(lp442
I552
aI538
aI478
aI366
asI520
(lp443
I552
aI544
aI478
aI372
asI521
(lp444
I552
aI550
aI478
aI378
asI522
(lp445
I552
aI554
aI478
aI382
asI523
(lp446
I550
aI564
aI470
aI382
asI524
(lp447
I548
aI568
aI470
aI386
asI525
(lp448
I546
aI570
aI468
aI388
asI526
(lp449
I542
aI578
aI454
aI392
asI527
(lp450
I540
aI584
aI452
aI398
asI528
(lp451
I538
aI588
aI450
aI402
asI529
(lp452
I536
aI592
aI448
aI404
asI530
(lp453
I534
aI596
aI446
aI406
asI531
(lp454
I530
aI600
aI440
aI408
asI532
(lp455
I528
aI604
aI438
aI412
asI533
(lp456
I524
aI616
aI428
aI414
asI534
(lp457
I520
aI628
aI424
aI426
asI535
(lp458
I512
aI640
aI416
aI434
asI536
(lp459
I508
aI648
aI408
aI440
asI537
(lp460
I504
aI648
aI404
aI440
asI538
(lp461
I500
aI654
aI396
aI440
asI539
(lp462
I494
aI654
aI390
aI440
asI540
(lp463
I490
aI660
aI384
aI444
asI541
(lp464
I486
aI662
aI380
aI444
asI542
(lp465
I484
aI662
aI376
aI444
asI543
(lp466
I486
aI658
aI374
aI440
asI544
(lp467
I490
aI656
aI374
aI436
asI545
(lp468
I490
aI646
aI374
aI426
asI546
(lp469
I490
aI634
aI372
aI414
asI547
(lp470
I486
aI620
aI366
aI398
asI548
(lp471
I480
aI610
aI350
aI386
asI549
(lp472
I472
aI598
aI346
aI374
asI550
(lp473
I468
aI590
aI324
aI360
asI551
(lp474
I462
aI580
aI318
aI350
asI552
(lp475
I456
aI576
aI312
aI342
asI553
(lp476
I450
aI570
aI304
aI334
asI554
(lp477
I448
aI570
aI302
aI328
asI555
(lp478
I446
aI566
aI300
aI322
asI556
(lp479
I446
aI566
aI300
aI318
asI557
(lp480
I448
aI564
aI300
aI314
asI558
(lp481
I442
aI536
aI294
aI300
asI559
(lp482
I438
aI524
aI284
aI284
asI560
(lp483
I428
aI510
aI270
aI262
asI561
(lp484
I414
aI514
aI250
aI256
asI562
(lp485
I402
aI520
aI236
aI256
asI563
(lp486
I396
aI522
aI220
aI252
asI564
(lp487
I396
aI522
aI218
aI250
asI565
(lp488
I396
aI524
aI218
aI248
asI566
(lp489
I400
aI526
aI218
aI248
asI567
(lp490
I402
aI528
aI218
aI246
asI568
(lp491
I402
aI528
aI216
aI244
asI569
(lp492
I402
aI528
aI212
aI240
asI570
(lp493
I400
aI530
aI206
aI238
asI571
(lp494
I398
aI532
aI202
aI236
asI572
(lp495
I396
aI538
aI196
aI234
asI573
(lp496
I392
aI544
aI184
aI236
asI574
(lp497
I382
aI548
aI170
aI236
asI575
(lp498
I376
aI556
aI160
aI240
asI576
(lp499
I370
aI574
aI146
aI246
asI577
(lp500
I362
aI592
aI132
aI256
asI578
(lp501
I358
aI616
aI118
aI274
asI579
(lp502
I348
aI646
aI94
aI288
asI580
(lp503
I338
aI672
aI78
aI302
asI581
(lp504
I332
aI696
aI50
aI308
asI582
(lp505
I330
aI706
aI46
aI310
asI583
(lp506
I334
aI712
aI42
aI316
asI584
(lp507
I338
aI716
aI32
aI318
asI585
(lp508
I338
aI716
aI32
aI318
asI586
(lp509
I336
aI718
aI24
aI316
asI587
(lp510
I340
aI718
aI20
aI316
asI588
(lp511
I346
aI718
aI40
aI316
asI589
(lp512
I362
aI718
aI48
aI316
asI590
(lp513
I374
aI718
aI60
aI316
asI591
(lp514
I384
aI714
aI60
aI322
asI592
(lp515
I396
aI718
aI62
aI326
asI593
(lp516
I406
aI718
aI68
aI330
asI594
(lp517
I416
aI718
aI90
aI330
asI595
(lp518
I426
aI718
aI98
aI330
asI596
(lp519
I442
aI718
aI102
aI328
asI597
(lp520
I452
aI718
aI120
aI326
asI598
(lp521
I468
aI718
aI122
aI326
asI599
(lp522
I480
aI718
aI126
aI326
asI600
(lp523
I498
aI718
aI128
aI326
asI601
(lp524
I510
aI718
aI134
aI330
asI602
(lp525
I514
aI718
aI136
aI332
asI603
(lp526
I532
aI718
aI136
aI338
asI604
(lp527
I542
aI718
aI134
aI346
asI605
(lp528
I548
aI718
aI134
aI348
asI606
(lp529
I548
aI718
aI118
aI356
asI607
(lp530
I550
aI718
aI118
aI364
asI608
(lp531
I550
aI718
aI118
aI380
asI609
(lp532
I554
aI718
aI112
aI380
asI610
(lp533
I554
aI718
aI108
aI388
asI611
(lp534
I556
aI718
aI102
aI388
asI612
(lp535
I560
aI718
aI98
aI388
asI613
(lp536
I568
aI718
aI96
aI386
asI614
(lp537
I566
aI718
aI94
aI382
asI615
(lp538
I568
aI718
aI90
aI378
asI616
(lp539
I574
aI718
aI86
aI378
asI617
(lp540
I576
aI718
aI86
aI372
asI618
(lp541
I580
aI718
aI86
aI366
asI619
(lp542
I586
aI718
aI86
aI360
asI620
(lp543
I594
aI718
aI86
aI354
asI621
(lp544
I604
aI718
aI86
aI350
asI622
(lp545
I616
aI718
aI86
aI342
asI623
(lp546
I624
aI718
aI82
aI338
asI624
(lp547
I634
aI718
aI82
aI338
asI625
(lp548
I640
aI718
aI82
aI338
asI626
(lp549
I646
aI718
aI72
aI338
asI627
(lp550
I654
aI718
aI72
aI338
asI628
(lp551
I660
aI718
aI66
aI346
asI629
(lp552
I662
aI718
aI42
aI346
asI630
(lp553
I672
aI718
aI42
aI346
asI631
(lp554
I678
aI718
aI42
aI346
asI632
(lp555
I682
aI718
aI36
aI348
asI633
(lp556
I688
aI718
aI32
aI346
asI634
(lp557
I692
aI718
aI28
aI344
asI635
(lp558
I710
aI718
aI28
aI340
asI636
(lp559
I710
aI718
aI28
aI336
asI637
(lp560
I716
aI718
aI28
aI322
asI638
(lp561
I718
aI718
aI28
aI310
asI639
(lp562
I722
aI718
aI46
aI302
asI640
(lp563
I728
aI718
aI46
aI292
asI641
(lp564
I728
aI718
aI46
aI272
asI642
(lp565
I730
aI718
aI50
aI258
asI643
(lp566
I732
aI718
aI62
aI244
asI644
(lp567
I740
aI718
aI64
aI234
asI645
(lp568
I748
aI718
aI64
aI204
asI646
(lp569
I752
aI718
aI68
aI182
asI647
(lp570
I762
aI716
aI78
aI170
asI648
(lp571
I768
aI718
aI88
aI158
asI649
(lp572
I770
aI718
aI90
aI150
asI650
(lp573
I774
aI718
aI90
aI138
asI651
(lp574
I770
aI718
aI88
aI126
asI652
(lp575
I764
aI718
aI88
aI106
asI653
(lp576
I770
aI718
aI96
aI84
asI654
(lp577
I772
aI718
aI102
aI66
asI655
(lp578
I774
aI718
aI114
aI64
asI656
(lp579
I778
aI716
aI126
aI48
asI657
(lp580
I778
aI718
aI128
aI32
asI658
(lp581
I774
aI720
aI138
aI24
asI659
(lp582
I772
aI718
aI136
aI22
asI660
(lp583
I770
aI716
aI134
aI20
asI661
(lp584
I770
aI712
aI134
aI16
asI662
(lp585
I768
aI718
aI140
aI12
asI663
(lp586
I772
aI716
aI144
aI10
asI664
(lp587
I772
aI716
aI148
aI8
asI665
(lp588
I774
aI716
aI150
aI8
asI666
(lp589
I774
aI718
aI150
aI10
asI667
(lp590
I772
aI718
aI148
aI10
asI668
(lp591
I772
aI718
aI148
aI6
asI669
(lp592
I772
aI718
aI148
aI6
asI670
(lp593
I772
aI718
aI148
aI6
asI671
(lp594
I772
aI718
aI148
aI6
asI672
(lp595
I770
aI718
aI146
aI6
asI673
(lp596
I768
aI718
aI144
aI6
asI674
(lp597
I768
aI718
aI144
aI6
asI675
(lp598
I766
aI718
aI138
aI2
asI676
(lp599
I764
aI716
aI136
aI0
asI677
(lp600
I764
aI716
aI136
aI0
asI678
(lp601
I764
aI716
aI136
aI0
asI679
(lp602
I766
aI716
aI138
aI0
asI680
(lp603
I766
aI716
aI138
aI0
asI681
(lp604
I768
aI716
aI140
aI0
asI682
(lp605
I770
aI716
aI142
aI0
asI683
(lp606
I772
aI716
aI144
aI0
asI684
(lp607
I772
aI716
aI144
aI0
asI685
(lp608
I774
aI716
aI146
aI0
asI686
(lp609
I778
aI716
aI150
aI0
asI687
(lp610
I784
aI716
aI150
aI0
asI688
(lp611
I788
aI716
aI154
aI0
asI689
(lp612
I790
aI716
aI156
aI0
asI690
(lp613
I794
aI716
aI160
aI0
asI691
(lp614
I794
aI716
aI160
aI0
asI692
(lp615
I794
aI718
aI160
aI2
asI693
(lp616
I794
aI718
aI160
aI2
asI694
(lp617
I796
aI718
aI162
aI8
asI695
(lp618
I796
aI718
aI162
aI8
assg188
F83.54978354978356
sg189
(lp619
I01
aI01
aI01
aI01
aI01
aI01
aI01
aI01
aI01
aI01
aI01
aI01
aI01
aI01
aI01
aI01
aI01
aI01
aI01
aI01
aI01
aI01
aI01
aI01
aI01
aI01
aI01
aI01
aI01
aI01
aI01
aI01
aI01
aI01
aI01
aI01
aI01
aI01
aI01
aI01
aI01
aI01
aI01
aI01
aI01
aI01
aI01
aI01
aI01
aI00
aI01
aI01
aI01
aI01
aI01
aI01
aI00
aI01
aI01
aI00
aI00
aI01
aI01
aI01
aI01
aI01
aI01
aI01
aI00
aI01
aI01
aI01
aI01
aI01
aI01
aI01
aI01
aI01
aI01
aI01
aI01
aI01
aI01
aI01
asg191
(lp620
S'00612'
p621
aS'00613'
p622
aS'00614'
p623
aS'00615'
p624
aS'00616'
p625
aS'00617'
p626
aS'00618'
p627
aS'00619'
p628
aS'00620'
p629
aS'00621'
p630
aS'00622'
p631
aS'00623'
p632
aS'00624'
p633
aS'00625'
p634
aS'00626'
p635
aS'00627'
p636
aS'00628'
p637
aS'00629'
p638
aS'00630'
p639
aS'00631'
p640
aS'00632'
p641
aS'00633'
p642
aS'00634'
p643
aS'00635'
p644
aS'00636'
p645
aS'00637'
p646
aS'00638'
p647
aS'00639'
p648
aS'00640'
p649
aS'00641'
p650
aS'00642'
p651
aS'00643'
p652
aS'00644'
p653
aS'00645'
p654
aS'00646'
p655
aS'00647'
p656
aS'00648'
p657
aS'00649'
p658
aS'00650'
p659
aS'00651'
p660
aS'00652'
p661
aS'00653'
p662
aS'00654'
p663
aS'00655'
p664
aS'00656'
p665
aS'00657'
p666
aS'00658'
p667
aS'00659'
p668
aS'00660'
p669
aS'00661'
p670
aS'00662'
p671
aS'00663'
p672
aS'00664'
p673
aS'00665'
p674
aS'00666'
p675
aS'00667'
p676
aS'00668'
p677
aS'00669'
p678
aS'00670'
p679
aS'00671'
p680
aS'00672'
p681
aS'00673'
p682
aS'00674'
p683
aS'00675'
p684
aS'00676'
p685
aS'00677'
p686
aS'00678'
p687
aS'00679'
p688
aS'00680'
p689
aS'00681'
p690
aS'00682'
p691
aS'00683'
p692
aS'00684'
p693
aS'00685'
p694
aS'00686'
p695
aS'00687'
p696
aS'00688'
p697
aS'00689'
p698
aS'00690'
p699
aS'00691'
p700
aS'00692'
p701
aS'00693'
p702
aS'00694'
p703
aS'00695'
p704
asg209
(lp705
I97
aI19
aI19
aI22
aI27
aI19
aI16
aI15
aI18
aI12
aI9
aI14
aI12
aI12
aI11
aI14
aI15
aI12
aI10
aI15
aI8
aI10
aI10
aI8
aI3
aI5
aI10
aI10
aI3
aI6
aI4
aI4
aI5
aI7
aI4
aI7
aI7
aI7
aI10
aI5
aI2
aI7
aI3
aI4
aI4
aI8
aI8
aI5
aI5
aI3
aI6
aI2
aI4
aI8
aI8
aI10
aI3
aI5
aI7
aI1
aI2
aI10
aI10
aI9
aI8
aI10
aI4
aI6
aI3
aI5
aI5
aI9
aI6
aI6
aI6
aI4
aI9
aI6
aI4
aI2
aI6
aI7
aI4
aI7
asg211
(lp706
I97
aI20
aI21
aI24
aI32
aI22
aI18
aI18
aI23
aI13
aI14
aI14
aI13
aI15
aI11
aI15
aI15
aI13
aI12
aI17
aI9
aI12
aI13
aI10
aI3
aI5
aI12
aI13
aI6
aI10
aI8
aI6
aI8
aI8
aI4
aI9
aI8
aI11
aI10
aI6
aI3
aI7
aI5
aI8
aI5
aI8
aI10
aI9
aI8
aI5
aI8
aI4
aI4
aI9
aI11
aI12
aI5
aI6
aI9
aI2
aI5
aI10
aI14
aI11
aI9
aI12
aI5
aI7
aI7
aI9
aI5
aI9
aI9
aI7
aI8
aI5
aI11
aI7
aI4
aI3
aI7
aI10
aI6
aI8
asg213
(lp707
F567.7534676248133
aF577.0684534784414
aF579.378977871997
aF586.5867369792809
aF594.7638186709074
aF599.8466470690655
aF606.5805799726859
aF614.9504045042983
aF624.94799783662
aF635.411677576042
aF649.8276694632201
aF661.9395742815201
aF670.1522215138885
aF675.1029551112927
aF688.3865193334337
aF695.0712193725187
aF700.8708868258119
aF723.0380349608173
aF731.6310545623388
aF736.8039087844201
aF744.4568489845466
aF754.1352663813037
aF762.0839848730585
aF779.748677459603
aF781.6955929260444
aF793.826177446927
aF801.6008982030896
aF793.7455511686348
aF804.114419718985
aF814.8864951635902
aF820.9750300709517
aF820.7167599117249
aF831.4036324192961
aF855.6003740064634
aF868.9948216186331
aF875.1982632523901
aF880.9086218218097
aF886.0158012134998
aF896.8032114126264
aF903.0991086254044
aF911.8771847129415
aF925.3280499368859
aF934.8818107119209
aF929.1479968228958
aF933.4495165781597
aF945.0375653909214
aF942.8212980199376
aF942.8212980199376
aF942.8212980199376
aF942.8212980199376
aF944.8915281660642
aF944.8915281660642
aF943.7372515695245
aF943.7372515695245
aF943.7372515695245
aF943.7372515695245
aF946.7417810575384
aF946.7417810575384
aF946.7417810575384
aF946.7417810575384
aF946.7417810575384
aF946.7417810575384
aF946.7417810575384
aF952.3864761744572
aF952.3864761744572
aF952.3864761744572
aF952.3864761744572
aF952.3864761744572
aF952.3864761744572
aF952.3864761744572
aF952.3864761744572
aF952.3864761744572
aF952.3864761744572
aF952.3864761744572
aF952.3864761744572
aF956.3534911318095
aF956.3534911318095
aF956.3534911318095
aF956.3534911318095
aF956.3534911318095
aF956.3534911318095
aF956.3534911318095
aF951.869738987431
aF951.869738987431
asg215
(lp708
F65.73431371817918
aF71.34423592694787
aF116.76472069936193
aF111.21151019566275
aF69.8927750200262
aF96.79876032264049
aF115.10864433221339
aF49.040799340956916
aF64.81512169239521
aF79.37883848986453
aF4.123105625617661
aF83.93449827097318
aF54.037024344425184
aF64.03124237432849
aF59.00847396772772
aF38.3275357934736
aF84.40379138403677
aF38.47076812334269
aF11.704699910719626
aF56.0357029044876
aF36.069377593742864
aF46.87216658103186
aF83.21658488546619
aF35.6931365951495
aF77.64663547121665
aF169.09464805250343
aF105.67875850898325
aF102.9417310909429
aF179.10053042914194
aF159.70284906663375
aF92.78469701410896
aF69.40461079784254
aF57.688820407423826
aF127.88275880665071
aF120.03749414245534
aF111.75866856758807
aF79.40403012442127
aF136.56134152826706
aF46.400431032480725
aF60.41522986797286
aF172.66151858477326
aF141.42842712835352
aF115.52488909321661
aF111.8257573191436
aF140.24621207005913
aF162.3884232326923
aF175.025712396779
aF195.34584715319647
aF81.0
aF398.70038876329176
aF135.6502856613284
aF182.87700784953805
aF222.33533232484666
aF193.82982226685345
aF205.0
aF171.04677722775136
aF359.25478424093393
aF104.27847332982968
aF148.21605850919124
aF403.88612256426933
aF625.6364759187239
aF227.90348834539589
aF171.04970037974343
aF150.5257453062432
aF117.15374513859982
aF136.79546776117988
aF130.5450113945378
aF92.80086206496145
aF384.7076812334269
aF112.92475370794483
aF153.39491516996253
aF117.61377470347595
aF200.80089641234176
aF145.52319402761884
aF172.75416058665562
aF188.32153355365392
aF105.0
aF232.01939574095957
aF232.56181973832247
aF246.13207836444238
aF110.0272693471941
aF146.0
aF179.86939706353607
aF222.26560687609768
assI552
(dp709
g2
(dp710
I512
(lp711
I510
aI434
aI450
aI278
asI513
(lp712
I510
aI446
aI450
aI290
asI514
(lp713
I516
aI462
aI452
aI304
asI515
(lp714
I524
aI484
aI462
aI322
asI516
(lp715
I536
aI502
aI474
aI338
asI517
(lp716
I544
aI520
aI480
aI352
asI518
(lp717
I550
aI528
aI478
aI358
asI519
(lp718
I552
aI538
aI478
aI366
asI520
(lp719
I552
aI544
aI478
aI372
asI521
(lp720
I552
aI550
aI478
aI378
asI522
(lp721
I552
aI554
aI478
aI382
asI523
(lp722
I550
aI564
aI470
aI382
asI524
(lp723
I548
aI568
aI470
aI386
asI525
(lp724
I546
aI570
aI468
aI388
asI526
(lp725
I542
aI578
aI454
aI392
asI527
(lp726
I540
aI584
aI452
aI398
asI528
(lp727
I538
aI588
aI450
aI402
asI529
(lp728
I536
aI592
aI448
aI404
asI530
(lp729
I534
aI596
aI446
aI406
asI531
(lp730
I530
aI600
aI440
aI408
asI532
(lp731
I528
aI604
aI438
aI412
asI533
(lp732
I524
aI616
aI428
aI414
asI534
(lp733
I520
aI628
aI424
aI426
asI535
(lp734
I512
aI640
aI416
aI434
asI536
(lp735
I508
aI648
aI408
aI440
asI537
(lp736
I504
aI648
aI404
aI440
asI538
(lp737
I500
aI654
aI396
aI440
asI539
(lp738
I494
aI654
aI390
aI440
asI540
(lp739
I490
aI660
aI384
aI444
asI541
(lp740
I486
aI662
aI380
aI444
asI542
(lp741
I484
aI662
aI376
aI444
asI543
(lp742
I486
aI658
aI374
aI440
asI544
(lp743
I490
aI656
aI374
aI436
asI545
(lp744
I490
aI646
aI374
aI426
asI546
(lp745
I490
aI634
aI372
aI414
asI547
(lp746
I486
aI620
aI366
aI398
asI548
(lp747
I480
aI610
aI350
aI386
asI549
(lp748
I472
aI598
aI346
aI374
asI550
(lp749
I468
aI590
aI324
aI360
asI551
(lp750
I462
aI580
aI318
aI350
asI552
(lp751
I456
aI576
aI312
aI342
asI553
(lp752
I450
aI570
aI304
aI334
asI554
(lp753
I448
aI570
aI302
aI328
asI555
(lp754
I446
aI566
aI300
aI322
asI556
(lp755
I446
aI566
aI300
aI318
asI557
(lp756
I448
aI564
aI300
aI314
asI558
(lp757
I442
aI536
aI294
aI300
asI559
(lp758
I438
aI524
aI284
aI284
asI560
(lp759
I428
aI510
aI270
aI262
asI561
(lp760
I414
aI514
aI250
aI256
asI562
(lp761
I402
aI520
aI236
aI256
asI563
(lp762
I396
aI522
aI220
aI252
asI564
(lp763
I396
aI522
aI218
aI250
asI565
(lp764
I396
aI524
aI218
aI248
asI566
(lp765
I400
aI526
aI218
aI248
asI567
(lp766
I402
aI528
aI218
aI246
asI568
(lp767
I402
aI528
aI216
aI244
asI569
(lp768
I402
aI528
aI212
aI240
asI570
(lp769
I400
aI530
aI206
aI238
asI571
(lp770
I398
aI532
aI202
aI236
asI572
(lp771
I396
aI538
aI196
aI234
asI573
(lp772
I392
aI544
aI184
aI236
asI574
(lp773
I382
aI548
aI170
aI236
asI575
(lp774
I376
aI556
aI160
aI240
asI576
(lp775
I370
aI574
aI146
aI246
asI577
(lp776
I362
aI592
aI132
aI256
asI578
(lp777
I358
aI616
aI118
aI274
asI579
(lp778
I348
aI646
aI94
aI288
asI580
(lp779
I338
aI672
aI78
aI302
asI581
(lp780
I332
aI696
aI50
aI308
asI582
(lp781
I330
aI706
aI46
aI310
asI583
(lp782
I334
aI712
aI42
aI316
asI584
(lp783
I338
aI716
aI32
aI318
asI585
(lp784
I338
aI716
aI32
aI318
asI586
(lp785
I336
aI718
aI24
aI316
asI587
(lp786
I340
aI718
aI20
aI316
asI588
(lp787
I346
aI718
aI40
aI316
asI589
(lp788
I362
aI718
aI48
aI316
asI590
(lp789
I374
aI718
aI60
aI316
asI591
(lp790
I384
aI714
aI60
aI322
asI592
(lp791
I396
aI718
aI62
aI326
asI593
(lp792
I406
aI718
aI68
aI330
asI594
(lp793
I416
aI718
aI90
aI330
asI595
(lp794
I426
aI718
aI98
aI330
asI596
(lp795
I442
aI718
aI102
aI328
asI597
(lp796
I452
aI718
aI120
aI326
asI598
(lp797
I468
aI718
aI122
aI326
asI599
(lp798
I480
aI718
aI126
aI326
asI600
(lp799
I498
aI718
aI128
aI326
asI601
(lp800
I510
aI718
aI134
aI330
asI602
(lp801
I514
aI718
aI136
aI332
asI603
(lp802
I532
aI718
aI136
aI338
asI604
(lp803
I542
aI718
aI134
aI346
asI605
(lp804
I548
aI718
aI134
aI348
asI606
(lp805
I548
aI718
aI118
aI356
asI607
(lp806
I550
aI718
aI118
aI364
asI608
(lp807
I550
aI718
aI118
aI380
asI609
(lp808
I554
aI718
aI112
aI380
asI610
(lp809
I554
aI718
aI108
aI388
asI611
(lp810
I556
aI718
aI102
aI388
asI612
(lp811
I560
aI718
aI98
aI388
asI613
(lp812
I568
aI718
aI96
aI386
asI614
(lp813
I566
aI718
aI94
aI382
asI615
(lp814
I568
aI718
aI90
aI378
asI616
(lp815
I574
aI718
aI86
aI378
asI617
(lp816
I576
aI718
aI86
aI372
asI618
(lp817
I580
aI718
aI86
aI366
asI619
(lp818
I586
aI718
aI86
aI360
asI620
(lp819
I594
aI718
aI86
aI354
asI621
(lp820
I604
aI718
aI86
aI350
asI622
(lp821
I616
aI718
aI86
aI342
asI623
(lp822
I624
aI718
aI82
aI338
asI624
(lp823
I634
aI718
aI82
aI338
asI625
(lp824
I640
aI718
aI82
aI338
asI626
(lp825
I646
aI718
aI72
aI338
asI627
(lp826
I654
aI718
aI72
aI338
asI628
(lp827
I660
aI718
aI66
aI346
asI629
(lp828
I662
aI718
aI42
aI346
asI630
(lp829
I672
aI718
aI42
aI346
asI631
(lp830
I678
aI718
aI42
aI346
asI632
(lp831
I682
aI718
aI36
aI348
asI633
(lp832
I688
aI718
aI32
aI346
asI634
(lp833
I692
aI718
aI28
aI344
asI635
(lp834
I710
aI718
aI28
aI340
asI636
(lp835
I710
aI718
aI28
aI336
asI637
(lp836
I716
aI718
aI28
aI322
asI638
(lp837
I718
aI718
aI28
aI310
asI639
(lp838
I722
aI718
aI46
aI302
asI640
(lp839
I728
aI718
aI46
aI292
asI641
(lp840
I728
aI718
aI46
aI272
asI642
(lp841
I730
aI718
aI50
aI258
asI643
(lp842
I732
aI718
aI62
aI244
asI644
(lp843
I740
aI718
aI64
aI234
asI645
(lp844
I748
aI718
aI64
aI204
asI646
(lp845
I752
aI718
aI68
aI182
asI647
(lp846
I762
aI716
aI78
aI170
asI648
(lp847
I768
aI718
aI88
aI158
asI649
(lp848
I770
aI718
aI90
aI150
asI650
(lp849
I774
aI718
aI90
aI138
asI651
(lp850
I770
aI718
aI88
aI126
asI652
(lp851
I764
aI718
aI88
aI106
asI653
(lp852
I770
aI718
aI96
aI84
asI654
(lp853
I772
aI718
aI102
aI66
asI655
(lp854
I774
aI718
aI114
aI64
asI656
(lp855
I778
aI716
aI126
aI48
asI657
(lp856
I778
aI718
aI128
aI32
asI658
(lp857
I774
aI720
aI138
aI24
asI659
(lp858
I772
aI718
aI136
aI22
asI660
(lp859
I770
aI716
aI134
aI20
asI661
(lp860
I770
aI712
aI134
aI16
asI662
(lp861
I768
aI718
aI140
aI12
asI663
(lp862
I772
aI716
aI144
aI10
asI664
(lp863
I772
aI716
aI148
aI8
asI665
(lp864
I774
aI716
aI150
aI8
asI666
(lp865
I774
aI718
aI150
aI10
asI667
(lp866
I772
aI718
aI148
aI10
asI668
(lp867
I772
aI718
aI148
aI6
asI669
(lp868
I772
aI718
aI148
aI6
asI670
(lp869
I772
aI718
aI148
aI6
asI671
(lp870
I772
aI718
aI148
aI6
asI672
(lp871
I770
aI718
aI146
aI6
asI673
(lp872
I768
aI718
aI144
aI6
asI674
(lp873
I768
aI718
aI144
aI6
asI675
(lp874
I766
aI718
aI138
aI2
asI676
(lp875
I764
aI716
aI136
aI0
asI677
(lp876
I764
aI716
aI136
aI0
asI678
(lp877
I764
aI716
aI136
aI0
asI679
(lp878
I766
aI716
aI138
aI0
asI680
(lp879
I766
aI716
aI138
aI0
asI681
(lp880
I768
aI716
aI140
aI0
asI682
(lp881
I770
aI716
aI142
aI0
asI683
(lp882
I772
aI716
aI144
aI0
asI684
(lp883
I772
aI716
aI144
aI0
asI685
(lp884
I774
aI716
aI146
aI0
asI686
(lp885
I778
aI716
aI150
aI0
asI687
(lp886
I784
aI716
aI150
aI0
asI688
(lp887
I788
aI716
aI154
aI0
asI689
(lp888
I790
aI716
aI156
aI0
asI690
(lp889
I794
aI716
aI160
aI0
asI691
(lp890
I794
aI716
aI160
aI0
asI692
(lp891
I794
aI718
aI160
aI2
asI693
(lp892
I794
aI718
aI160
aI2
asI694
(lp893
I796
aI718
aI162
aI8
asI695
(lp894
I796
aI718
aI162
aI8
assg188
F91.66666666666666
sg189
(lp895
I01
aI01
aI01
aI00
aI00
aI01
aI01
aI01
aI01
aI01
aI01
aI01
aI01
aI01
aI01
aI01
aI01
aI01
aI01
asg191
(lp896
S'00552'
p897
aS'00553'
p898
aS'00554'
p899
aS'00573'
p900
aS'00579'
p901
aS'00580'
p902
aS'00581'
p903
aS'00587'
p904
aS'00589'
p905
aS'00592'
p906
aS'00593'
p907
aS'00595'
p908
aS'00599'
p909
aS'00607'
p910
aS'00610'
p911
aS'00617'
p912
aS'00643'
p913
aS'00662'
p914
aS'00674'
p915
asg209
(lp916
I6
aI1
aI1
aI0
aI0
aI1
aI1
aI1
aI1
aI1
aI1
aI1
aI1
aI1
aI1
aI1
aI1
aI1
aI1
asg211
(lp917
I6
aI1
aI1
aI1
aI1
aI1
aI1
aI1
aI1
aI1
aI1
aI1
aI1
aI1
aI1
aI1
aI1
aI1
aI1
asg213
(lp918
F274.75807540452746
aF277.5103601669675
aF282.630500831032
aF371.65575469781174
aF438.953300477397
aF452.21676218380054
aF479.65404199276793
aF513.8131956265818
aF510.09802979427394
aF514.9951456081892
aF514.5755532475284
aF508.06298822094885
aF528.1855734493323
aF558.5158905528114
aF554.8116797617008
aF599.8466470690655
aF820.7167599117249
aF944.8915281660642
aF946.7417810575384
asg215
(lp919
F67.06713054842886
aF60.03332407921454
aF62.12889826803627
aF492.44085939328795
aF555.4043572029301
aF96.25487000666512
aF106.40018796975878
aF107.81465577554843
aF96.60745312862771
aF221.61678636782008
aF91.43850392476902
aF86.55634003352961
aF74.62573282722254
aF76.32168761236873
aF82.07313811473277
aF88.02272433866155
aF126.53062870309307
aF79.62411694957753
aF85.14693182963201
assI652
(dp920
g2
(dp921
I512
(lp922
I510
aI434
aI450
aI278
asI513
(lp923
I510
aI446
aI450
aI290
asI514
(lp924
I516
aI462
aI452
aI304
asI515
(lp925
I524
aI484
aI462
aI322
asI516
(lp926
I536
aI502
aI474
aI338
asI517
(lp927
I544
aI520
aI480
aI352
asI518
(lp928
I550
aI528
aI478
aI358
asI519
(lp929
I552
aI538
aI478
aI366
asI520
(lp930
I552
aI544
aI478
aI372
asI521
(lp931
I552
aI550
aI478
aI378
asI522
(lp932
I552
aI554
aI478
aI382
asI523
(lp933
I550
aI564
aI470
aI382
asI524
(lp934
I548
aI568
aI470
aI386
asI525
(lp935
I546
aI570
aI468
aI388
asI526
(lp936
I542
aI578
aI454
aI392
asI527
(lp937
I540
aI584
aI452
aI398
asI528
(lp938
I538
aI588
aI450
aI402
asI529
(lp939
I536
aI592
aI448
aI404
asI530
(lp940
I534
aI596
aI446
aI406
asI531
(lp941
I530
aI600
aI440
aI408
asI532
(lp942
I528
aI604
aI438
aI412
asI533
(lp943
I524
aI616
aI428
aI414
asI534
(lp944
I520
aI628
aI424
aI426
asI535
(lp945
I512
aI640
aI416
aI434
asI536
(lp946
I508
aI648
aI408
aI440
asI537
(lp947
I504
aI648
aI404
aI440
asI538
(lp948
I500
aI654
aI396
aI440
asI539
(lp949
I494
aI654
aI390
aI440
asI540
(lp950
I490
aI660
aI384
aI444
asI541
(lp951
I486
aI662
aI380
aI444
asI542
(lp952
I484
aI662
aI376
aI444
asI543
(lp953
I486
aI658
aI374
aI440
asI544
(lp954
I490
aI656
aI374
aI436
asI545
(lp955
I490
aI646
aI374
aI426
asI546
(lp956
I490
aI634
aI372
aI414
asI547
(lp957
I486
aI620
aI366
aI398
asI548
(lp958
I480
aI610
aI350
aI386
asI549
(lp959
I472
aI598
aI346
aI374
asI550
(lp960
I468
aI590
aI324
aI360
asI551
(lp961
I462
aI580
aI318
aI350
asI552
(lp962
I456
aI576
aI312
aI342
asI553
(lp963
I450
aI570
aI304
aI334
asI554
(lp964
I448
aI570
aI302
aI328
asI555
(lp965
I446
aI566
aI300
aI322
asI556
(lp966
I446
aI566
aI300
aI318
asI557
(lp967
I448
aI564
aI300
aI314
asI558
(lp968
I442
aI536
aI294
aI300
asI559
(lp969
I438
aI524
aI284
aI284
asI560
(lp970
I428
aI510
aI270
aI262
asI561
(lp971
I414
aI514
aI250
aI256
asI562
(lp972
I402
aI520
aI236
aI256
asI563
(lp973
I396
aI522
aI220
aI252
asI564
(lp974
I396
aI522
aI218
aI250
asI565
(lp975
I396
aI524
aI218
aI248
asI566
(lp976
I400
aI526
aI218
aI248
asI567
(lp977
I402
aI528
aI218
aI246
asI568
(lp978
I402
aI528
aI216
aI244
asI569
(lp979
I402
aI528
aI212
aI240
asI570
(lp980
I400
aI530
aI206
aI238
asI571
(lp981
I398
aI532
aI202
aI236
asI572
(lp982
I396
aI538
aI196
aI234
asI573
(lp983
I392
aI544
aI184
aI236
asI574
(lp984
I382
aI548
aI170
aI236
asI575
(lp985
I376
aI556
aI160
aI240
asI576
(lp986
I370
aI574
aI146
aI246
asI577
(lp987
I362
aI592
aI132
aI256
asI578
(lp988
I358
aI616
aI118
aI274
asI579
(lp989
I348
aI646
aI94
aI288
asI580
(lp990
I338
aI672
aI78
aI302
asI581
(lp991
I332
aI696
aI50
aI308
asI582
(lp992
I330
aI706
aI46
aI310
asI583
(lp993
I334
aI712
aI42
aI316
asI584
(lp994
I338
aI716
aI32
aI318
asI585
(lp995
I338
aI716
aI32
aI318
asI586
(lp996
I336
aI718
aI24
aI316
asI587
(lp997
I340
aI718
aI20
aI316
asI588
(lp998
I346
aI718
aI40
aI316
asI589
(lp999
I362
aI718
aI48
aI316
asI590
(lp1000
I374
aI718
aI60
aI316
asI591
(lp1001
I384
aI714
aI60
aI322
asI592
(lp1002
I396
aI718
aI62
aI326
asI593
(lp1003
I406
aI718
aI68
aI330
asI594
(lp1004
I416
aI718
aI90
aI330
asI595
(lp1005
I426
aI718
aI98
aI330
asI596
(lp1006
I442
aI718
aI102
aI328
asI597
(lp1007
I452
aI718
aI120
aI326
asI598
(lp1008
I468
aI718
aI122
aI326
asI599
(lp1009
I480
aI718
aI126
aI326
asI600
(lp1010
I498
aI718
aI128
aI326
asI601
(lp1011
I510
aI718
aI134
aI330
asI602
(lp1012
I514
aI718
aI136
aI332
asI603
(lp1013
I532
aI718
aI136
aI338
asI604
(lp1014
I542
aI718
aI134
aI346
asI605
(lp1015
I548
aI718
aI134
aI348
asI606
(lp1016
I548
aI718
aI118
aI356
asI607
(lp1017
I550
aI718
aI118
aI364
asI608
(lp1018
I550
aI718
aI118
aI380
asI609
(lp1019
I554
aI718
aI112
aI380
asI610
(lp1020
I554
aI718
aI108
aI388
asI611
(lp1021
I556
aI718
aI102
aI388
asI612
(lp1022
I560
aI718
aI98
aI388
asI613
(lp1023
I568
aI718
aI96
aI386
asI614
(lp1024
I566
aI718
aI94
aI382
asI615
(lp1025
I568
aI718
aI90
aI378
asI616
(lp1026
I574
aI718
aI86
aI378
asI617
(lp1027
I576
aI718
aI86
aI372
asI618
(lp1028
I580
aI718
aI86
aI366
asI619
(lp1029
I586
aI718
aI86
aI360
asI620
(lp1030
I594
aI718
aI86
aI354
asI621
(lp1031
I604
aI718
aI86
aI350
asI622
(lp1032
I616
aI718
aI86
aI342
asI623
(lp1033
I624
aI718
aI82
aI338
asI624
(lp1034
I634
aI718
aI82
aI338
asI625
(lp1035
I640
aI718
aI82
aI338
asI626
(lp1036
I646
aI718
aI72
aI338
asI627
(lp1037
I654
aI718
aI72
aI338
asI628
(lp1038
I660
aI718
aI66
aI346
asI629
(lp1039
I662
aI718
aI42
aI346
asI630
(lp1040
I672
aI718
aI42
aI346
asI631
(lp1041
I678
aI718
aI42
aI346
asI632
(lp1042
I682
aI718
aI36
aI348
asI633
(lp1043
I688
aI718
aI32
aI346
asI634
(lp1044
I692
aI718
aI28
aI344
asI635
(lp1045
I710
aI718
aI28
aI340
asI636
(lp1046
I710
aI718
aI28
aI336
asI637
(lp1047
I716
aI718
aI28
aI322
asI638
(lp1048
I718
aI718
aI28
aI310
asI639
(lp1049
I722
aI718
aI46
aI302
asI640
(lp1050
I728
aI718
aI46
aI292
asI641
(lp1051
I728
aI718
aI46
aI272
asI642
(lp1052
I730
aI718
aI50
aI258
asI643
(lp1053
I732
aI718
aI62
aI244
asI644
(lp1054
I740
aI718
aI64
aI234
asI645
(lp1055
I748
aI718
aI64
aI204
asI646
(lp1056
I752
aI718
aI68
aI182
asI647
(lp1057
I762
aI716
aI78
aI170
asI648
(lp1058
I768
aI718
aI88
aI158
asI649
(lp1059
I770
aI718
aI90
aI150
asI650
(lp1060
I774
aI718
aI90
aI138
asI651
(lp1061
I770
aI718
aI88
aI126
asI652
(lp1062
I764
aI718
aI88
aI106
asI653
(lp1063
I770
aI718
aI96
aI84
asI654
(lp1064
I772
aI718
aI102
aI66
asI655
(lp1065
I774
aI718
aI114
aI64
asI656
(lp1066
I778
aI716
aI126
aI48
asI657
(lp1067
I778
aI718
aI128
aI32
asI658
(lp1068
I774
aI720
aI138
aI24
asI659
(lp1069
I772
aI718
aI136
aI22
asI660
(lp1070
I770
aI716
aI134
aI20
asI661
(lp1071
I770
aI712
aI134
aI16
asI662
(lp1072
I768
aI718
aI140
aI12
asI663
(lp1073
I772
aI716
aI144
aI10
asI664
(lp1074
I772
aI716
aI148
aI8
asI665
(lp1075
I774
aI716
aI150
aI8
asI666
(lp1076
I774
aI718
aI150
aI10
asI667
(lp1077
I772
aI718
aI148
aI10
asI668
(lp1078
I772
aI718
aI148
aI6
asI669
(lp1079
I772
aI718
aI148
aI6
asI670
(lp1080
I772
aI718
aI148
aI6
asI671
(lp1081
I772
aI718
aI148
aI6
asI672
(lp1082
I770
aI718
aI146
aI6
asI673
(lp1083
I768
aI718
aI144
aI6
asI674
(lp1084
I768
aI718
aI144
aI6
asI675
(lp1085
I766
aI718
aI138
aI2
asI676
(lp1086
I764
aI716
aI136
aI0
asI677
(lp1087
I764
aI716
aI136
aI0
asI678
(lp1088
I764
aI716
aI136
aI0
asI679
(lp1089
I766
aI716
aI138
aI0
asI680
(lp1090
I766
aI716
aI138
aI0
asI681
(lp1091
I768
aI716
aI140
aI0
asI682
(lp1092
I770
aI716
aI142
aI0
asI683
(lp1093
I772
aI716
aI144
aI0
asI684
(lp1094
I772
aI716
aI144
aI0
asI685
(lp1095
I774
aI716
aI146
aI0
asI686
(lp1096
I778
aI716
aI150
aI0
asI687
(lp1097
I784
aI716
aI150
aI0
asI688
(lp1098
I788
aI716
aI154
aI0
asI689
(lp1099
I790
aI716
aI156
aI0
asI690
(lp1100
I794
aI716
aI160
aI0
asI691
(lp1101
I794
aI716
aI160
aI0
asI692
(lp1102
I794
aI718
aI160
aI2
asI693
(lp1103
I794
aI718
aI160
aI2
asI694
(lp1104
I796
aI718
aI162
aI8
asI695
(lp1105
I796
aI718
aI162
aI8
assg188
F96.44549763033176
sg189
(lp1106
I01
aI01
aI01
aI01
aI01
aI01
aI01
aI01
aI01
aI01
aI01
aI01
aI01
aI01
aI01
aI01
aI01
aI01
aI01
aI01
aI01
aI01
aI01
aI01
aI01
aI01
aI01
aI01
aI01
aI01
aI01
aI01
aI01
aI01
aI01
aI01
aI01
aI01
aI01
aI01
aI01
aI01
aI01
aI01
asg191
(lp1107
S'00652'
p1108
aS'00653'
p1109
aS'00654'
p1110
aS'00655'
p1111
aS'00656'
p1112
aS'00657'
p1113
aS'00658'
p1114
aS'00659'
p1115
aS'00660'
p1116
aS'00661'
p1117
aS'00662'
p1118
aS'00663'
p1119
aS'00664'
p1120
aS'00665'
p1121
aS'00666'
p1122
aS'00667'
p1123
aS'00668'
p1124
aS'00669'
p1125
aS'00670'
p1126
aS'00671'
p1127
aS'00672'
p1128
aS'00673'
p1129
aS'00674'
p1130
aS'00675'
p1131
aS'00676'
p1132
aS'00677'
p1133
aS'00678'
p1134
aS'00679'
p1135
aS'00680'
p1136
aS'00681'
p1137
aS'00682'
p1138
aS'00683'
p1139
aS'00684'
p1140
aS'00685'
p1141
aS'00686'
p1142
aS'00687'
p1143
aS'00688'
p1144
aS'00689'
p1145
aS'00690'
p1146
aS'00691'
p1147
aS'00692'
p1148
aS'00693'
p1149
aS'00694'
p1150
aS'00695'
p1151
asg209
(lp1152
I80
aI27
aI19
aI24
aI22
aI21
aI10
aI11
aI10
aI13
aI5
aI4
aI5
aI4
aI3
aI6
aI5
aI8
aI9
aI5
aI9
aI4
aI7
aI2
aI2
aI1
aI6
aI7
aI9
aI3
aI2
aI4
aI3
aI5
aI6
aI6
aI9
aI3
aI5
aI7
aI3
aI2
aI4
aI7
asg211
(lp1153
I80
aI27
aI20
aI24
aI22
aI22
aI11
aI11
aI11
aI13
aI5
aI4
aI5
aI5
aI3
aI6
aI5
aI8
aI10
aI5
aI11
aI5
aI7
aI2
aI3
aI1
aI6
aI7
aI11
aI3
aI2
aI4
aI3
aI5
aI7
aI6
aI10
aI3
aI6
aI7
aI3
aI2
aI4
aI7
asg213
(lp1154
F911.8771847129415
aF925.3280499368859
aF934.8818107119209
aF929.1479968228958
aF933.4495165781597
aF945.0375653909214
aF942.8212980199376
aF942.8212980199376
aF942.8212980199376
aF942.8212980199376
aF944.8915281660642
aF944.8915281660642
aF943.7372515695245
aF943.7372515695245
aF943.7372515695245
aF943.7372515695245
aF946.7417810575384
aF946.7417810575384
aF946.7417810575384
aF946.7417810575384
aF946.7417810575384
aF946.7417810575384
aF946.7417810575384
aF952.3864761744572
aF952.3864761744572
aF952.3864761744572
aF952.3864761744572
aF952.3864761744572
aF952.3864761744572
aF952.3864761744572
aF952.3864761744572
aF952.3864761744572
aF952.3864761744572
aF952.3864761744572
aF952.3864761744572
aF956.3534911318095
aF956.3534911318095
aF956.3534911318095
aF956.3534911318095
aF956.3534911318095
aF956.3534911318095
aF956.3534911318095
aF951.869738987431
aF951.869738987431
asg215
(lp1155
F90.78546139112804
aF47.53945729601885
aF87.72684879784524
aF45.880278987817846
aF45.69463863518345
aF77.52418977325722
aF92.45539465060976
aF88.60022573334675
aF25.553864678361276
aF53.75872022286245
aF77.3692445355388
aF132.00378782444085
aF128.0
aF69.05070600652827
aF133.15404612703287
aF143.8923208513922
aF39.824615503479755
aF56.586217403180434
aF121.8400590938793
aF92.84934033152847
aF85.42833253669417
aF29.410882339705484
aF44.91102314577124
aF105.01904589168576
aF158.927656498169
aF223.76103324752503
aF98.68130522039117
aF137.7679207943562
aF133.8992158304148
aF206.92993983471797
aF234.71045992882378
aF120.20815280171308
aF95.42536350467836
aF108.46197490364999
aF124.31009613060397
aF61.40032573203501
aF69.12307863514182
aF167.2423391369542
aF46.75467891024384
aF63.324560795950255
aF219.4196891803468
aF123.71337841963576
aF102.25947388873072
aF81.27115109311545
assI592
(dp1156
g2
(dp1157
I512
(lp1158
I510
aI434
aI450
aI278
asI513
(lp1159
I510
aI446
aI450
aI290
asI514
(lp1160
I516
aI462
aI452
aI304
asI515
(lp1161
I524
aI484
aI462
aI322
asI516
(lp1162
I536
aI502
aI474
aI338
asI517
(lp1163
I544
aI520
aI480
aI352
asI518
(lp1164
I550
aI528
aI478
aI358
asI519
(lp1165
I552
aI538
aI478
aI366
asI520
(lp1166
I552
aI544
aI478
aI372
asI521
(lp1167
I552
aI550
aI478
aI378
asI522
(lp1168
I552
aI554
aI478
aI382
asI523
(lp1169
I550
aI564
aI470
aI382
asI524
(lp1170
I548
aI568
aI470
aI386
asI525
(lp1171
I546
aI570
aI468
aI388
asI526
(lp1172
I542
aI578
aI454
aI392
asI527
(lp1173
I540
aI584
aI452
aI398
asI528
(lp1174
I538
aI588
aI450
aI402
asI529
(lp1175
I536
aI592
aI448
aI404
asI530
(lp1176
I534
aI596
aI446
aI406
asI531
(lp1177
I530
aI600
aI440
aI408
asI532
(lp1178
I528
aI604
aI438
aI412
asI533
(lp1179
I524
aI616
aI428
aI414
asI534
(lp1180
I520
aI628
aI424
aI426
asI535
(lp1181
I512
aI640
aI416
aI434
asI536
(lp1182
I508
aI648
aI408
aI440
asI537
(lp1183
I504
aI648
aI404
aI440
asI538
(lp1184
I500
aI654
aI396
aI440
asI539
(lp1185
I494
aI654
aI390
aI440
asI540
(lp1186
I490
aI660
aI384
aI444
asI541
(lp1187
I486
aI662
aI380
aI444
asI542
(lp1188
I484
aI662
aI376
aI444
asI543
(lp1189
I486
aI658
aI374
aI440
asI544
(lp1190
I490
aI656
aI374
aI436
asI545
(lp1191
I490
aI646
aI374
aI426
asI546
(lp1192
I490
aI634
aI372
aI414
asI547
(lp1193
I486
aI620
aI366
aI398
asI548
(lp1194
I480
aI610
aI350
aI386
asI549
(lp1195
I472
aI598
aI346
aI374
asI550
(lp1196
I468
aI590
aI324
aI360
asI551
(lp1197
I462
aI580
aI318
aI350
asI552
(lp1198
I456
aI576
aI312
aI342
asI553
(lp1199
I450
aI570
aI304
aI334
asI554
(lp1200
I448
aI570
aI302
aI328
asI555
(lp1201
I446
aI566
aI300
aI322
asI556
(lp1202
I446
aI566
aI300
aI318
asI557
(lp1203
I448
aI564
aI300
aI314
asI558
(lp1204
I442
aI536
aI294
aI300
asI559
(lp1205
I438
aI524
aI284
aI284
asI560
(lp1206
I428
aI510
aI270
aI262
asI561
(lp1207
I414
aI514
aI250
aI256
asI562
(lp1208
I402
aI520
aI236
aI256
asI563
(lp1209
I396
aI522
aI220
aI252
asI564
(lp1210
I396
aI522
aI218
aI250
asI565
(lp1211
I396
aI524
aI218
aI248
asI566
(lp1212
I400
aI526
aI218
aI248
asI567
(lp1213
I402
aI528
aI218
aI246
asI568
(lp1214
I402
aI528
aI216
aI244
asI569
(lp1215
I402
aI528
aI212
aI240
asI570
(lp1216
I400
aI530
aI206
aI238
asI571
(lp1217
I398
aI532
aI202
aI236
asI572
(lp1218
I396
aI538
aI196
aI234
asI573
(lp1219
I392
aI544
aI184
aI236
asI574
(lp1220
I382
aI548
aI170
aI236
asI575
(lp1221
I376
aI556
aI160
aI240
asI576
(lp1222
I370
aI574
aI146
aI246
asI577
(lp1223
I362
aI592
aI132
aI256
asI578
(lp1224
I358
aI616
aI118
aI274
asI579
(lp1225
I348
aI646
aI94
aI288
asI580
(lp1226
I338
aI672
aI78
aI302
asI581
(lp1227
I332
aI696
aI50
aI308
asI582
(lp1228
I330
aI706
aI46
aI310
asI583
(lp1229
I334
aI712
aI42
aI316
asI584
(lp1230
I338
aI716
aI32
aI318
asI585
(lp1231
I338
aI716
aI32
aI318
asI586
(lp1232
I336
aI718
aI24
aI316
asI587
(lp1233
I340
aI718
aI20
aI316
asI588
(lp1234
I346
aI718
aI40
aI316
asI589
(lp1235
I362
aI718
aI48
aI316
asI590
(lp1236
I374
aI718
aI60
aI316
asI591
(lp1237
I384
aI714
aI60
aI322
asI592
(lp1238
I396
aI718
aI62
aI326
asI593
(lp1239
I406
aI718
aI68
aI330
asI594
(lp1240
I416
aI718
aI90
aI330
asI595
(lp1241
I426
aI718
aI98
aI330
asI596
(lp1242
I442
aI718
aI102
aI328
asI597
(lp1243
I452
aI718
aI120
aI326
asI598
(lp1244
I468
aI718
aI122
aI326
asI599
(lp1245
I480
aI718
aI126
aI326
asI600
(lp1246
I498
aI718
aI128
aI326
asI601
(lp1247
I510
aI718
aI134
aI330
asI602
(lp1248
I514
aI718
aI136
aI332
asI603
(lp1249
I532
aI718
aI136
aI338
asI604
(lp1250
I542
aI718
aI134
aI346
asI605
(lp1251
I548
aI718
aI134
aI348
asI606
(lp1252
I548
aI718
aI118
aI356
asI607
(lp1253
I550
aI718
aI118
aI364
asI608
(lp1254
I550
aI718
aI118
aI380
asI609
(lp1255
I554
aI718
aI112
aI380
asI610
(lp1256
I554
aI718
aI108
aI388
asI611
(lp1257
I556
aI718
aI102
aI388
asI612
(lp1258
I560
aI718
aI98
aI388
asI613
(lp1259
I568
aI718
aI96
aI386
asI614
(lp1260
I566
aI718
aI94
aI382
asI615
(lp1261
I568
aI718
aI90
aI378
asI616
(lp1262
I574
aI718
aI86
aI378
asI617
(lp1263
I576
aI718
aI86
aI372
asI618
(lp1264
I580
aI718
aI86
aI366
asI619
(lp1265
I586
aI718
aI86
aI360
asI620
(lp1266
I594
aI718
aI86
aI354
asI621
(lp1267
I604
aI718
aI86
aI350
asI622
(lp1268
I616
aI718
aI86
aI342
asI623
(lp1269
I624
aI718
aI82
aI338
asI624
(lp1270
I634
aI718
aI82
aI338
asI625
(lp1271
I640
aI718
aI82
aI338
asI626
(lp1272
I646
aI718
aI72
aI338
asI627
(lp1273
I654
aI718
aI72
aI338
asI628
(lp1274
I660
aI718
aI66
aI346
asI629
(lp1275
I662
aI718
aI42
aI346
asI630
(lp1276
I672
aI718
aI42
aI346
asI631
(lp1277
I678
aI718
aI42
aI346
asI632
(lp1278
I682
aI718
aI36
aI348
asI633
(lp1279
I688
aI718
aI32
aI346
asI634
(lp1280
I692
aI718
aI28
aI344
asI635
(lp1281
I710
aI718
aI28
aI340
asI636
(lp1282
I710
aI718
aI28
aI336
asI637
(lp1283
I716
aI718
aI28
aI322
asI638
(lp1284
I718
aI718
aI28
aI310
asI639
(lp1285
I722
aI718
aI46
aI302
asI640
(lp1286
I728
aI718
aI46
aI292
asI641
(lp1287
I728
aI718
aI46
aI272
asI642
(lp1288
I730
aI718
aI50
aI258
asI643
(lp1289
I732
aI718
aI62
aI244
asI644
(lp1290
I740
aI718
aI64
aI234
asI645
(lp1291
I748
aI718
aI64
aI204
asI646
(lp1292
I752
aI718
aI68
aI182
asI647
(lp1293
I762
aI716
aI78
aI170
asI648
(lp1294
I768
aI718
aI88
aI158
asI649
(lp1295
I770
aI718
aI90
aI150
asI650
(lp1296
I774
aI718
aI90
aI138
asI651
(lp1297
I770
aI718
aI88
aI126
asI652
(lp1298
I764
aI718
aI88
aI106
asI653
(lp1299
I770
aI718
aI96
aI84
asI654
(lp1300
I772
aI718
aI102
aI66
asI655
(lp1301
I774
aI718
aI114
aI64
asI656
(lp1302
I778
aI716
aI126
aI48
asI657
(lp1303
I778
aI718
aI128
aI32
asI658
(lp1304
I774
aI720
aI138
aI24
asI659
(lp1305
I772
aI718
aI136
aI22
asI660
(lp1306
I770
aI716
aI134
aI20
asI661
(lp1307
I770
aI712
aI134
aI16
asI662
(lp1308
I768
aI718
aI140
aI12
asI663
(lp1309
I772
aI716
aI144
aI10
asI664
(lp1310
I772
aI716
aI148
aI8
asI665
(lp1311
I774
aI716
aI150
aI8
asI666
(lp1312
I774
aI718
aI150
aI10
asI667
(lp1313
I772
aI718
aI148
aI10
asI668
(lp1314
I772
aI718
aI148
aI6
asI669
(lp1315
I772
aI718
aI148
aI6
asI670
(lp1316
I772
aI718
aI148
aI6
asI671
(lp1317
I772
aI718
aI148
aI6
asI672
(lp1318
I770
aI718
aI146
aI6
asI673
(lp1319
I768
aI718
aI144
aI6
asI674
(lp1320
I768
aI718
aI144
aI6
asI675
(lp1321
I766
aI718
aI138
aI2
asI676
(lp1322
I764
aI716
aI136
aI0
asI677
(lp1323
I764
aI716
aI136
aI0
asI678
(lp1324
I764
aI716
aI136
aI0
asI679
(lp1325
I766
aI716
aI138
aI0
asI680
(lp1326
I766
aI716
aI138
aI0
asI681
(lp1327
I768
aI716
aI140
aI0
asI682
(lp1328
I770
aI716
aI142
aI0
asI683
(lp1329
I772
aI716
aI144
aI0
asI684
(lp1330
I772
aI716
aI144
aI0
asI685
(lp1331
I774
aI716
aI146
aI0
asI686
(lp1332
I778
aI716
aI150
aI0
asI687
(lp1333
I784
aI716
aI150
aI0
asI688
(lp1334
I788
aI716
aI154
aI0
asI689
(lp1335
I790
aI716
aI156
aI0
asI690
(lp1336
I794
aI716
aI160
aI0
asI691
(lp1337
I794
aI716
aI160
aI0
asI692
(lp1338
I794
aI718
aI160
aI2
asI693
(lp1339
I794
aI718
aI160
aI2
asI694
(lp1340
I796
aI718
aI162
aI8
asI695
(lp1341
I796
aI718
aI162
aI8
assg188
F84.03908794788273
sg189
(lp1342
I01
aI01
aI01
aI01
aI01
aI01
aI01
aI01
aI01
aI01
aI00
aI01
aI01
aI01
aI01
aI01
aI01
aI01
aI01
aI01
aI01
aI01
aI00
aI01
aI01
aI01
aI01
aI01
aI00
aI01
aI01
aI01
aI01
aI01
aI01
aI01
aI01
aI01
aI01
aI01
aI01
aI01
aI00
aI01
aI01
aI01
aI01
aI01
aI01
aI01
aI01
aI01
aI01
aI00
aI00
aI01
aI00
aI01
aI01
aI01
aI01
aI01
aI01
aI00
aI01
aI01
aI01
aI00
aI01
aI01
aI01
aI01
aI01
aI01
aI01
aI01
aI01
aI01
aI01
aI01
aI01
aI01
aI01
aI01
asg191
(lp1343
S'00592'
p1344
aS'00593'
p1345
aS'00594'
p1346
aS'00595'
p1347
aS'00596'
p1348
aS'00597'
p1349
aS'00598'
p1350
aS'00599'
p1351
aS'00600'
p1352
aS'00601'
p1353
aS'00602'
p1354
aS'00603'
p1355
aS'00604'
p1356
aS'00605'
p1357
aS'00606'
p1358
aS'00607'
p1359
aS'00608'
p1360
aS'00609'
p1361
aS'00610'
p1362
aS'00611'
p1363
aS'00612'
p1364
aS'00613'
p1365
aS'00615'
p1366
aS'00616'
p1367
aS'00617'
p1368
aS'00618'
p1369
aS'00619'
p1370
aS'00620'
p1371
aS'00621'
p1372
aS'00623'
p1373
aS'00625'
p1374
aS'00626'
p1375
aS'00627'
p1376
aS'00628'
p1377
aS'00631'
p1378
aS'00632'
p1379
aS'00635'
p1380
aS'00636'
p1381
aS'00637'
p1382
aS'00638'
p1383
aS'00639'
p1384
aS'00641'
p1385
aS'00642'
p1386
aS'00643'
p1387
aS'00644'
p1388
aS'00645'
p1389
aS'00646'
p1390
aS'00648'
p1391
aS'00649'
p1392
aS'00650'
p1393
aS'00651'
p1394
aS'00652'
p1395
aS'00653'
p1396
aS'00654'
p1397
aS'00655'
p1398
aS'00656'
p1399
aS'00657'
p1400
aS'00659'
p1401
aS'00660'
p1402
aS'00662'
p1403
aS'00663'
p1404
aS'00665'
p1405
aS'00666'
p1406
aS'00667'
p1407
aS'00668'
p1408
aS'00669'
p1409
aS'00670'
p1410
aS'00673'
p1411
aS'00674'
p1412
aS'00675'
p1413
aS'00676'
p1414
aS'00677'
p1415
aS'00678'
p1416
aS'00679'
p1417
aS'00681'
p1418
aS'00682'
p1419
aS'00684'
p1420
aS'00685'
p1421
aS'00686'
p1422
aS'00687'
p1423
aS'00688'
p1424
aS'00689'
p1425
aS'00690'
p1426
aS'00695'
p1427
asg209
(lp1428
I49
aI13
aI11
aI10
aI8
aI10
aI7
aI8
aI6
aI2
aI1
aI3
aI2
aI1
aI1
aI2
aI3
aI3
aI1
aI2
aI2
aI2
aI0
aI2
aI2
aI2
aI2
aI1
aI1
aI2
aI1
aI1
aI2
aI3
aI1
aI1
aI2
aI2
aI2
aI2
aI1
aI1
aI0
aI3
aI1
aI1
aI3
aI3
aI2
aI3
aI1
aI1
aI2
aI2
aI0
aI2
aI3
aI6
aI2
aI1
aI2
aI2
aI2
aI1
aI3
aI3
aI3
aI0
aI2
aI1
aI2
aI1
aI2
aI1
aI2
aI3
aI2
aI1
aI1
aI1
aI3
aI4
aI1
aI1
asg211
(lp1429
I49
aI13
aI11
aI10
aI9
aI10
aI7
aI8
aI7
aI5
aI2
aI3
aI6
aI1
aI1
aI2
aI3
aI5
aI2
aI2
aI2
aI2
aI1
aI2
aI4
aI2
aI3
aI1
aI2
aI2
aI1
aI2
aI2
aI3
aI1
aI2
aI3
aI2
aI3
aI3
aI3
aI1
aI1
aI5
aI2
aI1
aI3
aI4
aI4
aI3
aI1
aI1
aI2
aI4
aI1
aI2
aI6
aI6
aI2
aI1
aI2
aI2
aI3
aI3
aI3
aI3
aI3
aI1
aI2
aI2
aI4
aI2
aI4
aI1
aI2
aI3
aI2
aI1
aI1
aI2
aI3
aI4
aI1
aI1
asg213
(lp1430
F514.9951456081892
aF514.5755532475284
aF506.77411141454337
aF508.06298822094885
aF517.3973328110611
aF513.7003017324402
aF522.8575331770596
aF528.1855734493323
aF539.0398872068745
aF540.296215052447
aF540.2591970526739
aF548.8314859772534
aF552.1304193757123
aF555.2440904683273
aF562.0889609305631
aF558.5158905528114
aF548.5143571502938
aF556.4242985348501
aF554.8116797617008
aF561.2628617679954
aF567.7534676248133
aF577.0684534784414
aF586.5867369792809
aF594.7638186709074
aF599.8466470690655
aF606.5805799726859
aF614.9504045042983
aF624.94799783662
aF635.411677576042
aF661.9395742815201
aF675.1029551112927
aF688.3865193334337
aF695.0712193725187
aF700.8708868258119
aF736.8039087844201
aF744.4568489845466
aF779.748677459603
aF781.6955929260444
aF793.826177446927
aF801.6008982030896
aF793.7455511686348
aF814.8864951635902
aF820.9750300709517
aF820.7167599117249
aF831.4036324192961
aF855.6003740064634
aF868.9948216186331
aF880.9086218218097
aF886.0158012134998
aF896.8032114126264
aF903.0991086254044
aF911.8771847129415
aF925.3280499368859
aF934.8818107119209
aF929.1479968228958
aF933.4495165781597
aF945.0375653909214
aF942.8212980199376
aF942.8212980199376
aF944.8915281660642
aF944.8915281660642
aF943.7372515695245
aF943.7372515695245
aF943.7372515695245
aF946.7417810575384
aF946.7417810575384
aF946.7417810575384
aF946.7417810575384
aF946.7417810575384
aF952.3864761744572
aF952.3864761744572
aF952.3864761744572
aF952.3864761744572
aF952.3864761744572
aF952.3864761744572
aF952.3864761744572
aF952.3864761744572
aF952.3864761744572
aF952.3864761744572
aF956.3534911318095
aF956.3534911318095
aF956.3534911318095
aF956.3534911318095
aF951.869738987431
asg215
(lp1431
F89.67719888578144
aF55.10898293381942
aF96.02083107326243
aF43.174066289845804
aF82.76472678623425
aF15.524174696260024
aF76.05918747922567
aF64.76109943476871
aF79.17701686727027
aF197.0913493789111
aF277.71388153997634
aF147.14618581533128
aF184.66456075814872
aF99.31767214348109
aF216.9331694324314
aF8.06225774829855
aF37.21558813185679
aF177.04519197086375
aF182.20043907740728
aF106.77546534667971
aF85.14693182963201
aF138.70832707519762
aF367.14710948065493
aF20.248456731316587
aF59.413803110051795
aF85.70297544426332
aF135.36986370680884
aF20.591260281974
aF422.8344829835902
aF132.81566172707193
aF111.35977729862789
aF179.12007146045917
aF34.17601498127012
aF179.53551180755298
aF62.0
aF116.1077086157504
aF159.0125781188394
aF70.43436661176133
aF209.77368757782756
aF129.0658746532173
aF16.278820596099706
aF133.06013678032951
aF452.0011061933367
aF36.89173349139343
aF216.3631207022121
aF335.41168733364077
aF135.67977004697494
aF96.46242791885346
aF137.0875632579411
aF25.709920264364882
aF125.2078272313676
aF79.81227975693966
aF243.1810025474852
aF502.3594330755619
aF493.0496932358847
aF171.40595088852663
aF403.27286048034523
aF207.53794833716555
aF219.14607000811125
aF113.07077429645558
aF66.30987860040162
aF211.72859986312668
aF153.8440769090575
aF516.4929815592851
aF60.29925372672534
aF147.80054127099805
aF157.2800050864699
aF611.57174558673
aF217.947241322298
aF367.1103376370652
aF254.678228358845
aF159.1257364476281
aF165.41463055002117
aF127.88275880665071
aF227.2003521124032
aF159.0125781188394
aF222.0
aF238.8723508487326
aF199.8499437077729
aF115.52056094046635
aF144.91721774861674
aF174.7512517837855
aF202.76340892774513
aF143.96180048887967
assI532
(dp1432
g2
(dp1433
I512
(lp1434
I510
aI434
aI450
aI278
asI513
(lp1435
I510
aI446
aI450
aI290
asI514
(lp1436
I516
aI462
aI452
aI304
asI515
(lp1437
I524
aI484
aI462
aI322
asI516
(lp1438
I536
aI502
aI474
aI338
asI517
(lp1439
I544
aI520
aI480
aI352
asI518
(lp1440
I550
aI528
aI478
aI358
asI519
(lp1441
I552
aI538
aI478
aI366
asI520
(lp1442
I552
aI544
aI478
aI372
asI521
(lp1443
I552
aI550
aI478
aI378
asI522
(lp1444
I552
aI554
aI478
aI382
asI523
(lp1445
I550
aI564
aI470
aI382
asI524
(lp1446
I548
aI568
aI470
aI386
asI525
(lp1447
I546
aI570
aI468
aI388
asI526
(lp1448
I542
aI578
aI454
aI392
asI527
(lp1449
I540
aI584
aI452
aI398
asI528
(lp1450
I538
aI588
aI450
aI402
asI529
(lp1451
I536
aI592
aI448
aI404
asI530
(lp1452
I534
aI596
aI446
aI406
asI531
(lp1453
I530
aI600
aI440
aI408
asI532
(lp1454
I528
aI604
aI438
aI412
asI533
(lp1455
I524
aI616
aI428
aI414
asI534
(lp1456
I520
aI628
aI424
aI426
asI535
(lp1457
I512
aI640
aI416
aI434
asI536
(lp1458
I508
aI648
aI408
aI440
asI537
(lp1459
I504
aI648
aI404
aI440
asI538
(lp1460
I500
aI654
aI396
aI440
asI539
(lp1461
I494
aI654
aI390
aI440
asI540
(lp1462
I490
aI660
aI384
aI444
asI541
(lp1463
I486
aI662
aI380
aI444
asI542
(lp1464
I484
aI662
aI376
aI444
asI543
(lp1465
I486
aI658
aI374
aI440
asI544
(lp1466
I490
aI656
aI374
aI436
asI545
(lp1467
I490
aI646
aI374
aI426
asI546
(lp1468
I490
aI634
aI372
aI414
asI547
(lp1469
I486
aI620
aI366
aI398
asI548
(lp1470
I480
aI610
aI350
aI386
asI549
(lp1471
I472
aI598
aI346
aI374
asI550
(lp1472
I468
aI590
aI324
aI360
asI551
(lp1473
I462
aI580
aI318
aI350
asI552
(lp1474
I456
aI576
aI312
aI342
asI553
(lp1475
I450
aI570
aI304
aI334
asI554
(lp1476
I448
aI570
aI302
aI328
asI555
(lp1477
I446
aI566
aI300
aI322
asI556
(lp1478
I446
aI566
aI300
aI318
asI557
(lp1479
I448
aI564
aI300
aI314
asI558
(lp1480
I442
aI536
aI294
aI300
asI559
(lp1481
I438
aI524
aI284
aI284
asI560
(lp1482
I428
aI510
aI270
aI262
asI561
(lp1483
I414
aI514
aI250
aI256
asI562
(lp1484
I402
aI520
aI236
aI256
asI563
(lp1485
I396
aI522
aI220
aI252
asI564
(lp1486
I396
aI522
aI218
aI250
asI565
(lp1487
I396
aI524
aI218
aI248
asI566
(lp1488
I400
aI526
aI218
aI248
asI567
(lp1489
I402
aI528
aI218
aI246
asI568
(lp1490
I402
aI528
aI216
aI244
asI569
(lp1491
I402
aI528
aI212
aI240
asI570
(lp1492
I400
aI530
aI206
aI238
asI571
(lp1493
I398
aI532
aI202
aI236
asI572
(lp1494
I396
aI538
aI196
aI234
asI573
(lp1495
I392
aI544
aI184
aI236
asI574
(lp1496
I382
aI548
aI170
aI236
asI575
(lp1497
I376
aI556
aI160
aI240
asI576
(lp1498
I370
aI574
aI146
aI246
asI577
(lp1499
I362
aI592
aI132
aI256
asI578
(lp1500
I358
aI616
aI118
aI274
asI579
(lp1501
I348
aI646
aI94
aI288
asI580
(lp1502
I338
aI672
aI78
aI302
asI581
(lp1503
I332
aI696
aI50
aI308
asI582
(lp1504
I330
aI706
aI46
aI310
asI583
(lp1505
I334
aI712
aI42
aI316
asI584
(lp1506
I338
aI716
aI32
aI318
asI585
(lp1507
I338
aI716
aI32
aI318
asI586
(lp1508
I336
aI718
aI24
aI316
asI587
(lp1509
I340
aI718
aI20
aI316
asI588
(lp1510
I346
aI718
aI40
aI316
asI589
(lp1511
I362
aI718
aI48
aI316
asI590
(lp1512
I374
aI718
aI60
aI316
asI591
(lp1513
I384
aI714
aI60
aI322
asI592
(lp1514
I396
aI718
aI62
aI326
asI593
(lp1515
I406
aI718
aI68
aI330
asI594
(lp1516
I416
aI718
aI90
aI330
asI595
(lp1517
I426
aI718
aI98
aI330
asI596
(lp1518
I442
aI718
aI102
aI328
asI597
(lp1519
I452
aI718
aI120
aI326
asI598
(lp1520
I468
aI718
aI122
aI326
asI599
(lp1521
I480
aI718
aI126
aI326
asI600
(lp1522
I498
aI718
aI128
aI326
asI601
(lp1523
I510
aI718
aI134
aI330
asI602
(lp1524
I514
aI718
aI136
aI332
asI603
(lp1525
I532
aI718
aI136
aI338
asI604
(lp1526
I542
aI718
aI134
aI346
asI605
(lp1527
I548
aI718
aI134
aI348
asI606
(lp1528
I548
aI718
aI118
aI356
asI607
(lp1529
I550
aI718
aI118
aI364
asI608
(lp1530
I550
aI718
aI118
aI380
asI609
(lp1531
I554
aI718
aI112
aI380
asI610
(lp1532
I554
aI718
aI108
aI388
asI611
(lp1533
I556
aI718
aI102
aI388
asI612
(lp1534
I560
aI718
aI98
aI388
asI613
(lp1535
I568
aI718
aI96
aI386
asI614
(lp1536
I566
aI718
aI94
aI382
asI615
(lp1537
I568
aI718
aI90
aI378
asI616
(lp1538
I574
aI718
aI86
aI378
asI617
(lp1539
I576
aI718
aI86
aI372
asI618
(lp1540
I580
aI718
aI86
aI366
asI619
(lp1541
I586
aI718
aI86
aI360
asI620
(lp1542
I594
aI718
aI86
aI354
asI621
(lp1543
I604
aI718
aI86
aI350
asI622
(lp1544
I616
aI718
aI86
aI342
asI623
(lp1545
I624
aI718
aI82
aI338
asI624
(lp1546
I634
aI718
aI82
aI338
asI625
(lp1547
I640
aI718
aI82
aI338
asI626
(lp1548
I646
aI718
aI72
aI338
asI627
(lp1549
I654
aI718
aI72
aI338
asI628
(lp1550
I660
aI718
aI66
aI346
asI629
(lp1551
I662
aI718
aI42
aI346
asI630
(lp1552
I672
aI718
aI42
aI346
asI631
(lp1553
I678
aI718
aI42
aI346
asI632
(lp1554
I682
aI718
aI36
aI348
asI633
(lp1555
I688
aI718
aI32
aI346
asI634
(lp1556
I692
aI718
aI28
aI344
asI635
(lp1557
I710
aI718
aI28
aI340
asI636
(lp1558
I710
aI718
aI28
aI336
asI637
(lp1559
I716
aI718
aI28
aI322
asI638
(lp1560
I718
aI718
aI28
aI310
asI639
(lp1561
I722
aI718
aI46
aI302
asI640
(lp1562
I728
aI718
aI46
aI292
asI641
(lp1563
I728
aI718
aI46
aI272
asI642
(lp1564
I730
aI718
aI50
aI258
asI643
(lp1565
I732
aI718
aI62
aI244
asI644
(lp1566
I740
aI718
aI64
aI234
asI645
(lp1567
I748
aI718
aI64
aI204
asI646
(lp1568
I752
aI718
aI68
aI182
asI647
(lp1569
I762
aI716
aI78
aI170
asI648
(lp1570
I768
aI718
aI88
aI158
asI649
(lp1571
I770
aI718
aI90
aI150
asI650
(lp1572
I774
aI718
aI90
aI138
asI651
(lp1573
I770
aI718
aI88
aI126
asI652
(lp1574
I764
aI718
aI88
aI106
asI653
(lp1575
I770
aI718
aI96
aI84
asI654
(lp1576
I772
aI718
aI102
aI66
asI655
(lp1577
I774
aI718
aI114
aI64
asI656
(lp1578
I778
aI716
aI126
aI48
asI657
(lp1579
I778
aI718
aI128
aI32
asI658
(lp1580
I774
aI720
aI138
aI24
asI659
(lp1581
I772
aI718
aI136
aI22
asI660
(lp1582
I770
aI716
aI134
aI20
asI661
(lp1583
I770
aI712
aI134
aI16
asI662
(lp1584
I768
aI718
aI140
aI12
asI663
(lp1585
I772
aI716
aI144
aI10
asI664
(lp1586
I772
aI716
aI148
aI8
asI665
(lp1587
I774
aI716
aI150
aI8
asI666
(lp1588
I774
aI718
aI150
aI10
asI667
(lp1589
I772
aI718
aI148
aI10
asI668
(lp1590
I772
aI718
aI148
aI6
asI669
(lp1591
I772
aI718
aI148
aI6
asI670
(lp1592
I772
aI718
aI148
aI6
asI671
(lp1593
I772
aI718
aI148
aI6
asI672
(lp1594
I770
aI718
aI146
aI6
asI673
(lp1595
I768
aI718
aI144
aI6
asI674
(lp1596
I768
aI718
aI144
aI6
asI675
(lp1597
I766
aI718
aI138
aI2
asI676
(lp1598
I764
aI716
aI136
aI0
asI677
(lp1599
I764
aI716
aI136
aI0
asI678
(lp1600
I764
aI716
aI136
aI0
asI679
(lp1601
I766
aI716
aI138
aI0
asI680
(lp1602
I766
aI716
aI138
aI0
asI681
(lp1603
I768
aI716
aI140
aI0
asI682
(lp1604
I770
aI716
aI142
aI0
asI683
(lp1605
I772
aI716
aI144
aI0
asI684
(lp1606
I772
aI716
aI144
aI0
asI685
(lp1607
I774
aI716
aI146
aI0
asI686
(lp1608
I778
aI716
aI150
aI0
asI687
(lp1609
I784
aI716
aI150
aI0
asI688
(lp1610
I788
aI716
aI154
aI0
asI689
(lp1611
I790
aI716
aI156
aI0
asI690
(lp1612
I794
aI716
aI160
aI0
asI691
(lp1613
I794
aI716
aI160
aI0
asI692
(lp1614
I794
aI718
aI160
aI2
asI693
(lp1615
I794
aI718
aI160
aI2
asI694
(lp1616
I796
aI718
aI162
aI8
asI695
(lp1617
I796
aI718
aI162
aI8
assg188
F67.24137931034483
sg189
(lp1618
I01
aI01
aI01
aI00
aI00
aI01
aI00
aI00
aI00
aI01
aI00
aI00
aI01
aI01
aI01
aI01
aI01
aI00
aI01
aI00
aI00
aI00
aI01
aI01
aI00
aI00
aI00
aI00
aI01
aI01
aI00
aI01
aI00
aI01
aI01
aI01
aI01
aI01
aI01
aI01
aI01
asg191
(lp1619
S'00532'
p1620
aS'00536'
p1621
aS'00539'
p1622
aS'00541'
p1623
aS'00543'
p1624
aS'00544'
p1625
aS'00553'
p1626
aS'00564'
p1627
aS'00568'
p1628
aS'00571'
p1629
aS'00574'
p1630
aS'00589'
p1631
aS'00594'
p1632
aS'00600'
p1633
aS'00604'
p1634
aS'00607'
p1635
aS'00609'
p1636
aS'00611'
p1637
aS'00612'
p1638
aS'00619'
p1639
aS'00625'
p1640
aS'00629'
p1641
aS'00630'
p1642
aS'00631'
p1643
aS'00633'
p1644
aS'00641'
p1645
aS'00642'
p1646
aS'00644'
p1647
aS'00647'
p1648
aS'00649'
p1649
aS'00654'
p1650
aS'00657'
p1651
aS'00658'
p1652
aS'00662'
p1653
aS'00676'
p1654
aS'00679'
p1655
aS'00690'
p1656
aS'00691'
p1657
aS'00692'
p1658
aS'00693'
p1659
aS'00694'
p1660
asg209
(lp1661
I15
aI1
aI1
aI0
aI0
aI1
aI0
aI0
aI0
aI1
aI0
aI0
aI1
aI1
aI1
aI1
aI1
aI0
aI2
aI0
aI0
aI0
aI1
aI1
aI0
aI0
aI0
aI0
aI1
aI1
aI0
aI1
aI0
aI1
aI1
aI1
aI1
aI1
aI1
aI1
aI1
asg211
(lp1662
I15
aI1
aI1
aI1
aI1
aI2
aI1
aI1
aI1
aI1
aI1
aI1
aI1
aI1
aI1
aI1
aI1
aI1
aI2
aI1
aI1
aI1
aI2
aI1
aI1
aI1
aI1
aI1
aI1
aI1
aI1
aI1
aI1
aI1
aI1
aI1
aI1
aI1
aI1
aI1
aI1
asg213
(lp1663
F212.0471645648675
aF230.7899477880265
aF237.9327636119078
aF242.404620418011
aF245.08773939142694
aF248.70866490735702
aF277.5103601669675
aF325.0661471147065
aF339.4878495616596
aF355.00985901802784
aF377.2108163878655
aF510.09802979427394
aF506.77411141454337
aF539.0398872068745
aF552.1304193757123
aF558.5158905528114
aF556.4242985348501
aF561.2628617679954
aF567.7534676248133
aF614.9504045042983
aF675.1029551112927
aF723.0380349608173
aF731.6310545623388
aF736.8039087844201
aF754.1352663813037
aF814.8864951635902
aF820.9750300709517
aF831.4036324192961
aF875.1982632523901
aF886.0158012134998
aF934.8818107119209
aF945.0375653909214
aF942.8212980199376
aF944.8915281660642
aF952.3864761744572
aF952.3864761744572
aF956.3534911318095
aF956.3534911318095
aF956.3534911318095
aF956.3534911318095
aF951.869738987431
asg215
(lp1664
F41.012193308819754
aF97.082439194738
aF37.36308338453881
aF86.37708029332781
aF187.0855419320264
aF86.55634003352961
aF231.19256043393784
aF932.6119235780765
aF273.97992627198073
aF141.0319112825179
aF260.43233286210835
aF518.000965250066
aF59.464274989274024
aF147.10540438746634
aF59.413803110051795
aF77.41446893184762
aF145.41664278891878
aF511.0792502146805
aF88.05679985100527
aF637.1695221838534
aF412.8159396147392
aF464.4308344630016
aF235.44001359157284
aF124.72369462135092
aF487.95491595023407
aF485.8662367359971
aF479.8770675912738
aF464.0
aF220.18401395196702
aF214.11212016137713
aF510.88159097779203
aF216.39316070523117
aF645.3169763767261
aF223.5106261456041
aF229.09386722476881
aF230.7552816296953
aF325.8588651548397
aF228.32652057962954
aF229.40139493908924
aF226.2144999773445
aF229.49074055394914
assI632
(dp1665
g2
(dp1666
I512
(lp1667
I510
aI434
aI450
aI278
asI513
(lp1668
I510
aI446
aI450
aI290
asI514
(lp1669
I516
aI462
aI452
aI304
asI515
(lp1670
I524
aI484
aI462
aI322
asI516
(lp1671
I536
aI502
aI474
aI338
asI517
(lp1672
I544
aI520
aI480
aI352
asI518
(lp1673
I550
aI528
aI478
aI358
asI519
(lp1674
I552
aI538
aI478
aI366
asI520
(lp1675
I552
aI544
aI478
aI372
asI521
(lp1676
I552
aI550
aI478
aI378
asI522
(lp1677
I552
aI554
aI478
aI382
asI523
(lp1678
I550
aI564
aI470
aI382
asI524
(lp1679
I548
aI568
aI470
aI386
asI525
(lp1680
I546
aI570
aI468
aI388
asI526
(lp1681
I542
aI578
aI454
aI392
asI527
(lp1682
I540
aI584
aI452
aI398
asI528
(lp1683
I538
aI588
aI450
aI402
asI529
(lp1684
I536
aI592
aI448
aI404
asI530
(lp1685
I534
aI596
aI446
aI406
asI531
(lp1686
I530
aI600
aI440
aI408
asI532
(lp1687
I528
aI604
aI438
aI412
asI533
(lp1688
I524
aI616
aI428
aI414
asI534
(lp1689
I520
aI628
aI424
aI426
asI535
(lp1690
I512
aI640
aI416
aI434
asI536
(lp1691
I508
aI648
aI408
aI440
asI537
(lp1692
I504
aI648
aI404
aI440
asI538
(lp1693
I500
aI654
aI396
aI440
asI539
(lp1694
I494
aI654
aI390
aI440
asI540
(lp1695
I490
aI660
aI384
aI444
asI541
(lp1696
I486
aI662
aI380
aI444
asI542
(lp1697
I484
aI662
aI376
aI444
asI543
(lp1698
I486
aI658
aI374
aI440
asI544
(lp1699
I490
aI656
aI374
aI436
asI545
(lp1700
I490
aI646
aI374
aI426
asI546
(lp1701
I490
aI634
aI372
aI414
asI547
(lp1702
I486
aI620
aI366
aI398
asI548
(lp1703
I480
aI610
aI350
aI386
asI549
(lp1704
I472
aI598
aI346
aI374
asI550
(lp1705
I468
aI590
aI324
aI360
asI551
(lp1706
I462
aI580
aI318
aI350
asI552
(lp1707
I456
aI576
aI312
aI342
asI553
(lp1708
I450
aI570
aI304
aI334
asI554
(lp1709
I448
aI570
aI302
aI328
asI555
(lp1710
I446
aI566
aI300
aI322
asI556
(lp1711
I446
aI566
aI300
aI318
asI557
(lp1712
I448
aI564
aI300
aI314
asI558
(lp1713
I442
aI536
aI294
aI300
asI559
(lp1714
I438
aI524
aI284
aI284
asI560
(lp1715
I428
aI510
aI270
aI262
asI561
(lp1716
I414
aI514
aI250
aI256
asI562
(lp1717
I402
aI520
aI236
aI256
asI563
(lp1718
I396
aI522
aI220
aI252
asI564
(lp1719
I396
aI522
aI218
aI250
asI565
(lp1720
I396
aI524
aI218
aI248
asI566
(lp1721
I400
aI526
aI218
aI248
asI567
(lp1722
I402
aI528
aI218
aI246
asI568
(lp1723
I402
aI528
aI216
aI244
asI569
(lp1724
I402
aI528
aI212
aI240
asI570
(lp1725
I400
aI530
aI206
aI238
asI571
(lp1726
I398
aI532
aI202
aI236
asI572
(lp1727
I396
aI538
aI196
aI234
asI573
(lp1728
I392
aI544
aI184
aI236
asI574
(lp1729
I382
aI548
aI170
aI236
asI575
(lp1730
I376
aI556
aI160
aI240
asI576
(lp1731
I370
aI574
aI146
aI246
asI577
(lp1732
I362
aI592
aI132
aI256
asI578
(lp1733
I358
aI616
aI118
aI274
asI579
(lp1734
I348
aI646
aI94
aI288
asI580
(lp1735
I338
aI672
aI78
aI302
asI581
(lp1736
I332
aI696
aI50
aI308
asI582
(lp1737
I330
aI706
aI46
aI310
asI583
(lp1738
I334
aI712
aI42
aI316
asI584
(lp1739
I338
aI716
aI32
aI318
asI585
(lp1740
I338
aI716
aI32
aI318
asI586
(lp1741
I336
aI718
aI24
aI316
asI587
(lp1742
I340
aI718
aI20
aI316
asI588
(lp1743
I346
aI718
aI40
aI316
asI589
(lp1744
I362
aI718
aI48
aI316
asI590
(lp1745
I374
aI718
aI60
aI316
asI591
(lp1746
I384
aI714
aI60
aI322
asI592
(lp1747
I396
aI718
aI62
aI326
asI593
(lp1748
I406
aI718
aI68
aI330
asI594
(lp1749
I416
aI718
aI90
aI330
asI595
(lp1750
I426
aI718
aI98
aI330
asI596
(lp1751
I442
aI718
aI102
aI328
asI597
(lp1752
I452
aI718
aI120
aI326
asI598
(lp1753
I468
aI718
aI122
aI326
asI599
(lp1754
I480
aI718
aI126
aI326
asI600
(lp1755
I498
aI718
aI128
aI326
asI601
(lp1756
I510
aI718
aI134
aI330
asI602
(lp1757
I514
aI718
aI136
aI332
asI603
(lp1758
I532
aI718
aI136
aI338
asI604
(lp1759
I542
aI718
aI134
aI346
asI605
(lp1760
I548
aI718
aI134
aI348
asI606
(lp1761
I548
aI718
aI118
aI356
asI607
(lp1762
I550
aI718
aI118
aI364
asI608
(lp1763
I550
aI718
aI118
aI380
asI609
(lp1764
I554
aI718
aI112
aI380
asI610
(lp1765
I554
aI718
aI108
aI388
asI611
(lp1766
I556
aI718
aI102
aI388
asI612
(lp1767
I560
aI718
aI98
aI388
asI613
(lp1768
I568
aI718
aI96
aI386
asI614
(lp1769
I566
aI718
aI94
aI382
asI615
(lp1770
I568
aI718
aI90
aI378
asI616
(lp1771
I574
aI718
aI86
aI378
asI617
(lp1772
I576
aI718
aI86
aI372
asI618
(lp1773
I580
aI718
aI86
aI366
asI619
(lp1774
I586
aI718
aI86
aI360
asI620
(lp1775
I594
aI718
aI86
aI354
asI621
(lp1776
I604
aI718
aI86
aI350
asI622
(lp1777
I616
aI718
aI86
aI342
asI623
(lp1778
I624
aI718
aI82
aI338
asI624
(lp1779
I634
aI718
aI82
aI338
asI625
(lp1780
I640
aI718
aI82
aI338
asI626
(lp1781
I646
aI718
aI72
aI338
asI627
(lp1782
I654
aI718
aI72
aI338
asI628
(lp1783
I660
aI718
aI66
aI346
asI629
(lp1784
I662
aI718
aI42
aI346
asI630
(lp1785
I672
aI718
aI42
aI346
asI631
(lp1786
I678
aI718
aI42
aI346
asI632
(lp1787
I682
aI718
aI36
aI348
asI633
(lp1788
I688
aI718
aI32
aI346
asI634
(lp1789
I692
aI718
aI28
aI344
asI635
(lp1790
I710
aI718
aI28
aI340
asI636
(lp1791
I710
aI718
aI28
aI336
asI637
(lp1792
I716
aI718
aI28
aI322
asI638
(lp1793
I718
aI718
aI28
aI310
asI639
(lp1794
I722
aI718
aI46
aI302
asI640
(lp1795
I728
aI718
aI46
aI292
asI641
(lp1796
I728
aI718
aI46
aI272
asI642
(lp1797
I730
aI718
aI50
aI258
asI643
(lp1798
I732
aI718
aI62
aI244
asI644
(lp1799
I740
aI718
aI64
aI234
asI645
(lp1800
I748
aI718
aI64
aI204
asI646
(lp1801
I752
aI718
aI68
aI182
asI647
(lp1802
I762
aI716
aI78
aI170
asI648
(lp1803
I768
aI718
aI88
aI158
asI649
(lp1804
I770
aI718
aI90
aI150
asI650
(lp1805
I774
aI718
aI90
aI138
asI651
(lp1806
I770
aI718
aI88
aI126
asI652
(lp1807
I764
aI718
aI88
aI106
asI653
(lp1808
I770
aI718
aI96
aI84
asI654
(lp1809
I772
aI718
aI102
aI66
asI655
(lp1810
I774
aI718
aI114
aI64
asI656
(lp1811
I778
aI716
aI126
aI48
asI657
(lp1812
I778
aI718
aI128
aI32
asI658
(lp1813
I774
aI720
aI138
aI24
asI659
(lp1814
I772
aI718
aI136
aI22
asI660
(lp1815
I770
aI716
aI134
aI20
asI661
(lp1816
I770
aI712
aI134
aI16
asI662
(lp1817
I768
aI718
aI140
aI12
asI663
(lp1818
I772
aI716
aI144
aI10
asI664
(lp1819
I772
aI716
aI148
aI8
asI665
(lp1820
I774
aI716
aI150
aI8
asI666
(lp1821
I774
aI718
aI150
aI10
asI667
(lp1822
I772
aI718
aI148
aI10
asI668
(lp1823
I772
aI718
aI148
aI6
asI669
(lp1824
I772
aI718
aI148
aI6
asI670
(lp1825
I772
aI718
aI148
aI6
asI671
(lp1826
I772
aI718
aI148
aI6
asI672
(lp1827
I770
aI718
aI146
aI6
asI673
(lp1828
I768
aI718
aI144
aI6
asI674
(lp1829
I768
aI718
aI144
aI6
asI675
(lp1830
I766
aI718
aI138
aI2
asI676
(lp1831
I764
aI716
aI136
aI0
asI677
(lp1832
I764
aI716
aI136
aI0
asI678
(lp1833
I764
aI716
aI136
aI0
asI679
(lp1834
I766
aI716
aI138
aI0
asI680
(lp1835
I766
aI716
aI138
aI0
asI681
(lp1836
I768
aI716
aI140
aI0
asI682
(lp1837
I770
aI716
aI142
aI0
asI683
(lp1838
I772
aI716
aI144
aI0
asI684
(lp1839
I772
aI716
aI144
aI0
asI685
(lp1840
I774
aI716
aI146
aI0
asI686
(lp1841
I778
aI716
aI150
aI0
asI687
(lp1842
I784
aI716
aI150
aI0
asI688
(lp1843
I788
aI716
aI154
aI0
asI689
(lp1844
I790
aI716
aI156
aI0
asI690
(lp1845
I794
aI716
aI160
aI0
asI691
(lp1846
I794
aI716
aI160
aI0
asI692
(lp1847
I794
aI718
aI160
aI2
asI693
(lp1848
I794
aI718
aI160
aI2
asI694
(lp1849
I796
aI718
aI162
aI8
asI695
(lp1850
I796
aI718
aI162
aI8
assg188
F88.45618915159945
sg189
(lp1851
I01
aI01
aI01
aI01
aI01
aI01
aI01
aI01
aI01
aI01
aI01
aI01
aI01
aI01
aI01
aI01
aI01
aI01
aI01
aI01
aI01
aI01
aI00
aI01
aI00
aI01
aI01
aI01
aI01
aI01
aI01
aI01
aI01
aI01
aI01
aI01
aI01
aI01
aI01
aI01
aI01
aI01
aI01
aI01
aI01
aI01
aI01
aI01
aI01
aI01
aI01
aI01
aI01
aI01
aI01
aI01
aI01
aI01
aI01
aI01
aI01
aI01
aI01
aI01
asg191
(lp1852
S'00632'
p1853
aS'00633'
p1854
aS'00634'
p1855
aS'00635'
p1856
aS'00636'
p1857
aS'00637'
p1858
aS'00638'
p1859
aS'00639'
p1860
aS'00640'
p1861
aS'00641'
p1862
aS'00642'
p1863
aS'00643'
p1864
aS'00644'
p1865
aS'00645'
p1866
aS'00646'
p1867
aS'00647'
p1868
aS'00648'
p1869
aS'00649'
p1870
aS'00650'
p1871
aS'00651'
p1872
aS'00652'
p1873
aS'00653'
p1874
aS'00654'
p1875
aS'00655'
p1876
aS'00656'
p1877
aS'00657'
p1878
aS'00658'
p1879
aS'00659'
p1880
aS'00660'
p1881
aS'00661'
p1882
aS'00662'
p1883
aS'00663'
p1884
aS'00664'
p1885
aS'00665'
p1886
aS'00666'
p1887
aS'00667'
p1888
aS'00668'
p1889
aS'00669'
p1890
aS'00670'
p1891
aS'00671'
p1892
aS'00672'
p1893
aS'00673'
p1894
aS'00674'
p1895
aS'00675'
p1896
aS'00676'
p1897
aS'00677'
p1898
aS'00678'
p1899
aS'00679'
p1900
aS'00680'
p1901
aS'00681'
p1902
aS'00682'
p1903
aS'00683'
p1904
aS'00684'
p1905
aS'00685'
p1906
aS'00686'
p1907
aS'00687'
p1908
aS'00688'
p1909
aS'00689'
p1910
aS'00690'
p1911
aS'00691'
p1912
aS'00692'
p1913
aS'00693'
p1914
aS'00694'
p1915
aS'00695'
p1916
asg209
(lp1917
I117
aI21
aI19
aI18
aI14
aI15
aI8
aI6
aI6
aI5
aI4
aI5
aI3
aI1
aI9
aI7
aI3
aI7
aI8
aI4
aI5
aI5
aI2
aI4
aI1
aI5
aI12
aI7
aI8
aI6
aI12
aI15
aI13
aI8
aI7
aI4
aI13
aI10
aI9
aI10
aI8
aI7
aI12
aI10
aI9
aI9
aI5
aI9
aI9
aI7
aI6
aI7
aI8
aI7
aI9
aI6
aI9
aI9
aI10
aI5
aI10
aI11
aI9
aI9
asg211
(lp1918
I117
aI22
aI20
aI20
aI15
aI16
aI8
aI8
aI7
aI6
aI4
aI7
aI3
aI2
aI9
aI10
aI4
aI7
aI8
aI6
aI5
aI6
aI5
aI6
aI4
aI5
aI16
aI9
aI12
aI8
aI12
aI16
aI16
aI8
aI10
aI5
aI14
aI10
aI10
aI13
aI9
aI7
aI14
aI11
aI9
aI9
aI5
aI10
aI10
aI7
aI7
aI9
aI10
aI8
aI11
aI7
aI10
aI9
aI11
aI6
aI12
aI15
aI11
aI13
asg213
(lp1919
F744.4568489845466
aF754.1352663813037
aF762.0839848730585
aF779.748677459603
aF781.6955929260444
aF793.826177446927
aF801.6008982030896
aF793.7455511686348
aF804.114419718985
aF814.8864951635902
aF820.9750300709517
aF820.7167599117249
aF831.4036324192961
aF855.6003740064634
aF868.9948216186331
aF875.1982632523901
aF880.9086218218097
aF886.0158012134998
aF896.8032114126264
aF903.0991086254044
aF911.8771847129415
aF925.3280499368859
aF934.8818107119209
aF929.1479968228958
aF933.4495165781597
aF945.0375653909214
aF942.8212980199376
aF942.8212980199376
aF942.8212980199376
aF942.8212980199376
aF944.8915281660642
aF944.8915281660642
aF943.7372515695245
aF943.7372515695245
aF943.7372515695245
aF943.7372515695245
aF946.7417810575384
aF946.7417810575384
aF946.7417810575384
aF946.7417810575384
aF946.7417810575384
aF946.7417810575384
aF946.7417810575384
aF952.3864761744572
aF952.3864761744572
aF952.3864761744572
aF952.3864761744572
aF952.3864761744572
aF952.3864761744572
aF952.3864761744572
aF952.3864761744572
aF952.3864761744572
aF952.3864761744572
aF952.3864761744572
aF952.3864761744572
aF956.3534911318095
aF956.3534911318095
aF956.3534911318095
aF956.3534911318095
aF956.3534911318095
aF956.3534911318095
aF956.3534911318095
aF951.869738987431
aF951.869738987431
asg215
(lp1920
F80.52949770115296
aF101.01980003939822
aF121.26417442921878
aF68.15423684555495
aF96.33794683301072
aF55.54277630799526
aF52.354560450833695
aF109.12836478203089
aF108.34205093129813
aF86.55634003352961
aF152.84632805533798
aF82.09750300709517
aF133.843191832831
aF17.029386365926403
aF137.7679207943562
aF120.96693763173474
aF202.24984548819808
aF147.1767644704829
aF126.28935030318273
aF358.2192066319169
aF124.03628501370073
aF127.57742747053649
aF508.66491917567896
aF185.88437266214714
aF512.5329257716035
aF99.85990186255943
aF261.457453517776
aF153.44380078712857
aF231.53617427952807
aF204.00490190189058
aF239.35329536064467
aF242.55308697272852
aF230.10649708341572
aF245.81497106563708
aF218.50629281556172
aF300.24156940703597
aF229.1571513176056
aF213.3541656495134
aF244.468811916776
aF255.3605294480727
aF244.7549795203358
aF191.60636732634956
aF284.6928169097352
aF250.5673562138532
aF277.8488797889961
aF228.79029699705362
aF223.6537502480117
aF267.25456029785533
aF225.08887133752305
aF228.0021929719098
aF237.06539182259397
aF308.21096670949265
aF226.27637967759694
aF261.72504656604804
aF220.4948979001555
aF202.5561650505854
aF232.0021551624036
aF240.52026941611388
aF231.3114783144148
aF301.0398644698074
aF245.73359558676546
aF263.3476789341421
aF206.95168518279817
aF277.71388153997634
assI692
(dp1921
g2
(dp1922
I512
(lp1923
I510
aI434
aI450
aI278
asI513
(lp1924
I510
aI446
aI450
aI290
asI514
(lp1925
I516
aI462
aI452
aI304
asI515
(lp1926
I524
aI484
aI462
aI322
asI516
(lp1927
I536
aI502
aI474
aI338
asI517
(lp1928
I544
aI520
aI480
aI352
asI518
(lp1929
I550
aI528
aI478
aI358
asI519
(lp1930
I552
aI538
aI478
aI366
asI520
(lp1931
I552
aI544
aI478
aI372
asI521
(lp1932
I552
aI550
aI478
aI378
asI522
(lp1933
I552
aI554
aI478
aI382
asI523
(lp1934
I550
aI564
aI470
aI382
asI524
(lp1935
I548
aI568
aI470
aI386
asI525
(lp1936
I546
aI570
aI468
aI388
asI526
(lp1937
I542
aI578
aI454
aI392
asI527
(lp1938
I540
aI584
aI452
aI398
asI528
(lp1939
I538
aI588
aI450
aI402
asI529
(lp1940
I536
aI592
aI448
aI404
asI530
(lp1941
I534
aI596
aI446
aI406
asI531
(lp1942
I530
aI600
aI440
aI408
asI532
(lp1943
I528
aI604
aI438
aI412
asI533
(lp1944
I524
aI616
aI428
aI414
asI534
(lp1945
I520
aI628
aI424
aI426
asI535
(lp1946
I512
aI640
aI416
aI434
asI536
(lp1947
I508
aI648
aI408
aI440
asI537
(lp1948
I504
aI648
aI404
aI440
asI538
(lp1949
I500
aI654
aI396
aI440
asI539
(lp1950
I494
aI654
aI390
aI440
asI540
(lp1951
I490
aI660
aI384
aI444
asI541
(lp1952
I486
aI662
aI380
aI444
asI542
(lp1953
I484
aI662
aI376
aI444
asI543
(lp1954
I486
aI658
aI374
aI440
asI544
(lp1955
I490
aI656
aI374
aI436
asI545
(lp1956
I490
aI646
aI374
aI426
asI546
(lp1957
I490
aI634
aI372
aI414
asI547
(lp1958
I486
aI620
aI366
aI398
asI548
(lp1959
I480
aI610
aI350
aI386
asI549
(lp1960
I472
aI598
aI346
aI374
asI550
(lp1961
I468
aI590
aI324
aI360
asI551
(lp1962
I462
aI580
aI318
aI350
asI552
(lp1963
I456
aI576
aI312
aI342
asI553
(lp1964
I450
aI570
aI304
aI334
asI554
(lp1965
I448
aI570
aI302
aI328
asI555
(lp1966
I446
aI566
aI300
aI322
asI556
(lp1967
I446
aI566
aI300
aI318
asI557
(lp1968
I448
aI564
aI300
aI314
asI558
(lp1969
I442
aI536
aI294
aI300
asI559
(lp1970
I438
aI524
aI284
aI284
asI560
(lp1971
I428
aI510
aI270
aI262
asI561
(lp1972
I414
aI514
aI250
aI256
asI562
(lp1973
I402
aI520
aI236
aI256
asI563
(lp1974
I396
aI522
aI220
aI252
asI564
(lp1975
I396
aI522
aI218
aI250
asI565
(lp1976
I396
aI524
aI218
aI248
asI566
(lp1977
I400
aI526
aI218
aI248
asI567
(lp1978
I402
aI528
aI218
aI246
asI568
(lp1979
I402
aI528
aI216
aI244
asI569
(lp1980
I402
aI528
aI212
aI240
asI570
(lp1981
I400
aI530
aI206
aI238
asI571
(lp1982
I398
aI532
aI202
aI236
asI572
(lp1983
I396
aI538
aI196
aI234
asI573
(lp1984
I392
aI544
aI184
aI236
asI574
(lp1985
I382
aI548
aI170
aI236
asI575
(lp1986
I376
aI556
aI160
aI240
asI576
(lp1987
I370
aI574
aI146
aI246
asI577
(lp1988
I362
aI592
aI132
aI256
asI578
(lp1989
I358
aI616
aI118
aI274
asI579
(lp1990
I348
aI646
aI94
aI288
asI580
(lp1991
I338
aI672
aI78
aI302
asI581
(lp1992
I332
aI696
aI50
aI308
asI582
(lp1993
I330
aI706
aI46
aI310
asI583
(lp1994
I334
aI712
aI42
aI316
asI584
(lp1995
I338
aI716
aI32
aI318
asI585
(lp1996
I338
aI716
aI32
aI318
asI586
(lp1997
I336
aI718
aI24
aI316
asI587
(lp1998
I340
aI718
aI20
aI316
asI588
(lp1999
I346
aI718
aI40
aI316
asI589
(lp2000
I362
aI718
aI48
aI316
asI590
(lp2001
I374
aI718
aI60
aI316
asI591
(lp2002
I384
aI714
aI60
aI322
asI592
(lp2003
I396
aI718
aI62
aI326
asI593
(lp2004
I406
aI718
aI68
aI330
asI594
(lp2005
I416
aI718
aI90
aI330
asI595
(lp2006
I426
aI718
aI98
aI330
asI596
(lp2007
I442
aI718
aI102
aI328
asI597
(lp2008
I452
aI718
aI120
aI326
asI598
(lp2009
I468
aI718
aI122
aI326
asI599
(lp2010
I480
aI718
aI126
aI326
asI600
(lp2011
I498
aI718
aI128
aI326
asI601
(lp2012
I510
aI718
aI134
aI330
asI602
(lp2013
I514
aI718
aI136
aI332
asI603
(lp2014
I532
aI718
aI136
aI338
asI604
(lp2015
I542
aI718
aI134
aI346
asI605
(lp2016
I548
aI718
aI134
aI348
asI606
(lp2017
I548
aI718
aI118
aI356
asI607
(lp2018
I550
aI718
aI118
aI364
asI608
(lp2019
I550
aI718
aI118
aI380
asI609
(lp2020
I554
aI718
aI112
aI380
asI610
(lp2021
I554
aI718
aI108
aI388
asI611
(lp2022
I556
aI718
aI102
aI388
asI612
(lp2023
I560
aI718
aI98
aI388
asI613
(lp2024
I568
aI718
aI96
aI386
asI614
(lp2025
I566
aI718
aI94
aI382
asI615
(lp2026
I568
aI718
aI90
aI378
asI616
(lp2027
I574
aI718
aI86
aI378
asI617
(lp2028
I576
aI718
aI86
aI372
asI618
(lp2029
I580
aI718
aI86
aI366
asI619
(lp2030
I586
aI718
aI86
aI360
asI620
(lp2031
I594
aI718
aI86
aI354
asI621
(lp2032
I604
aI718
aI86
aI350
asI622
(lp2033
I616
aI718
aI86
aI342
asI623
(lp2034
I624
aI718
aI82
aI338
asI624
(lp2035
I634
aI718
aI82
aI338
asI625
(lp2036
I640
aI718
aI82
aI338
asI626
(lp2037
I646
aI718
aI72
aI338
asI627
(lp2038
I654
aI718
aI72
aI338
asI628
(lp2039
I660
aI718
aI66
aI346
asI629
(lp2040
I662
aI718
aI42
aI346
asI630
(lp2041
I672
aI718
aI42
aI346
asI631
(lp2042
I678
aI718
aI42
aI346
asI632
(lp2043
I682
aI718
aI36
aI348
asI633
(lp2044
I688
aI718
aI32
aI346
asI634
(lp2045
I692
aI718
aI28
aI344
asI635
(lp2046
I710
aI718
aI28
aI340
asI636
(lp2047
I710
aI718
aI28
aI336
asI637
(lp2048
I716
aI718
aI28
aI322
asI638
(lp2049
I718
aI718
aI28
aI310
asI639
(lp2050
I722
aI718
aI46
aI302
asI640
(lp2051
I728
aI718
aI46
aI292
asI641
(lp2052
I728
aI718
aI46
aI272
asI642
(lp2053
I730
aI718
aI50
aI258
asI643
(lp2054
I732
aI718
aI62
aI244
asI644
(lp2055
I740
aI718
aI64
aI234
asI645
(lp2056
I748
aI718
aI64
aI204
asI646
(lp2057
I752
aI718
aI68
aI182
asI647
(lp2058
I762
aI716
aI78
aI170
asI648
(lp2059
I768
aI718
aI88
aI158
asI649
(lp2060
I770
aI718
aI90
aI150
asI650
(lp2061
I774
aI718
aI90
aI138
asI651
(lp2062
I770
aI718
aI88
aI126
asI652
(lp2063
I764
aI718
aI88
aI106
asI653
(lp2064
I770
aI718
aI96
aI84
asI654
(lp2065
I772
aI718
aI102
aI66
asI655
(lp2066
I774
aI718
aI114
aI64
asI656
(lp2067
I778
aI716
aI126
aI48
asI657
(lp2068
I778
aI718
aI128
aI32
asI658
(lp2069
I774
aI720
aI138
aI24
asI659
(lp2070
I772
aI718
aI136
aI22
asI660
(lp2071
I770
aI716
aI134
aI20
asI661
(lp2072
I770
aI712
aI134
aI16
asI662
(lp2073
I768
aI718
aI140
aI12
asI663
(lp2074
I772
aI716
aI144
aI10
asI664
(lp2075
I772
aI716
aI148
aI8
asI665
(lp2076
I774
aI716
aI150
aI8
asI666
(lp2077
I774
aI718
aI150
aI10
asI667
(lp2078
I772
aI718
aI148
aI10
asI668
(lp2079
I772
aI718
aI148
aI6
asI669
(lp2080
I772
aI718
aI148
aI6
asI670
(lp2081
I772
aI718
aI148
aI6
asI671
(lp2082
I772
aI718
aI148
aI6
asI672
(lp2083
I770
aI718
aI146
aI6
asI673
(lp2084
I768
aI718
aI144
aI6
asI674
(lp2085
I768
aI718
aI144
aI6
asI675
(lp2086
I766
aI718
aI138
aI2
asI676
(lp2087
I764
aI716
aI136
aI0
asI677
(lp2088
I764
aI716
aI136
aI0
asI678
(lp2089
I764
aI716
aI136
aI0
asI679
(lp2090
I766
aI716
aI138
aI0
asI680
(lp2091
I766
aI716
aI138
aI0
asI681
(lp2092
I768
aI716
aI140
aI0
asI682
(lp2093
I770
aI716
aI142
aI0
asI683
(lp2094
I772
aI716
aI144
aI0
asI684
(lp2095
I772
aI716
aI144
aI0
asI685
(lp2096
I774
aI716
aI146
aI0
asI686
(lp2097
I778
aI716
aI150
aI0
asI687
(lp2098
I784
aI716
aI150
aI0
asI688
(lp2099
I788
aI716
aI154
aI0
asI689
(lp2100
I790
aI716
aI156
aI0
asI690
(lp2101
I794
aI716
aI160
aI0
asI691
(lp2102
I794
aI716
aI160
aI0
asI692
(lp2103
I794
aI718
aI160
aI2
asI693
(lp2104
I794
aI718
aI160
aI2
asI694
(lp2105
I796
aI718
aI162
aI8
asI695
(lp2106
I796
aI718
aI162
aI8
assg188
F93.69369369369369
sg189
(lp2107
I01
aI01
aI01
aI01
asg191
(lp2108
S'00692'
p2109
aS'00693'
p2110
aS'00694'
p2111
aS'00695'
p2112
asg209
(lp2113
I406
aI104
aI112
aI106
asg211
(lp2114
I406
aI123
aI126
aI122
asg213
(lp2115
F956.3534911318095
aF956.3534911318095
aF951.869738987431
aF951.869738987431
asg215
(lp2116
F106.04244433244644
aF88.10221336606703
aF72.62231062146122
aF73.06161783043132
assI572
(dp2117
g2
(dp2118
I512
(lp2119
I510
aI434
aI450
aI278
asI513
(lp2120
I510
aI446
aI450
aI290
asI514
(lp2121
I516
aI462
aI452
aI304
asI515
(lp2122
I524
aI484
aI462
aI322
asI516
(lp2123
I536
aI502
aI474
aI338
asI517
(lp2124
I544
aI520
aI480
aI352
asI518
(lp2125
I550
aI528
aI478
aI358
asI519
(lp2126
I552
aI538
aI478
aI366
asI520
(lp2127
I552
aI544
aI478
aI372
asI521
(lp2128
I552
aI550
aI478
aI378
asI522
(lp2129
I552
aI554
aI478
aI382
asI523
(lp2130
I550
aI564
aI470
aI382
asI524
(lp2131
I548
aI568
aI470
aI386
asI525
(lp2132
I546
aI570
aI468
aI388
asI526
(lp2133
I542
aI578
aI454
aI392
asI527
(lp2134
I540
aI584
aI452
aI398
asI528
(lp2135
I538
aI588
aI450
aI402
asI529
(lp2136
I536
aI592
aI448
aI404
asI530
(lp2137
I534
aI596
aI446
aI406
asI531
(lp2138
I530
aI600
aI440
aI408
asI532
(lp2139
I528
aI604
aI438
aI412
asI533
(lp2140
I524
aI616
aI428
aI414
asI534
(lp2141
I520
aI628
aI424
aI426
asI535
(lp2142
I512
aI640
aI416
aI434
asI536
(lp2143
I508
aI648
aI408
aI440
asI537
(lp2144
I504
aI648
aI404
aI440
asI538
(lp2145
I500
aI654
aI396
aI440
asI539
(lp2146
I494
aI654
aI390
aI440
asI540
(lp2147
I490
aI660
aI384
aI444
asI541
(lp2148
I486
aI662
aI380
aI444
asI542
(lp2149
I484
aI662
aI376
aI444
asI543
(lp2150
I486
aI658
aI374
aI440
asI544
(lp2151
I490
aI656
aI374
aI436
asI545
(lp2152
I490
aI646
aI374
aI426
asI546
(lp2153
I490
aI634
aI372
aI414
asI547
(lp2154
I486
aI620
aI366
aI398
asI548
(lp2155
I480
aI610
aI350
aI386
asI549
(lp2156
I472
aI598
aI346
aI374
asI550
(lp2157
I468
aI590
aI324
aI360
asI551
(lp2158
I462
aI580
aI318
aI350
asI552
(lp2159
I456
aI576
aI312
aI342
asI553
(lp2160
I450
aI570
aI304
aI334
asI554
(lp2161
I448
aI570
aI302
aI328
asI555
(lp2162
I446
aI566
aI300
aI322
asI556
(lp2163
I446
aI566
aI300
aI318
asI557
(lp2164
I448
aI564
aI300
aI314
asI558
(lp2165
I442
aI536
aI294
aI300
asI559
(lp2166
I438
aI524
aI284
aI284
asI560
(lp2167
I428
aI510
aI270
aI262
asI561
(lp2168
I414
aI514
aI250
aI256
asI562
(lp2169
I402
aI520
aI236
aI256
asI563
(lp2170
I396
aI522
aI220
aI252
asI564
(lp2171
I396
aI522
aI218
aI250
asI565
(lp2172
I396
aI524
aI218
aI248
asI566
(lp2173
I400
aI526
aI218
aI248
asI567
(lp2174
I402
aI528
aI218
aI246
asI568
(lp2175
I402
aI528
aI216
aI244
asI569
(lp2176
I402
aI528
aI212
aI240
asI570
(lp2177
I400
aI530
aI206
aI238
asI571
(lp2178
I398
aI532
aI202
aI236
asI572
(lp2179
I396
aI538
aI196
aI234
asI573
(lp2180
I392
aI544
aI184
aI236
asI574
(lp2181
I382
aI548
aI170
aI236
asI575
(lp2182
I376
aI556
aI160
aI240
asI576
(lp2183
I370
aI574
aI146
aI246
asI577
(lp2184
I362
aI592
aI132
aI256
asI578
(lp2185
I358
aI616
aI118
aI274
asI579
(lp2186
I348
aI646
aI94
aI288
asI580
(lp2187
I338
aI672
aI78
aI302
asI581
(lp2188
I332
aI696
aI50
aI308
asI582
(lp2189
I330
aI706
aI46
aI310
asI583
(lp2190
I334
aI712
aI42
aI316
asI584
(lp2191
I338
aI716
aI32
aI318
asI585
(lp2192
I338
aI716
aI32
aI318
asI586
(lp2193
I336
aI718
aI24
aI316
asI587
(lp2194
I340
aI718
aI20
aI316
asI588
(lp2195
I346
aI718
aI40
aI316
asI589
(lp2196
I362
aI718
aI48
aI316
asI590
(lp2197
I374
aI718
aI60
aI316
asI591
(lp2198
I384
aI714
aI60
aI322
asI592
(lp2199
I396
aI718
aI62
aI326
asI593
(lp2200
I406
aI718
aI68
aI330
asI594
(lp2201
I416
aI718
aI90
aI330
asI595
(lp2202
I426
aI718
aI98
aI330
asI596
(lp2203
I442
aI718
aI102
aI328
asI597
(lp2204
I452
aI718
aI120
aI326
asI598
(lp2205
I468
aI718
aI122
aI326
asI599
(lp2206
I480
aI718
aI126
aI326
asI600
(lp2207
I498
aI718
aI128
aI326
asI601
(lp2208
I510
aI718
aI134
aI330
asI602
(lp2209
I514
aI718
aI136
aI332
asI603
(lp2210
I532
aI718
aI136
aI338
asI604
(lp2211
I542
aI718
aI134
aI346
asI605
(lp2212
I548
aI718
aI134
aI348
asI606
(lp2213
I548
aI718
aI118
aI356
asI607
(lp2214
I550
aI718
aI118
aI364
asI608
(lp2215
I550
aI718
aI118
aI380
asI609
(lp2216
I554
aI718
aI112
aI380
asI610
(lp2217
I554
aI718
aI108
aI388
asI611
(lp2218
I556
aI718
aI102
aI388
asI612
(lp2219
I560
aI718
aI98
aI388
asI613
(lp2220
I568
aI718
aI96
aI386
asI614
(lp2221
I566
aI718
aI94
aI382
asI615
(lp2222
I568
aI718
aI90
aI378
asI616
(lp2223
I574
aI718
aI86
aI378
asI617
(lp2224
I576
aI718
aI86
aI372
asI618
(lp2225
I580
aI718
aI86
aI366
asI619
(lp2226
I586
aI718
aI86
aI360
asI620
(lp2227
I594
aI718
aI86
aI354
asI621
(lp2228
I604
aI718
aI86
aI350
asI622
(lp2229
I616
aI718
aI86
aI342
asI623
(lp2230
I624
aI718
aI82
aI338
asI624
(lp2231
I634
aI718
aI82
aI338
asI625
(lp2232
I640
aI718
aI82
aI338
asI626
(lp2233
I646
aI718
aI72
aI338
asI627
(lp2234
I654
aI718
aI72
aI338
asI628
(lp2235
I660
aI718
aI66
aI346
asI629
(lp2236
I662
aI718
aI42
aI346
asI630
(lp2237
I672
aI718
aI42
aI346
asI631
(lp2238
I678
aI718
aI42
aI346
asI632
(lp2239
I682
aI718
aI36
aI348
asI633
(lp2240
I688
aI718
aI32
aI346
asI634
(lp2241
I692
aI718
aI28
aI344
asI635
(lp2242
I710
aI718
aI28
aI340
asI636
(lp2243
I710
aI718
aI28
aI336
asI637
(lp2244
I716
aI718
aI28
aI322
asI638
(lp2245
I718
aI718
aI28
aI310
asI639
(lp2246
I722
aI718
aI46
aI302
asI640
(lp2247
I728
aI718
aI46
aI292
asI641
(lp2248
I728
aI718
aI46
aI272
asI642
(lp2249
I730
aI718
aI50
aI258
asI643
(lp2250
I732
aI718
aI62
aI244
asI644
(lp2251
I740
aI718
aI64
aI234
asI645
(lp2252
I748
aI718
aI64
aI204
asI646
(lp2253
I752
aI718
aI68
aI182
asI647
(lp2254
I762
aI716
aI78
aI170
asI648
(lp2255
I768
aI718
aI88
aI158
asI649
(lp2256
I770
aI718
aI90
aI150
asI650
(lp2257
I774
aI718
aI90
aI138
asI651
(lp2258
I770
aI718
aI88
aI126
asI652
(lp2259
I764
aI718
aI88
aI106
asI653
(lp2260
I770
aI718
aI96
aI84
asI654
(lp2261
I772
aI718
aI102
aI66
asI655
(lp2262
I774
aI718
aI114
aI64
asI656
(lp2263
I778
aI716
aI126
aI48
asI657
(lp2264
I778
aI718
aI128
aI32
asI658
(lp2265
I774
aI720
aI138
aI24
asI659
(lp2266
I772
aI718
aI136
aI22
asI660
(lp2267
I770
aI716
aI134
aI20
asI661
(lp2268
I770
aI712
aI134
aI16
asI662
(lp2269
I768
aI718
aI140
aI12
asI663
(lp2270
I772
aI716
aI144
aI10
asI664
(lp2271
I772
aI716
aI148
aI8
asI665
(lp2272
I774
aI716
aI150
aI8
asI666
(lp2273
I774
aI718
aI150
aI10
asI667
(lp2274
I772
aI718
aI148
aI10
asI668
(lp2275
I772
aI718
aI148
aI6
asI669
(lp2276
I772
aI718
aI148
aI6
asI670
(lp2277
I772
aI718
aI148
aI6
asI671
(lp2278
I772
aI718
aI148
aI6
asI672
(lp2279
I770
aI718
aI146
aI6
asI673
(lp2280
I768
aI718
aI144
aI6
asI674
(lp2281
I768
aI718
aI144
aI6
asI675
(lp2282
I766
aI718
aI138
aI2
asI676
(lp2283
I764
aI716
aI136
aI0
asI677
(lp2284
I764
aI716
aI136
aI0
asI678
(lp2285
I764
aI716
aI136
aI0
asI679
(lp2286
I766
aI716
aI138
aI0
asI680
(lp2287
I766
aI716
aI138
aI0
asI681
(lp2288
I768
aI716
aI140
aI0
asI682
(lp2289
I770
aI716
aI142
aI0
asI683
(lp2290
I772
aI716
aI144
aI0
asI684
(lp2291
I772
aI716
aI144
aI0
asI685
(lp2292
I774
aI716
aI146
aI0
asI686
(lp2293
I778
aI716
aI150
aI0
asI687
(lp2294
I784
aI716
aI150
aI0
asI688
(lp2295
I788
aI716
aI154
aI0
asI689
(lp2296
I790
aI716
aI156
aI0
asI690
(lp2297
I794
aI716
aI160
aI0
asI691
(lp2298
I794
aI716
aI160
aI0
asI692
(lp2299
I794
aI718
aI160
aI2
asI693
(lp2300
I794
aI718
aI160
aI2
asI694
(lp2301
I796
aI718
aI162
aI8
asI695
(lp2302
I796
aI718
aI162
aI8
assg188
F74.67652495378928
sg189
(lp2303
I01
aI00
aI00
aI01
aI00
aI01
aI00
aI01
aI01
aI01
aI01
aI01
aI01
aI01
aI01
aI01
aI01
aI01
aI01
aI01
aI01
aI01
aI01
aI01
aI01
aI01
aI01
aI01
aI01
aI01
aI01
aI01
aI01
aI01
aI01
aI01
aI01
aI01
aI01
aI00
aI01
aI01
aI00
aI00
aI01
aI00
aI01
aI01
aI01
aI01
aI01
aI01
aI01
aI01
aI01
aI01
aI01
aI01
aI01
aI00
aI00
aI01
aI00
aI01
aI00
aI01
aI01
aI01
aI01
aI01
aI01
aI01
aI01
aI01
aI01
aI01
aI01
aI01
aI01
aI01
aI01
aI00
aI01
aI01
aI01
aI01
aI01
aI01
aI00
aI01
aI00
aI01
aI01
aI01
aI00
aI00
aI01
aI01
aI01
aI01
aI00
aI01
aI01
aI00
aI01
aI00
aI01
aI01
aI01
aI01
aI01
aI01
aI01
aI01
aI00
aI00
aI01
aI00
aI00
aI01
asg191
(lp2304
S'00572'
p2305
aS'00573'
p2306
aS'00574'
p2307
aS'00575'
p2308
aS'00576'
p2309
aS'00577'
p2310
aS'00578'
p2311
aS'00579'
p2312
aS'00580'
p2313
aS'00581'
p2314
aS'00582'
p2315
aS'00583'
p2316
aS'00584'
p2317
aS'00585'
p2318
aS'00586'
p2319
aS'00587'
p2320
aS'00588'
p2321
aS'00589'
p2322
aS'00590'
p2323
aS'00591'
p2324
aS'00592'
p2325
aS'00593'
p2326
aS'00594'
p2327
aS'00595'
p2328
aS'00596'
p2329
aS'00597'
p2330
aS'00598'
p2331
aS'00599'
p2332
aS'00600'
p2333
aS'00601'
p2334
aS'00602'
p2335
aS'00603'
p2336
aS'00604'
p2337
aS'00605'
p2338
aS'00606'
p2339
aS'00607'
p2340
aS'00608'
p2341
aS'00609'
p2342
aS'00610'
p2343
aS'00611'
p2344
aS'00612'
p2345
aS'00613'
p2346
aS'00614'
p2347
aS'00615'
p2348
aS'00616'
p2349
aS'00618'
p2350
aS'00619'
p2351
aS'00620'
p2352
aS'00621'
p2353
aS'00622'
p2354
aS'00623'
p2355
aS'00624'
p2356
aS'00625'
p2357
aS'00626'
p2358
aS'00627'
p2359
aS'00629'
p2360
aS'00630'
p2361
aS'00631'
p2362
aS'00632'
p2363
aS'00633'
p2364
aS'00634'
p2365
aS'00635'
p2366
aS'00636'
p2367
aS'00637'
p2368
aS'00638'
p2369
aS'00639'
p2370
aS'00640'
p2371
aS'00641'
p2372
aS'00642'
p2373
aS'00643'
p2374
aS'00644'
p2375
aS'00645'
p2376
aS'00646'
p2377
aS'00647'
p2378
aS'00648'
p2379
aS'00649'
p2380
aS'00650'
p2381
aS'00651'
p2382
aS'00652'
p2383
aS'00653'
p2384
aS'00654'
p2385
aS'00655'
p2386
aS'00656'
p2387
aS'00657'
p2388
aS'00658'
p2389
aS'00659'
p2390
aS'00660'
p2391
aS'00661'
p2392
aS'00662'
p2393
aS'00663'
p2394
aS'00664'
p2395
aS'00665'
p2396
aS'00666'
p2397
aS'00667'
p2398
aS'00668'
p2399
aS'00669'
p2400
aS'00670'
p2401
aS'00671'
p2402
aS'00672'
p2403
aS'00673'
p2404
aS'00674'
p2405
aS'00675'
p2406
aS'00676'
p2407
aS'00677'
p2408
aS'00678'
p2409
aS'00679'
p2410
aS'00680'
p2411
aS'00681'
p2412
aS'00682'
p2413
aS'00683'
p2414
aS'00685'
p2415
aS'00686'
p2416
aS'00688'
p2417
aS'00689'
p2418
aS'00690'
p2419
aS'00691'
p2420
aS'00692'
p2421
aS'00693'
p2422
aS'00694'
p2423
aS'00695'
p2424
asg209
(lp2425
I67
aI3
aI3
aI1
aI1
aI2
aI0
aI1
aI1
aI1
aI5
aI4
aI3
aI5
aI9
aI7
aI6
aI6
aI7
aI4
aI3
aI6
aI6
aI5
aI4
aI6
aI1
aI5
aI8
aI5
aI3
aI2
aI6
aI4
aI3
aI3
aI5
aI3
aI2
aI1
aI6
aI4
aI2
aI0
aI5
aI1
aI1
aI5
aI3
aI3
aI3
aI2
aI5
aI2
aI2
aI1
aI3
aI3
aI1
aI1
aI0
aI1
aI0
aI1
aI1
aI5
aI2
aI1
aI3
aI4
aI1
aI2
aI4
aI4
aI7
aI6
aI6
aI4
aI1
aI2
aI5
aI3
aI2
aI6
aI1
aI1
aI2
aI2
aI1
aI4
aI1
aI3
aI2
aI1
aI0
aI0
aI1
aI3
aI4
aI1
aI1
aI2
aI3
aI2
aI2
aI0
aI2
aI2
aI2
aI1
aI1
aI4
aI4
aI3
aI2
aI0
aI2
aI2
aI0
aI1
asg211
(lp2426
I67
aI5
aI6
aI1
aI2
aI2
aI1
aI1
aI1
aI1
aI5
aI4
aI5
aI9
aI11
aI12
aI11
aI6
aI7
aI4
aI3
aI6
aI6
aI5
aI4
aI7
aI1
aI6
aI9
aI5
aI4
aI3
aI9
aI4
aI3
aI3
aI5
aI3
aI2
aI2
aI7
aI4
aI5
aI1
aI5
aI2
aI1
aI6
aI3
aI3
aI3
aI2
aI5
aI2
aI2
aI1
aI4
aI4
aI1
aI3
aI1
aI3
aI1
aI1
aI3
aI6
aI3
aI2
aI5
aI4
aI1
aI2
aI5
aI5
aI8
aI10
aI7
aI4
aI3
aI2
aI8
aI8
aI3
aI6
aI2
aI2
aI2
aI4
aI4
aI6
aI4
aI4
aI3
aI3
aI2
aI4
aI3
aI4
aI7
aI1
aI3
aI2
aI4
aI5
aI3
aI1
aI6
aI3
aI4
aI2
aI2
aI6
aI6
aI5
aI4
aI2
aI3
aI5
aI2
aI2
asg213
(lp2427
F363.8900932974131
aF371.65575469781174
aF377.2108163878655
aF382.76885975742596
aF397.1901307938051
aF407.1805496336975
aF417.80856860528843
aF438.953300477397
aF452.21676218380054
aF479.65404199276793
aF487.3109889998378
aF492.0162598939186
aF502.03585529322504
aF502.03585529322504
aF508.869334898459
aF513.8131956265818
aF505.2128264405012
aF510.09802979427394
aF510.09802979427394
aF508.5666131393212
aF514.9951456081892
aF514.5755532475284
aF506.77411141454337
aF508.06298822094885
aF517.3973328110611
aF513.7003017324402
aF522.8575331770596
aF528.1855734493323
aF539.0398872068745
aF540.296215052447
aF540.2591970526739
aF548.8314859772534
aF552.1304193757123
aF555.2440904683273
aF562.0889609305631
aF558.5158905528114
aF548.5143571502938
aF556.4242985348501
aF554.8116797617008
aF561.2628617679954
aF567.7534676248133
aF577.0684534784414
aF579.378977871997
aF586.5867369792809
aF594.7638186709074
aF606.5805799726859
aF614.9504045042983
aF624.94799783662
aF635.411677576042
aF649.8276694632201
aF661.9395742815201
aF670.1522215138885
aF675.1029551112927
aF688.3865193334337
aF695.0712193725187
aF723.0380349608173
aF731.6310545623388
aF736.8039087844201
aF744.4568489845466
aF754.1352663813037
aF762.0839848730585
aF779.748677459603
aF781.6955929260444
aF793.826177446927
aF801.6008982030896
aF793.7455511686348
aF804.114419718985
aF814.8864951635902
aF820.9750300709517
aF820.7167599117249
aF831.4036324192961
aF855.6003740064634
aF868.9948216186331
aF875.1982632523901
aF880.9086218218097
aF886.0158012134998
aF896.8032114126264
aF903.0991086254044
aF911.8771847129415
aF925.3280499368859
aF934.8818107119209
aF929.1479968228958
aF933.4495165781597
aF945.0375653909214
aF942.8212980199376
aF942.8212980199376
aF942.8212980199376
aF942.8212980199376
aF944.8915281660642
aF944.8915281660642
aF943.7372515695245
aF943.7372515695245
aF943.7372515695245
aF943.7372515695245
aF946.7417810575384
aF946.7417810575384
aF946.7417810575384
aF946.7417810575384
aF946.7417810575384
aF946.7417810575384
aF946.7417810575384
aF952.3864761744572
aF952.3864761744572
aF952.3864761744572
aF952.3864761744572
aF952.3864761744572
aF952.3864761744572
aF952.3864761744572
aF952.3864761744572
aF952.3864761744572
aF952.3864761744572
aF952.3864761744572
aF956.3534911318095
aF956.3534911318095
aF956.3534911318095
aF956.3534911318095
aF956.3534911318095
aF956.3534911318095
aF951.869738987431
aF951.869738987431
asg215
(lp2428
F29.546573405388315
aF161.31026005806325
aF146.696966567138
aF143.61058456812992
aF192.8237537234456
aF127.57742747053649
aF324.47187859658965
aF146.60491124106312
aF96.25487000666512
aF106.40018796975878
aF138.4629914453678
aF67.20119046564577
aF138.53880322855397
aF144.66858677681205
aF102.57680049601859
aF145.3994497926316
aF138.40520221436765
aF125.80143083447024
aF107.54068997360952
aF128.51459061133875
aF59.00847396772772
aF30.364452901377952
aF119.85407794480753
aF46.84015371452148
aF109.83624174196785
aF98.48857801796105
aF96.33794683301072
aF67.23094525588644
aF76.84399781375251
aF25.96150997149434
aF136.8575902169843
aF165.89454481688057
aF57.14017850864661
aF52.773099207835045
aF23.021728866442675
aF45.617978911828175
aF32.202484376209235
aF15.264337522473747
aF92.30926280715278
aF257.1089263327899
aF29.966648127543394
aF1.0
aF347.1959101141602
aF576.0564208478194
aF79.07591289387686
aF406.25361536852813
aF91.92388155425118
aF48.010415536631214
aF73.35529974037323
aF61.66036003787198
aF33.54101966249684
aF42.80186911806539
aF113.08846094982458
aF43.382023926967726
aF71.58910531638176
aF130.60245020672468
aF63.89053137985315
aF168.35973390332975
aF121.01652779682617
aF534.0936247513164
aF740.2188865464053
aF281.1778796420515
aF611.3272446079923
aF91.92388155425118
aF505.58876569797314
aF22.360679774997898
aF89.64373932405988
aF121.75795661885921
aF171.8254928699464
aF69.87131027825369
aF211.8726032312814
aF153.48289807011074
aF107.16809226630845
aF118.69709347747316
aF108.17116066678771
aF188.53381659532593
aF90.60905032059435
aF72.99315036357864
aF23.769728648009426
aF309.4834405909305
aF21.37755832643195
aF515.6316514722502
aF20.248456731316587
aF166.20770138594662
aF132.8834075421006
aF304.9065430586887
aF97.98979538707079
aF208.79894635749483
aF533.7349529494953
aF94.76286192385707
aF495.17067764559727
aF117.88553770501282
aF53.81449618829484
aF272.472016911829
aF624.9255955711848
aF540.2406871015918
aF169.7439247808298
aF99.85990186255943
aF105.58882516630251
aF58.83026432033091
aF427.28561876103436
aF178.53851125177448
aF105.84894897919393
aF409.4288705013363
aF123.47064428438041
aF617.4504028664975
aF93.47726996441435
aF138.6542462386205
aF89.69392398596462
aF297.28437564056406
aF279.3027031734566
aF40.607881008493905
aF111.28791488746656
aF71.00704190430693
aF374.2298758784499
aF615.7085349416557
aF30.364452901377952
aF426.7188770138954
aF479.3255678555026
aF201.55644370746373
ass.