(dp0
I224
(dp1
S'frame numbers'
p2
(lp3
S'00224'
p4
asS'correct kp matches'
p5
(lp6
sS'total kp matches'
p7
(lp8
sS'distance from center'
p9
(lp10
sS'overall accuracy'
p11
I0
ssI164
(dp12
g2
(lp13
S'00164'
p14
asg5
(lp15
sg7
(lp16
sg9
(lp17
sg11
I0
ssI264
(dp18
g2
(lp19
S'00264'
p20
asg5
(lp21
sg7
(lp22
sg9
(lp23
sg11
I0
ssI284
(dp24
g2
(lp25
S'00284'
p26
asg5
(lp27
sg7
(lp28
sg9
(lp29
sg11
I0
ssI204
(dp30
g2
(lp31
S'00204'
p32
asg5
(lp33
sg7
(lp34
sg9
(lp35
sg11
I0
ssI144
(dp36
g2
(lp37
S'00144'
p38
asg5
(lp39
sg7
(lp40
sg9
(lp41
sg11
I0
ssI244
(dp42
g2
(lp43
S'00244'
p44
asg5
(lp45
sg7
(lp46
sg9
(lp47
sg11
I0
ssI184
(dp48
g2
(lp49
S'00184'
p50
asg5
(lp51
sg7
(lp52
sg9
(lp53
sg11
I0
ssI124
(dp54
g2
(lp55
S'00124'
p56
asg5
(lp57
sg7
(lp58
sg9
(lp59
sg11
I0
ss.