(dp0
I224
(dp1
S'overall accuracy'
p2
F86.90341783844812
sS'frame numbers'
p3
(lp4
S'00224'
p5
aS'00225'
p6
aS'00226'
p7
aS'00227'
p8
aS'00228'
p9
aS'00229'
p10
aS'00230'
p11
aS'00231'
p12
aS'00232'
p13
aS'00233'
p14
aS'00234'
p15
aS'00235'
p16
aS'00236'
p17
aS'00237'
p18
aS'00238'
p19
aS'00239'
p20
aS'00240'
p21
aS'00241'
p22
aS'00242'
p23
aS'00243'
p24
aS'00244'
p25
aS'00245'
p26
aS'00246'
p27
aS'00247'
p28
aS'00248'
p29
aS'00249'
p30
aS'00250'
p31
aS'00251'
p32
aS'00252'
p33
aS'00253'
p34
aS'00254'
p35
aS'00255'
p36
aS'00256'
p37
aS'00257'
p38
aS'00258'
p39
aS'00259'
p40
aS'00260'
p41
aS'00261'
p42
aS'00262'
p43
aS'00263'
p44
aS'00264'
p45
aS'00265'
p46
aS'00266'
p47
aS'00267'
p48
aS'00268'
p49
aS'00269'
p50
aS'00270'
p51
aS'00271'
p52
aS'00272'
p53
aS'00273'
p54
aS'00274'
p55
aS'00275'
p56
aS'00276'
p57
aS'00277'
p58
aS'00278'
p59
aS'00279'
p60
aS'00280'
p61
aS'00281'
p62
aS'00282'
p63
aS'00283'
p64
aS'00284'
p65
aS'00285'
p66
aS'00286'
p67
aS'00287'
p68
aS'00288'
p69
asS'hypotenuse'
p70
(lp71
F612.800130548289
aF621.7169774101395
aF634.3406025157147
aF651.0821760730361
aF657.0783819301926
aF670.188033316024
aF683.3388617662544
aF693.8875989668644
aF710.7517147358844
aF715.0552426211558
aF733.0948096938076
aF740.2107807915256
aF740.2107807915256
aF747.3285756613352
aF757.7149859940741
aF773.6795202149273
aF779.1200164287912
aF791.403816013039
aF784.4182557794024
aF793.5767133680272
aF797.5587752636166
aF792.3736492337438
aF792.3736492337438
aF792.3736492337438
aF792.3736492337438
aF788.3653975156444
aF788.3653975156444
aF786.630790142364
aF784.6451427237665
aF775.7138647723141
aF775.7138647723141
aF775.7138647723141
aF775.7138647723141
aF764.3088381014575
aF764.3088381014575
aF764.3088381014575
aF764.3088381014575
aF764.3088381014575
aF764.3088381014575
aF764.3088381014575
aF764.3088381014575
aF764.3088381014575
aF764.3088381014575
aF764.3088381014575
aF762.5772092057302
aF762.5772092057302
aF763.5810369567856
aF763.5810369567856
aF763.5810369567856
aF763.5810369567856
aF763.5810369567856
aF763.5810369567856
aF763.5810369567856
aF763.5810369567856
aF763.5810369567856
aF763.5810369567856
aF763.5810369567856
aF763.5810369567856
aF763.5810369567856
aF763.5810369567856
aF772.5076051405579
aF772.5076051405579
aF776.9710419314223
aF778.9865210643892
aF784.1683492720169
asS'distance from center'
p72
(lp73
F29.410882339705484
aF71.30918594402827
aF101.41498903022176
aF112.37882362794157
aF170.35551062410633
aF150.08331019803634
aF152.8953890737062
aF157.71493271088823
aF147.09180806557515
aF137.3608386695422
aF64.53681120105021
aF85.44003745317531
aF137.80058055030102
aF149.27156460625713
aF114.94781424629178
aF161.01242188104618
aF156.7801007781281
aF162.3884232326923
aF105.20931517693668
aF108.90362712049586
aF148.67750334196495
aF140.07141035914503
aF182.2361105818493
aF132.9661611087573
aF160.0781059358212
aF157.61345120261785
aF137.44089638822936
aF130.38404810405297
aF146.37281168304446
aF125.0
aF119.75391434103521
aF130.17680284904833
aF141.9929575718458
aF153.05554547287727
aF132.94359706281458
aF153.8083222715858
aF164.61470165206995
aF169.2010638264429
aF151.6443206981389
aF137.18600511714013
aF170.07351351694948
aF154.80633061990713
aF137.97463535012514
aF153.7172729396407
aF180.64883060789515
aF173.80736463107655
aF165.60193235587562
aF146.38647478507022
aF156.40012787718558
aF138.59292911256333
aF150.65523555456014
aF144.46106741956464
aF144.42298985964803
aF151.9802618763371
aF137.3608386695422
aF156.6301375853319
aF136.48809471891678
aF158.52129194527782
aF157.7244432546839
aF183.43936327844142
aF160.70158679988197
aF165.41463055002117
aF193.3416664870767
aF190.06577808748213
aF169.03549923019128
asS'boxes'
p74
(dp75
I124
(lp76
I122
aI460
aI44
aI398
asI125
(lp77
I122
aI450
aI44
aI388
asI126
(lp78
I122
aI450
aI44
aI388
asI127
(lp79
I122
aI450
aI38
aI388
asI128
(lp80
I114
aI454
aI30
aI392
asI129
(lp81
I100
aI458
aI16
aI396
asI130
(lp82
I90
aI466
aI6
aI394
asI131
(lp83
I86
aI466
aI2
aI394
asI132
(lp84
I86
aI464
aI2
aI392
asI133
(lp85
I86
aI458
aI2
aI386
asI134
(lp86
I98
aI458
aI10
aI386
asI135
(lp87
I114
aI456
aI22
aI382
asI136
(lp88
I128
aI450
aI38
aI376
asI137
(lp89
I148
aI450
aI58
aI376
asI138
(lp90
I170
aI446
aI80
aI372
asI139
(lp91
I186
aI440
aI98
aI366
asI140
(lp92
I198
aI436
aI110
aI362
asI141
(lp93
I214
aI430
aI116
aI356
asI142
(lp94
I232
aI430
aI134
aI356
asI143
(lp95
I246
aI432
aI154
aI358
asI144
(lp96
I262
aI436
aI174
aI362
asI145
(lp97
I278
aI448
aI194
aI374
asI146
(lp98
I296
aI452
aI212
aI378
asI147
(lp99
I312
aI454
aI228
aI376
asI148
(lp100
I338
aI458
aI250
aI380
asI149
(lp101
I356
aI464
aI268
aI386
asI150
(lp102
I394
aI468
aI306
aI386
asI151
(lp103
I416
aI468
aI328
aI386
asI152
(lp104
I432
aI472
aI344
aI390
asI153
(lp105
I452
aI472
aI360
aI390
asI154
(lp106
I468
aI470
aI376
aI388
asI155
(lp107
I472
aI470
aI386
aI384
asI156
(lp108
I486
aI464
aI400
aI378
asI157
(lp109
I502
aI462
aI416
aI376
asI158
(lp110
I520
aI462
aI432
aI374
asI159
(lp111
I538
aI466
aI446
aI376
asI160
(lp112
I554
aI460
aI462
aI372
asI161
(lp113
I570
aI460
aI476
aI372
asI162
(lp114
I586
aI460
aI488
aI368
asI163
(lp115
I594
aI458
aI492
aI366
asI164
(lp116
I604
aI460
aI506
aI362
asI165
(lp117
I620
aI472
aI512
aI366
asI166
(lp118
I628
aI478
aI520
aI372
asI167
(lp119
I638
aI476
aI528
aI386
asI168
(lp120
I644
aI476
aI534
aI386
asI169
(lp121
I662
aI480
aI546
aI386
asI170
(lp122
I676
aI492
aI558
aI390
asI171
(lp123
I702
aI502
aI570
aI394
asI172
(lp124
I714
aI508
aI582
aI400
asI173
(lp125
I720
aI508
aI590
aI400
asI174
(lp126
I726
aI512
aI596
aI396
asI175
(lp127
I732
aI514
aI598
aI396
asI176
(lp128
I740
aI514
aI602
aI396
asI177
(lp129
I744
aI514
aI606
aI392
asI178
(lp130
I752
aI516
aI610
aI392
asI179
(lp131
I764
aI516
aI614
aI390
asI180
(lp132
I770
aI516
aI616
aI386
asI181
(lp133
I776
aI520
aI624
aI384
asI182
(lp134
I778
aI520
aI624
aI382
asI183
(lp135
I784
aI522
aI624
aI382
asI184
(lp136
I796
aI524
aI624
aI384
asI185
(lp137
I786
aI534
aI614
aI388
asI186
(lp138
I780
aI538
aI606
aI398
asI187
(lp139
I782
aI548
aI590
aI400
asI188
(lp140
I770
aI560
aI578
aI408
asI189
(lp141
I766
aI574
aI568
aI414
asI190
(lp142
I756
aI588
aI558
aI420
asI191
(lp143
I752
aI608
aI544
aI434
asI192
(lp144
I752
aI624
aI532
aI438
asI193
(lp145
I756
aI630
aI526
aI452
asI194
(lp146
I748
aI646
aI516
aI458
asI195
(lp147
I748
aI650
aI510
aI458
asI196
(lp148
I748
aI658
aI504
aI458
asI197
(lp149
I750
aI664
aI498
aI458
asI198
(lp150
I748
aI670
aI492
aI458
asI199
(lp151
I752
aI676
aI486
aI454
asI200
(lp152
I750
aI676
aI478
aI448
asI201
(lp153
I750
aI682
aI460
aI448
asI202
(lp154
I750
aI674
aI460
aI440
asI203
(lp155
I742
aI670
aI444
aI432
asI204
(lp156
I740
aI664
aI434
aI422
asI205
(lp157
I740
aI662
aI428
aI416
asI206
(lp158
I746
aI668
aI422
aI404
asI207
(lp159
I752
aI668
aI420
aI404
asI208
(lp160
I750
aI668
aI406
aI404
asI209
(lp161
I748
aI666
aI394
aI402
asI210
(lp162
I736
aI664
aI372
aI398
asI211
(lp163
I724
aI670
aI346
aI404
asI212
(lp164
I728
aI684
aI308
aI402
asI213
(lp165
I730
aI698
aI310
aI408
asI214
(lp166
I734
aI702
aI314
aI412
asI215
(lp167
I728
aI718
aI288
aI434
asI216
(lp168
I728
aI718
aI288
aI434
asI217
(lp169
I728
aI718
aI270
aI462
asI218
(lp170
I718
aI718
aI240
aI474
asI219
(lp171
I718
aI718
aI222
aI480
asI220
(lp172
I720
aI718
aI206
aI484
asI221
(lp173
I712
aI718
aI190
aI486
asI222
(lp174
I712
aI718
aI172
aI486
asI223
(lp175
I710
aI718
aI158
aI488
asI224
(lp176
I708
aI718
aI140
aI488
asI225
(lp177
I710
aI718
aI134
aI484
asI226
(lp178
I708
aI718
aI120
aI480
asI227
(lp179
I714
aI718
aI112
aI470
asI228
(lp180
I716
aI718
aI110
aI464
asI229
(lp181
I724
aI718
aI108
aI454
asI230
(lp182
I730
aI718
aI104
aI444
asI231
(lp183
I736
aI718
aI102
aI436
asI232
(lp184
I744
aI718
aI96
aI426
asI233
(lp185
I746
aI718
aI96
aI420
asI234
(lp186
I750
aI718
aI82
aI416
asI235
(lp187
I750
aI718
aI76
aI412
asI236
(lp188
I750
aI718
aI76
aI412
asI237
(lp189
I750
aI718
aI70
aI408
asI238
(lp190
I756
aI718
aI72
aI392
asI239
(lp191
I762
aI718
aI70
aI372
asI240
(lp192
I768
aI718
aI76
aI360
asI241
(lp193
I776
aI718
aI84
aI334
asI242
(lp194
I784
aI718
aI100
aI334
asI243
(lp195
I794
aI718
aI104
aI326
asI244
(lp196
I796
aI718
aI106
aI318
asI245
(lp197
I802
aI714
aI118
aI314
asI246
(lp198
I802
aI702
aI118
aI302
asI247
(lp199
I802
aI702
aI118
aI302
asI248
(lp200
I804
aI698
aI120
aI298
asI249
(lp201
I804
aI690
aI120
aI298
asI250
(lp202
I804
aI674
aI120
aI282
asI251
(lp203
I806
aI674
aI124
aI282
asI252
(lp204
I806
aI660
aI124
aI272
asI253
(lp205
I804
aI646
aI130
aI262
asI254
(lp206
I802
aI636
aI128
aI252
asI255
(lp207
I802
aI630
aI128
aI246
asI256
(lp208
I802
aI630
aI128
aI246
asI257
(lp209
I800
aI634
aI138
aI252
asI258
(lp210
I800
aI634
aI138
aI252
asI259
(lp211
I798
aI636
aI136
aI254
asI260
(lp212
I794
aI638
aI132
aI256
asI261
(lp213
I794
aI638
aI132
aI256
asI262
(lp214
I794
aI640
aI132
aI258
asI263
(lp215
I792
aI642
aI130
aI260
asI264
(lp216
I792
aI642
aI130
aI260
asI265
(lp217
I792
aI642
aI130
aI260
asI266
(lp218
I790
aI646
aI128
aI264
asI267
(lp219
I790
aI646
aI128
aI264
asI268
(lp220
I786
aI648
aI126
aI266
asI269
(lp221
I786
aI648
aI126
aI266
asI270
(lp222
I786
aI652
aI126
aI268
asI271
(lp223
I786
aI652
aI126
aI268
asI272
(lp224
I786
aI652
aI126
aI268
asI273
(lp225
I786
aI652
aI126
aI268
asI274
(lp226
I786
aI652
aI126
aI268
asI275
(lp227
I786
aI652
aI126
aI268
asI276
(lp228
I786
aI652
aI126
aI268
asI277
(lp229
I786
aI652
aI126
aI268
asI278
(lp230
I786
aI652
aI126
aI268
asI279
(lp231
I786
aI648
aI126
aI264
asI280
(lp232
I786
aI648
aI126
aI264
asI281
(lp233
I792
aI648
aI132
aI264
asI282
(lp234
I792
aI648
aI132
aI264
asI283
(lp235
I792
aI648
aI132
aI264
asI284
(lp236
I800
aI652
aI132
aI264
asI285
(lp237
I800
aI654
aI132
aI266
asI286
(lp238
I804
aI656
aI132
aI266
asI287
(lp239
I804
aI662
aI132
aI268
asI288
(lp240
I810
aI666
aI132
aI272
assS'correct kp matches'
p241
(lp242
I1018
aI426
aI298
aI216
aI112
aI93
aI117
aI107
aI115
aI128
aI129
aI126
aI112
aI84
aI45
aI39
aI35
aI50
aI72
aI109
aI112
aI118
aI118
aI115
aI107
aI105
aI92
aI93
aI75
aI68
aI83
aI120
aI111
aI110
aI116
aI106
aI99
aI116
aI109
aI121
aI120
aI118
aI120
aI113
aI125
aI105
aI107
aI120
aI110
aI105
aI107
aI122
aI110
aI107
aI130
aI122
aI112
aI116
aI131
aI128
aI130
aI142
aI120
aI122
aI100
asS'total kp matches'
p243
(lp244
I1018
aI441
aI315
aI250
aI146
aI121
aI149
aI141
aI146
aI159
aI156
aI145
aI138
aI109
aI58
aI51
aI48
aI55
aI85
aI135
aI127
aI129
aI142
aI132
aI121
aI116
aI98
aI99
aI81
aI80
aI92
aI133
aI136
aI134
aI139
aI132
aI129
aI138
aI132
aI145
aI137
aI138
aI145
aI132
aI155
aI128
aI130
aI137
aI127
aI123
aI124
aI128
aI122
aI125
aI143
aI145
aI126
aI140
aI156
aI159
aI152
aI158
aI144
aI147
aI121
assI164
(dp245
g2
F79.66101694915254
sg3
(lp246
S'00164'
p247
aS'00165'
p248
aS'00166'
p249
aS'00167'
p250
aS'00168'
p251
aS'00169'
p252
aS'00170'
p253
aS'00171'
p254
aS'00172'
p255
aS'00173'
p256
aS'00174'
p257
aS'00175'
p258
aS'00176'
p259
aS'00177'
p260
aS'00178'
p261
aS'00179'
p262
aS'00180'
p263
aS'00181'
p264
aS'00182'
p265
aS'00183'
p266
aS'00184'
p267
aS'00185'
p268
aS'00186'
p269
aS'00187'
p270
aS'00188'
p271
aS'00189'
p272
aS'00190'
p273
aS'00191'
p274
aS'00192'
p275
aS'00193'
p276
aS'00194'
p277
aS'00196'
p278
aS'00197'
p279
aS'00198'
p280
aS'00199'
p281
aS'00200'
p282
aS'00201'
p283
aS'00202'
p284
aS'00203'
p285
aS'00204'
p286
aS'00205'
p287
aS'00206'
p288
aS'00207'
p289
aS'00208'
p290
aS'00209'
p291
aS'00210'
p292
aS'00211'
p293
aS'00212'
p294
aS'00213'
p295
aS'00214'
p296
aS'00215'
p297
aS'00217'
p298
aS'00218'
p299
aS'00219'
p300
aS'00220'
p301
aS'00222'
p302
aS'00223'
p303
aS'00224'
p304
aS'00226'
p305
aS'00229'
p306
aS'00230'
p307
aS'00233'
p308
aS'00234'
p309
aS'00238'
p310
aS'00240'
p311
aS'00243'
p312
aS'00245'
p313
aS'00247'
p314
aS'00248'
p315
aS'00251'
p316
aS'00252'
p317
aS'00253'
p318
aS'00254'
p319
aS'00255'
p320
aS'00256'
p321
aS'00266'
p322
aS'00267'
p323
aS'00277'
p324
aS'00279'
p325
aS'00281'
p326
aS'00282'
p327
aS'00285'
p328
aS'00286'
p329
aS'00287'
p330
aS'00288'
p331
asg70
(lp332
F138.59292911256333
aF151.32745950421557
aF151.32745950421557
aF142.12670403551894
aF142.12670403551894
aF149.30505684671232
aF155.97435686676192
aF170.55204484262273
aF170.55204484262273
aF169.00887550658396
aF174.22973339817747
aF178.54971296532514
aF181.57092278225608
aF184.19554826325202
aF188.52055590836773
aF195.8979326077741
aF201.5341162185698
aF203.9607805437114
aF206.7849124090053
aF212.60291625469299
aF221.7746604100658
aF225.61028345356956
aF223.32935319836486
aF242.42112119202815
aF244.88364584022347
aF254.566297847928
aF259.6690201005888
aF271.1825953117198
aF288.0902636327719
aF290.83328557783756
aF298.61011369342464
aF315.49326458737596
aF325.48425461149424
aF332.38531856867564
aF346.4678917302439
aF354.91970923012997
aF372.63386856269517
aF372.63386856269517
aF381.37645443839347
aF390.1281840626232
aF397.3159951474393
aF417.93779441443195
aF424.16977732978575
aF433.62656745176486
aF441.6016304317728
aF450.8347812669293
aF462.21207253813697
aF505.8893159575521
aF510.3920062069938
aF510.3920062069938
aF523.6945674723006
aF524.6903848937962
aF536.674948176268
aF550.1454353168806
aF564.7583554052122
aF587.7278281653847
aF598.0
aF612.800130548289
aF634.3406025157147
aF670.188033316024
aF683.3388617662544
aF715.0552426211558
aF733.0948096938076
aF757.7149859940741
aF779.1200164287912
aF793.5767133680272
aF792.3736492337438
aF792.3736492337438
aF792.3736492337438
aF786.630790142364
aF784.6451427237665
aF775.7138647723141
aF775.7138647723141
aF775.7138647723141
aF775.7138647723141
aF764.3088381014575
aF764.3088381014575
aF763.5810369567856
aF763.5810369567856
aF763.5810369567856
aF763.5810369567856
aF772.5076051405579
aF776.9710419314223
aF778.9865210643892
aF784.1683492720169
asg72
(lp333
F4.123105625617661
aF22.0
aF14.317821063276353
aF20.8806130178211
aF2.0
aF5.0
aF20.024984394500787
aF28.42534080710379
aF13.892443989449804
aF11.704699910719626
aF14.866068747318506
aF20.223748416156685
aF33.54101966249684
aF20.591260281974
aF28.160255680657446
aF33.97057550292606
aF33.24154027718932
aF27.294688127912362
aF22.825424421026653
aF22.47220505424423
aF37.12142238654117
aF38.91015291668744
aF7.211102550927978
aF37.107950630558946
aF14.7648230602334
aF61.07372593840988
aF76.8505042273634
aF33.24154027718932
aF42.42640687119285
aF70.83078426785913
aF72.91776189653656
aF80.02499609497022
aF69.46221994724903
aF377.18032822510776
aF337.2195130771646
aF118.72657663724664
aF89.64373932405988
aF128.4445405612866
aF106.6255128944288
aF104.92378186092989
aF147.75655653811103
aF111.89280584559492
aF55.90169943749474
aF152.50245899656832
aF85.42833253669417
aF155.24174696260025
aF14.560219778561036
aF63.655321851358195
aF200.9975124224178
aF171.84004189943624
aF530.6938853991065
aF167.14065932620943
aF130.14222988715076
aF162.49615380063616
aF214.21951358361358
aF609.6498995325104
aF100.12492197250393
aF53.31041174104736
aF407.06387705125593
aF135.95955280891445
aF303.99506574942956
aF695.1007121273866
aF804.2512045374878
aF141.8767070381886
aF375.0333318519835
aF661.8912297349165
aF479.8854029870048
aF668.6179776224985
aF137.53544997563355
aF122.80065146407001
aF157.99050604387594
aF528.5451730930857
aF226.45970944077447
aF659.6741619921156
aF641.0686390707316
aF631.3232135760572
aF630.600507453015
aF149.96666296213968
aF406.9889433387595
aF301.3171087077533
aF491.0570231653346
aF306.5566831762113
aF391.637587573001
aF447.5712233823797
aF276.9566753122228
asg74
(dp334
I124
(lp335
I122
aI460
aI44
aI398
asI125
(lp336
I122
aI450
aI44
aI388
asI126
(lp337
I122
aI450
aI44
aI388
asI127
(lp338
I122
aI450
aI38
aI388
asI128
(lp339
I114
aI454
aI30
aI392
asI129
(lp340
I100
aI458
aI16
aI396
asI130
(lp341
I90
aI466
aI6
aI394
asI131
(lp342
I86
aI466
aI2
aI394
asI132
(lp343
I86
aI464
aI2
aI392
asI133
(lp344
I86
aI458
aI2
aI386
asI134
(lp345
I98
aI458
aI10
aI386
asI135
(lp346
I114
aI456
aI22
aI382
asI136
(lp347
I128
aI450
aI38
aI376
asI137
(lp348
I148
aI450
aI58
aI376
asI138
(lp349
I170
aI446
aI80
aI372
asI139
(lp350
I186
aI440
aI98
aI366
asI140
(lp351
I198
aI436
aI110
aI362
asI141
(lp352
I214
aI430
aI116
aI356
asI142
(lp353
I232
aI430
aI134
aI356
asI143
(lp354
I246
aI432
aI154
aI358
asI144
(lp355
I262
aI436
aI174
aI362
asI145
(lp356
I278
aI448
aI194
aI374
asI146
(lp357
I296
aI452
aI212
aI378
asI147
(lp358
I312
aI454
aI228
aI376
asI148
(lp359
I338
aI458
aI250
aI380
asI149
(lp360
I356
aI464
aI268
aI386
asI150
(lp361
I394
aI468
aI306
aI386
asI151
(lp362
I416
aI468
aI328
aI386
asI152
(lp363
I432
aI472
aI344
aI390
asI153
(lp364
I452
aI472
aI360
aI390
asI154
(lp365
I468
aI470
aI376
aI388
asI155
(lp366
I472
aI470
aI386
aI384
asI156
(lp367
I486
aI464
aI400
aI378
asI157
(lp368
I502
aI462
aI416
aI376
asI158
(lp369
I520
aI462
aI432
aI374
asI159
(lp370
I538
aI466
aI446
aI376
asI160
(lp371
I554
aI460
aI462
aI372
asI161
(lp372
I570
aI460
aI476
aI372
asI162
(lp373
I586
aI460
aI488
aI368
asI163
(lp374
I594
aI458
aI492
aI366
asI164
(lp375
I604
aI460
aI506
aI362
asI165
(lp376
I620
aI472
aI512
aI366
asI166
(lp377
I628
aI478
aI520
aI372
asI167
(lp378
I638
aI476
aI528
aI386
asI168
(lp379
I644
aI476
aI534
aI386
asI169
(lp380
I662
aI480
aI546
aI386
asI170
(lp381
I676
aI492
aI558
aI390
asI171
(lp382
I702
aI502
aI570
aI394
asI172
(lp383
I714
aI508
aI582
aI400
asI173
(lp384
I720
aI508
aI590
aI400
asI174
(lp385
I726
aI512
aI596
aI396
asI175
(lp386
I732
aI514
aI598
aI396
asI176
(lp387
I740
aI514
aI602
aI396
asI177
(lp388
I744
aI514
aI606
aI392
asI178
(lp389
I752
aI516
aI610
aI392
asI179
(lp390
I764
aI516
aI614
aI390
asI180
(lp391
I770
aI516
aI616
aI386
asI181
(lp392
I776
aI520
aI624
aI384
asI182
(lp393
I778
aI520
aI624
aI382
asI183
(lp394
I784
aI522
aI624
aI382
asI184
(lp395
I796
aI524
aI624
aI384
asI185
(lp396
I786
aI534
aI614
aI388
asI186
(lp397
I780
aI538
aI606
aI398
asI187
(lp398
I782
aI548
aI590
aI400
asI188
(lp399
I770
aI560
aI578
aI408
asI189
(lp400
I766
aI574
aI568
aI414
asI190
(lp401
I756
aI588
aI558
aI420
asI191
(lp402
I752
aI608
aI544
aI434
asI192
(lp403
I752
aI624
aI532
aI438
asI193
(lp404
I756
aI630
aI526
aI452
asI194
(lp405
I748
aI646
aI516
aI458
asI195
(lp406
I748
aI650
aI510
aI458
asI196
(lp407
I748
aI658
aI504
aI458
asI197
(lp408
I750
aI664
aI498
aI458
asI198
(lp409
I748
aI670
aI492
aI458
asI199
(lp410
I752
aI676
aI486
aI454
asI200
(lp411
I750
aI676
aI478
aI448
asI201
(lp412
I750
aI682
aI460
aI448
asI202
(lp413
I750
aI674
aI460
aI440
asI203
(lp414
I742
aI670
aI444
aI432
asI204
(lp415
I740
aI664
aI434
aI422
asI205
(lp416
I740
aI662
aI428
aI416
asI206
(lp417
I746
aI668
aI422
aI404
asI207
(lp418
I752
aI668
aI420
aI404
asI208
(lp419
I750
aI668
aI406
aI404
asI209
(lp420
I748
aI666
aI394
aI402
asI210
(lp421
I736
aI664
aI372
aI398
asI211
(lp422
I724
aI670
aI346
aI404
asI212
(lp423
I728
aI684
aI308
aI402
asI213
(lp424
I730
aI698
aI310
aI408
asI214
(lp425
I734
aI702
aI314
aI412
asI215
(lp426
I728
aI718
aI288
aI434
asI216
(lp427
I728
aI718
aI288
aI434
asI217
(lp428
I728
aI718
aI270
aI462
asI218
(lp429
I718
aI718
aI240
aI474
asI219
(lp430
I718
aI718
aI222
aI480
asI220
(lp431
I720
aI718
aI206
aI484
asI221
(lp432
I712
aI718
aI190
aI486
asI222
(lp433
I712
aI718
aI172
aI486
asI223
(lp434
I710
aI718
aI158
aI488
asI224
(lp435
I708
aI718
aI140
aI488
asI225
(lp436
I710
aI718
aI134
aI484
asI226
(lp437
I708
aI718
aI120
aI480
asI227
(lp438
I714
aI718
aI112
aI470
asI228
(lp439
I716
aI718
aI110
aI464
asI229
(lp440
I724
aI718
aI108
aI454
asI230
(lp441
I730
aI718
aI104
aI444
asI231
(lp442
I736
aI718
aI102
aI436
asI232
(lp443
I744
aI718
aI96
aI426
asI233
(lp444
I746
aI718
aI96
aI420
asI234
(lp445
I750
aI718
aI82
aI416
asI235
(lp446
I750
aI718
aI76
aI412
asI236
(lp447
I750
aI718
aI76
aI412
asI237
(lp448
I750
aI718
aI70
aI408
asI238
(lp449
I756
aI718
aI72
aI392
asI239
(lp450
I762
aI718
aI70
aI372
asI240
(lp451
I768
aI718
aI76
aI360
asI241
(lp452
I776
aI718
aI84
aI334
asI242
(lp453
I784
aI718
aI100
aI334
asI243
(lp454
I794
aI718
aI104
aI326
asI244
(lp455
I796
aI718
aI106
aI318
asI245
(lp456
I802
aI714
aI118
aI314
asI246
(lp457
I802
aI702
aI118
aI302
asI247
(lp458
I802
aI702
aI118
aI302
asI248
(lp459
I804
aI698
aI120
aI298
asI249
(lp460
I804
aI690
aI120
aI298
asI250
(lp461
I804
aI674
aI120
aI282
asI251
(lp462
I806
aI674
aI124
aI282
asI252
(lp463
I806
aI660
aI124
aI272
asI253
(lp464
I804
aI646
aI130
aI262
asI254
(lp465
I802
aI636
aI128
aI252
asI255
(lp466
I802
aI630
aI128
aI246
asI256
(lp467
I802
aI630
aI128
aI246
asI257
(lp468
I800
aI634
aI138
aI252
asI258
(lp469
I800
aI634
aI138
aI252
asI259
(lp470
I798
aI636
aI136
aI254
asI260
(lp471
I794
aI638
aI132
aI256
asI261
(lp472
I794
aI638
aI132
aI256
asI262
(lp473
I794
aI640
aI132
aI258
asI263
(lp474
I792
aI642
aI130
aI260
asI264
(lp475
I792
aI642
aI130
aI260
asI265
(lp476
I792
aI642
aI130
aI260
asI266
(lp477
I790
aI646
aI128
aI264
asI267
(lp478
I790
aI646
aI128
aI264
asI268
(lp479
I786
aI648
aI126
aI266
asI269
(lp480
I786
aI648
aI126
aI266
asI270
(lp481
I786
aI652
aI126
aI268
asI271
(lp482
I786
aI652
aI126
aI268
asI272
(lp483
I786
aI652
aI126
aI268
asI273
(lp484
I786
aI652
aI126
aI268
asI274
(lp485
I786
aI652
aI126
aI268
asI275
(lp486
I786
aI652
aI126
aI268
asI276
(lp487
I786
aI652
aI126
aI268
asI277
(lp488
I786
aI652
aI126
aI268
asI278
(lp489
I786
aI652
aI126
aI268
asI279
(lp490
I786
aI648
aI126
aI264
asI280
(lp491
I786
aI648
aI126
aI264
asI281
(lp492
I792
aI648
aI132
aI264
asI282
(lp493
I792
aI648
aI132
aI264
asI283
(lp494
I792
aI648
aI132
aI264
asI284
(lp495
I800
aI652
aI132
aI264
asI285
(lp496
I800
aI654
aI132
aI266
asI286
(lp497
I804
aI656
aI132
aI266
asI287
(lp498
I804
aI662
aI132
aI268
asI288
(lp499
I810
aI666
aI132
aI272
assg241
(lp500
I117
aI16
aI19
aI11
aI48
aI33
aI16
aI10
aI22
aI31
aI17
aI15
aI11
aI13
aI14
aI13
aI18
aI14
aI9
aI4
aI9
aI6
aI6
aI7
aI5
aI8
aI5
aI5
aI6
aI4
aI5
aI2
aI2
aI1
aI2
aI3
aI4
aI3
aI4
aI5
aI3
aI5
aI4
aI5
aI5
aI4
aI2
aI4
aI1
aI1
aI2
aI4
aI4
aI4
aI2
aI1
aI2
aI2
aI0
aI0
aI1
aI0
aI0
aI1
aI0
aI0
aI0
aI0
aI1
aI2
aI1
aI0
aI1
aI0
aI0
aI0
aI0
aI1
aI0
aI1
aI0
aI1
aI1
aI1
aI1
asg243
(lp501
I117
aI18
aI20
aI17
aI54
aI36
aI23
aI15
aI27
aI34
aI23
aI21
aI14
aI16
aI21
aI19
aI22
aI16
aI10
aI8
aI10
aI9
aI7
aI10
aI7
aI12
aI9
aI7
aI7
aI5
aI5
aI2
aI3
aI3
aI4
aI4
aI5
aI3
aI6
aI6
aI5
aI6
aI6
aI9
aI6
aI5
aI3
aI4
aI2
aI1
aI5
aI6
aI5
aI5
aI3
aI2
aI2
aI2
aI1
aI2
aI1
aI1
aI1
aI1
aI1
aI1
aI3
aI1
aI1
aI3
aI1
aI1
aI2
aI1
aI1
aI1
aI1
aI1
aI1
aI1
aI1
aI1
aI2
aI2
aI1
assI264
(dp502
g2
F97.89346777729067
sg3
(lp503
S'00264'
p504
aS'00265'
p505
aS'00266'
p506
aS'00267'
p507
aS'00268'
p508
aS'00269'
p509
aS'00270'
p510
aS'00271'
p511
aS'00272'
p512
aS'00273'
p513
aS'00274'
p514
aS'00275'
p515
aS'00276'
p516
aS'00277'
p517
aS'00278'
p518
aS'00279'
p519
aS'00280'
p520
aS'00281'
p521
aS'00282'
p522
aS'00283'
p523
aS'00284'
p524
aS'00285'
p525
aS'00286'
p526
aS'00287'
p527
aS'00288'
p528
asg70
(lp529
F764.3088381014575
aF764.3088381014575
aF764.3088381014575
aF764.3088381014575
aF762.5772092057302
aF762.5772092057302
aF763.5810369567856
aF763.5810369567856
aF763.5810369567856
aF763.5810369567856
aF763.5810369567856
aF763.5810369567856
aF763.5810369567856
aF763.5810369567856
aF763.5810369567856
aF763.5810369567856
aF763.5810369567856
aF763.5810369567856
aF763.5810369567856
aF763.5810369567856
aF772.5076051405579
aF772.5076051405579
aF776.9710419314223
aF778.9865210643892
aF784.1683492720169
asg72
(lp530
F44.94441010848846
aF37.589892258425
aF35.35533905932738
aF29.206163733020468
aF30.0
aF30.0
aF35.4682957019364
aF46.51881339845203
aF42.941821107167776
aF36.40054944640259
aF36.359317925395686
aF41.182520563948
aF35.34119409414458
aF40.496913462633174
aF40.496913462633174
aF47.885279575251516
aF47.50789408087881
aF48.54894437575342
aF52.15361924162119
aF51.03920062069938
aF51.61395160225576
aF51.31276644267
aF55.072679252057455
aF55.44366510251645
aF58.83026432033091
asg74
(dp531
I124
(lp532
I122
aI460
aI44
aI398
asI125
(lp533
I122
aI450
aI44
aI388
asI126
(lp534
I122
aI450
aI44
aI388
asI127
(lp535
I122
aI450
aI38
aI388
asI128
(lp536
I114
aI454
aI30
aI392
asI129
(lp537
I100
aI458
aI16
aI396
asI130
(lp538
I90
aI466
aI6
aI394
asI131
(lp539
I86
aI466
aI2
aI394
asI132
(lp540
I86
aI464
aI2
aI392
asI133
(lp541
I86
aI458
aI2
aI386
asI134
(lp542
I98
aI458
aI10
aI386
asI135
(lp543
I114
aI456
aI22
aI382
asI136
(lp544
I128
aI450
aI38
aI376
asI137
(lp545
I148
aI450
aI58
aI376
asI138
(lp546
I170
aI446
aI80
aI372
asI139
(lp547
I186
aI440
aI98
aI366
asI140
(lp548
I198
aI436
aI110
aI362
asI141
(lp549
I214
aI430
aI116
aI356
asI142
(lp550
I232
aI430
aI134
aI356
asI143
(lp551
I246
aI432
aI154
aI358
asI144
(lp552
I262
aI436
aI174
aI362
asI145
(lp553
I278
aI448
aI194
aI374
asI146
(lp554
I296
aI452
aI212
aI378
asI147
(lp555
I312
aI454
aI228
aI376
asI148
(lp556
I338
aI458
aI250
aI380
asI149
(lp557
I356
aI464
aI268
aI386
asI150
(lp558
I394
aI468
aI306
aI386
asI151
(lp559
I416
aI468
aI328
aI386
asI152
(lp560
I432
aI472
aI344
aI390
asI153
(lp561
I452
aI472
aI360
aI390
asI154
(lp562
I468
aI470
aI376
aI388
asI155
(lp563
I472
aI470
aI386
aI384
asI156
(lp564
I486
aI464
aI400
aI378
asI157
(lp565
I502
aI462
aI416
aI376
asI158
(lp566
I520
aI462
aI432
aI374
asI159
(lp567
I538
aI466
aI446
aI376
asI160
(lp568
I554
aI460
aI462
aI372
asI161
(lp569
I570
aI460
aI476
aI372
asI162
(lp570
I586
aI460
aI488
aI368
asI163
(lp571
I594
aI458
aI492
aI366
asI164
(lp572
I604
aI460
aI506
aI362
asI165
(lp573
I620
aI472
aI512
aI366
asI166
(lp574
I628
aI478
aI520
aI372
asI167
(lp575
I638
aI476
aI528
aI386
asI168
(lp576
I644
aI476
aI534
aI386
asI169
(lp577
I662
aI480
aI546
aI386
asI170
(lp578
I676
aI492
aI558
aI390
asI171
(lp579
I702
aI502
aI570
aI394
asI172
(lp580
I714
aI508
aI582
aI400
asI173
(lp581
I720
aI508
aI590
aI400
asI174
(lp582
I726
aI512
aI596
aI396
asI175
(lp583
I732
aI514
aI598
aI396
asI176
(lp584
I740
aI514
aI602
aI396
asI177
(lp585
I744
aI514
aI606
aI392
asI178
(lp586
I752
aI516
aI610
aI392
asI179
(lp587
I764
aI516
aI614
aI390
asI180
(lp588
I770
aI516
aI616
aI386
asI181
(lp589
I776
aI520
aI624
aI384
asI182
(lp590
I778
aI520
aI624
aI382
asI183
(lp591
I784
aI522
aI624
aI382
asI184
(lp592
I796
aI524
aI624
aI384
asI185
(lp593
I786
aI534
aI614
aI388
asI186
(lp594
I780
aI538
aI606
aI398
asI187
(lp595
I782
aI548
aI590
aI400
asI188
(lp596
I770
aI560
aI578
aI408
asI189
(lp597
I766
aI574
aI568
aI414
asI190
(lp598
I756
aI588
aI558
aI420
asI191
(lp599
I752
aI608
aI544
aI434
asI192
(lp600
I752
aI624
aI532
aI438
asI193
(lp601
I756
aI630
aI526
aI452
asI194
(lp602
I748
aI646
aI516
aI458
asI195
(lp603
I748
aI650
aI510
aI458
asI196
(lp604
I748
aI658
aI504
aI458
asI197
(lp605
I750
aI664
aI498
aI458
asI198
(lp606
I748
aI670
aI492
aI458
asI199
(lp607
I752
aI676
aI486
aI454
asI200
(lp608
I750
aI676
aI478
aI448
asI201
(lp609
I750
aI682
aI460
aI448
asI202
(lp610
I750
aI674
aI460
aI440
asI203
(lp611
I742
aI670
aI444
aI432
asI204
(lp612
I740
aI664
aI434
aI422
asI205
(lp613
I740
aI662
aI428
aI416
asI206
(lp614
I746
aI668
aI422
aI404
asI207
(lp615
I752
aI668
aI420
aI404
asI208
(lp616
I750
aI668
aI406
aI404
asI209
(lp617
I748
aI666
aI394
aI402
asI210
(lp618
I736
aI664
aI372
aI398
asI211
(lp619
I724
aI670
aI346
aI404
asI212
(lp620
I728
aI684
aI308
aI402
asI213
(lp621
I730
aI698
aI310
aI408
asI214
(lp622
I734
aI702
aI314
aI412
asI215
(lp623
I728
aI718
aI288
aI434
asI216
(lp624
I728
aI718
aI288
aI434
asI217
(lp625
I728
aI718
aI270
aI462
asI218
(lp626
I718
aI718
aI240
aI474
asI219
(lp627
I718
aI718
aI222
aI480
asI220
(lp628
I720
aI718
aI206
aI484
asI221
(lp629
I712
aI718
aI190
aI486
asI222
(lp630
I712
aI718
aI172
aI486
asI223
(lp631
I710
aI718
aI158
aI488
asI224
(lp632
I708
aI718
aI140
aI488
asI225
(lp633
I710
aI718
aI134
aI484
asI226
(lp634
I708
aI718
aI120
aI480
asI227
(lp635
I714
aI718
aI112
aI470
asI228
(lp636
I716
aI718
aI110
aI464
asI229
(lp637
I724
aI718
aI108
aI454
asI230
(lp638
I730
aI718
aI104
aI444
asI231
(lp639
I736
aI718
aI102
aI436
asI232
(lp640
I744
aI718
aI96
aI426
asI233
(lp641
I746
aI718
aI96
aI420
asI234
(lp642
I750
aI718
aI82
aI416
asI235
(lp643
I750
aI718
aI76
aI412
asI236
(lp644
I750
aI718
aI76
aI412
asI237
(lp645
I750
aI718
aI70
aI408
asI238
(lp646
I756
aI718
aI72
aI392
asI239
(lp647
I762
aI718
aI70
aI372
asI240
(lp648
I768
aI718
aI76
aI360
asI241
(lp649
I776
aI718
aI84
aI334
asI242
(lp650
I784
aI718
aI100
aI334
asI243
(lp651
I794
aI718
aI104
aI326
asI244
(lp652
I796
aI718
aI106
aI318
asI245
(lp653
I802
aI714
aI118
aI314
asI246
(lp654
I802
aI702
aI118
aI302
asI247
(lp655
I802
aI702
aI118
aI302
asI248
(lp656
I804
aI698
aI120
aI298
asI249
(lp657
I804
aI690
aI120
aI298
asI250
(lp658
I804
aI674
aI120
aI282
asI251
(lp659
I806
aI674
aI124
aI282
asI252
(lp660
I806
aI660
aI124
aI272
asI253
(lp661
I804
aI646
aI130
aI262
asI254
(lp662
I802
aI636
aI128
aI252
asI255
(lp663
I802
aI630
aI128
aI246
asI256
(lp664
I802
aI630
aI128
aI246
asI257
(lp665
I800
aI634
aI138
aI252
asI258
(lp666
I800
aI634
aI138
aI252
asI259
(lp667
I798
aI636
aI136
aI254
asI260
(lp668
I794
aI638
aI132
aI256
asI261
(lp669
I794
aI638
aI132
aI256
asI262
(lp670
I794
aI640
aI132
aI258
asI263
(lp671
I792
aI642
aI130
aI260
asI264
(lp672
I792
aI642
aI130
aI260
asI265
(lp673
I792
aI642
aI130
aI260
asI266
(lp674
I790
aI646
aI128
aI264
asI267
(lp675
I790
aI646
aI128
aI264
asI268
(lp676
I786
aI648
aI126
aI266
asI269
(lp677
I786
aI648
aI126
aI266
asI270
(lp678
I786
aI652
aI126
aI268
asI271
(lp679
I786
aI652
aI126
aI268
asI272
(lp680
I786
aI652
aI126
aI268
asI273
(lp681
I786
aI652
aI126
aI268
asI274
(lp682
I786
aI652
aI126
aI268
asI275
(lp683
I786
aI652
aI126
aI268
asI276
(lp684
I786
aI652
aI126
aI268
asI277
(lp685
I786
aI652
aI126
aI268
asI278
(lp686
I786
aI652
aI126
aI268
asI279
(lp687
I786
aI648
aI126
aI264
asI280
(lp688
I786
aI648
aI126
aI264
asI281
(lp689
I792
aI648
aI132
aI264
asI282
(lp690
I792
aI648
aI132
aI264
asI283
(lp691
I792
aI648
aI132
aI264
asI284
(lp692
I800
aI652
aI132
aI264
asI285
(lp693
I800
aI654
aI132
aI266
asI286
(lp694
I804
aI656
aI132
aI266
asI287
(lp695
I804
aI662
aI132
aI268
asI288
(lp696
I810
aI666
aI132
aI272
assg241
(lp697
I2823
aI2063
aI1952
aI1878
aI1874
aI1853
aI1821
aI1798
aI1800
aI1785
aI1767
aI1797
aI1762
aI1784
aI1760
aI1784
aI1703
aI1681
aI1662
aI1612
aI1575
aI1606
aI1548
aI1494
aI1477
asg243
(lp698
I2823
aI2095
aI1993
aI1916
aI1926
aI1900
aI1868
aI1838
aI1844
aI1828
aI1810
aI1838
aI1800
aI1822
aI1806
aI1829
aI1738
aI1725
aI1706
aI1642
aI1598
aI1640
aI1576
aI1539
aI1520
assI284
(dp699
g2
F98.78333164351616
sg3
(lp700
S'00284'
p701
aS'00285'
p702
aS'00286'
p703
aS'00287'
p704
aS'00288'
p705
asg70
(lp706
F772.5076051405579
aF772.5076051405579
aF776.9710419314223
aF778.9865210643892
aF784.1683492720169
asg72
(lp707
F52.392747589718944
aF48.76474136094644
aF44.10215414239989
aF40.607881008493905
aF49.09175083453431
asg74
(dp708
I124
(lp709
I122
aI460
aI44
aI398
asI125
(lp710
I122
aI450
aI44
aI388
asI126
(lp711
I122
aI450
aI44
aI388
asI127
(lp712
I122
aI450
aI38
aI388
asI128
(lp713
I114
aI454
aI30
aI392
asI129
(lp714
I100
aI458
aI16
aI396
asI130
(lp715
I90
aI466
aI6
aI394
asI131
(lp716
I86
aI466
aI2
aI394
asI132
(lp717
I86
aI464
aI2
aI392
asI133
(lp718
I86
aI458
aI2
aI386
asI134
(lp719
I98
aI458
aI10
aI386
asI135
(lp720
I114
aI456
aI22
aI382
asI136
(lp721
I128
aI450
aI38
aI376
asI137
(lp722
I148
aI450
aI58
aI376
asI138
(lp723
I170
aI446
aI80
aI372
asI139
(lp724
I186
aI440
aI98
aI366
asI140
(lp725
I198
aI436
aI110
aI362
asI141
(lp726
I214
aI430
aI116
aI356
asI142
(lp727
I232
aI430
aI134
aI356
asI143
(lp728
I246
aI432
aI154
aI358
asI144
(lp729
I262
aI436
aI174
aI362
asI145
(lp730
I278
aI448
aI194
aI374
asI146
(lp731
I296
aI452
aI212
aI378
asI147
(lp732
I312
aI454
aI228
aI376
asI148
(lp733
I338
aI458
aI250
aI380
asI149
(lp734
I356
aI464
aI268
aI386
asI150
(lp735
I394
aI468
aI306
aI386
asI151
(lp736
I416
aI468
aI328
aI386
asI152
(lp737
I432
aI472
aI344
aI390
asI153
(lp738
I452
aI472
aI360
aI390
asI154
(lp739
I468
aI470
aI376
aI388
asI155
(lp740
I472
aI470
aI386
aI384
asI156
(lp741
I486
aI464
aI400
aI378
asI157
(lp742
I502
aI462
aI416
aI376
asI158
(lp743
I520
aI462
aI432
aI374
asI159
(lp744
I538
aI466
aI446
aI376
asI160
(lp745
I554
aI460
aI462
aI372
asI161
(lp746
I570
aI460
aI476
aI372
asI162
(lp747
I586
aI460
aI488
aI368
asI163
(lp748
I594
aI458
aI492
aI366
asI164
(lp749
I604
aI460
aI506
aI362
asI165
(lp750
I620
aI472
aI512
aI366
asI166
(lp751
I628
aI478
aI520
aI372
asI167
(lp752
I638
aI476
aI528
aI386
asI168
(lp753
I644
aI476
aI534
aI386
asI169
(lp754
I662
aI480
aI546
aI386
asI170
(lp755
I676
aI492
aI558
aI390
asI171
(lp756
I702
aI502
aI570
aI394
asI172
(lp757
I714
aI508
aI582
aI400
asI173
(lp758
I720
aI508
aI590
aI400
asI174
(lp759
I726
aI512
aI596
aI396
asI175
(lp760
I732
aI514
aI598
aI396
asI176
(lp761
I740
aI514
aI602
aI396
asI177
(lp762
I744
aI514
aI606
aI392
asI178
(lp763
I752
aI516
aI610
aI392
asI179
(lp764
I764
aI516
aI614
aI390
asI180
(lp765
I770
aI516
aI616
aI386
asI181
(lp766
I776
aI520
aI624
aI384
asI182
(lp767
I778
aI520
aI624
aI382
asI183
(lp768
I784
aI522
aI624
aI382
asI184
(lp769
I796
aI524
aI624
aI384
asI185
(lp770
I786
aI534
aI614
aI388
asI186
(lp771
I780
aI538
aI606
aI398
asI187
(lp772
I782
aI548
aI590
aI400
asI188
(lp773
I770
aI560
aI578
aI408
asI189
(lp774
I766
aI574
aI568
aI414
asI190
(lp775
I756
aI588
aI558
aI420
asI191
(lp776
I752
aI608
aI544
aI434
asI192
(lp777
I752
aI624
aI532
aI438
asI193
(lp778
I756
aI630
aI526
aI452
asI194
(lp779
I748
aI646
aI516
aI458
asI195
(lp780
I748
aI650
aI510
aI458
asI196
(lp781
I748
aI658
aI504
aI458
asI197
(lp782
I750
aI664
aI498
aI458
asI198
(lp783
I748
aI670
aI492
aI458
asI199
(lp784
I752
aI676
aI486
aI454
asI200
(lp785
I750
aI676
aI478
aI448
asI201
(lp786
I750
aI682
aI460
aI448
asI202
(lp787
I750
aI674
aI460
aI440
asI203
(lp788
I742
aI670
aI444
aI432
asI204
(lp789
I740
aI664
aI434
aI422
asI205
(lp790
I740
aI662
aI428
aI416
asI206
(lp791
I746
aI668
aI422
aI404
asI207
(lp792
I752
aI668
aI420
aI404
asI208
(lp793
I750
aI668
aI406
aI404
asI209
(lp794
I748
aI666
aI394
aI402
asI210
(lp795
I736
aI664
aI372
aI398
asI211
(lp796
I724
aI670
aI346
aI404
asI212
(lp797
I728
aI684
aI308
aI402
asI213
(lp798
I730
aI698
aI310
aI408
asI214
(lp799
I734
aI702
aI314
aI412
asI215
(lp800
I728
aI718
aI288
aI434
asI216
(lp801
I728
aI718
aI288
aI434
asI217
(lp802
I728
aI718
aI270
aI462
asI218
(lp803
I718
aI718
aI240
aI474
asI219
(lp804
I718
aI718
aI222
aI480
asI220
(lp805
I720
aI718
aI206
aI484
asI221
(lp806
I712
aI718
aI190
aI486
asI222
(lp807
I712
aI718
aI172
aI486
asI223
(lp808
I710
aI718
aI158
aI488
asI224
(lp809
I708
aI718
aI140
aI488
asI225
(lp810
I710
aI718
aI134
aI484
asI226
(lp811
I708
aI718
aI120
aI480
asI227
(lp812
I714
aI718
aI112
aI470
asI228
(lp813
I716
aI718
aI110
aI464
asI229
(lp814
I724
aI718
aI108
aI454
asI230
(lp815
I730
aI718
aI104
aI444
asI231
(lp816
I736
aI718
aI102
aI436
asI232
(lp817
I744
aI718
aI96
aI426
asI233
(lp818
I746
aI718
aI96
aI420
asI234
(lp819
I750
aI718
aI82
aI416
asI235
(lp820
I750
aI718
aI76
aI412
asI236
(lp821
I750
aI718
aI76
aI412
asI237
(lp822
I750
aI718
aI70
aI408
asI238
(lp823
I756
aI718
aI72
aI392
asI239
(lp824
I762
aI718
aI70
aI372
asI240
(lp825
I768
aI718
aI76
aI360
asI241
(lp826
I776
aI718
aI84
aI334
asI242
(lp827
I784
aI718
aI100
aI334
asI243
(lp828
I794
aI718
aI104
aI326
asI244
(lp829
I796
aI718
aI106
aI318
asI245
(lp830
I802
aI714
aI118
aI314
asI246
(lp831
I802
aI702
aI118
aI302
asI247
(lp832
I802
aI702
aI118
aI302
asI248
(lp833
I804
aI698
aI120
aI298
asI249
(lp834
I804
aI690
aI120
aI298
asI250
(lp835
I804
aI674
aI120
aI282
asI251
(lp836
I806
aI674
aI124
aI282
asI252
(lp837
I806
aI660
aI124
aI272
asI253
(lp838
I804
aI646
aI130
aI262
asI254
(lp839
I802
aI636
aI128
aI252
asI255
(lp840
I802
aI630
aI128
aI246
asI256
(lp841
I802
aI630
aI128
aI246
asI257
(lp842
I800
aI634
aI138
aI252
asI258
(lp843
I800
aI634
aI138
aI252
asI259
(lp844
I798
aI636
aI136
aI254
asI260
(lp845
I794
aI638
aI132
aI256
asI261
(lp846
I794
aI638
aI132
aI256
asI262
(lp847
I794
aI640
aI132
aI258
asI263
(lp848
I792
aI642
aI130
aI260
asI264
(lp849
I792
aI642
aI130
aI260
asI265
(lp850
I792
aI642
aI130
aI260
asI266
(lp851
I790
aI646
aI128
aI264
asI267
(lp852
I790
aI646
aI128
aI264
asI268
(lp853
I786
aI648
aI126
aI266
asI269
(lp854
I786
aI648
aI126
aI266
asI270
(lp855
I786
aI652
aI126
aI268
asI271
(lp856
I786
aI652
aI126
aI268
asI272
(lp857
I786
aI652
aI126
aI268
asI273
(lp858
I786
aI652
aI126
aI268
asI274
(lp859
I786
aI652
aI126
aI268
asI275
(lp860
I786
aI652
aI126
aI268
asI276
(lp861
I786
aI652
aI126
aI268
asI277
(lp862
I786
aI652
aI126
aI268
asI278
(lp863
I786
aI652
aI126
aI268
asI279
(lp864
I786
aI648
aI126
aI264
asI280
(lp865
I786
aI648
aI126
aI264
asI281
(lp866
I792
aI648
aI132
aI264
asI282
(lp867
I792
aI648
aI132
aI264
asI283
(lp868
I792
aI648
aI132
aI264
asI284
(lp869
I800
aI652
aI132
aI264
asI285
(lp870
I800
aI654
aI132
aI266
asI286
(lp871
I804
aI656
aI132
aI266
asI287
(lp872
I804
aI662
aI132
aI268
asI288
(lp873
I810
aI666
aI132
aI272
assg241
(lp874
I2675
aI1914
aI1769
aI1716
aI1669
asg243
(lp875
I2675
aI1938
aI1791
aI1753
aI1706
assI204
(dp876
g2
F86.89915174363809
sg3
(lp877
S'00204'
p878
aS'00205'
p879
aS'00206'
p880
aS'00207'
p881
aS'00208'
p882
aS'00209'
p883
aS'00210'
p884
aS'00211'
p885
aS'00212'
p886
aS'00213'
p887
aS'00214'
p888
aS'00215'
p889
aS'00216'
p890
aS'00217'
p891
aS'00218'
p892
aS'00219'
p893
aS'00220'
p894
aS'00221'
p895
aS'00222'
p896
aS'00223'
p897
aS'00224'
p898
aS'00225'
p899
aS'00226'
p900
aS'00227'
p901
aS'00228'
p902
aS'00229'
p903
aS'00230'
p904
aS'00231'
p905
aS'00232'
p906
aS'00233'
p907
aS'00234'
p908
aS'00235'
p909
aS'00236'
p910
aS'00237'
p911
aS'00238'
p912
aS'00239'
p913
aS'00240'
p914
aS'00241'
p915
aS'00242'
p916
aS'00243'
p917
aS'00244'
p918
aS'00245'
p919
aS'00246'
p920
aS'00247'
p921
aS'00248'
p922
aS'00249'
p923
aS'00250'
p924
aS'00251'
p925
aS'00252'
p926
aS'00253'
p927
aS'00254'
p928
aS'00255'
p929
aS'00256'
p930
aS'00257'
p931
aS'00258'
p932
aS'00259'
p933
aS'00260'
p934
aS'00261'
p935
aS'00262'
p936
aS'00263'
p937
aS'00264'
p938
aS'00265'
p939
aS'00266'
p940
aS'00267'
p941
aS'00268'
p942
aS'00269'
p943
aS'00270'
p944
aS'00271'
p945
aS'00272'
p946
aS'00273'
p947
aS'00274'
p948
aS'00275'
p949
aS'00276'
p950
aS'00277'
p951
aS'00278'
p952
aS'00279'
p953
aS'00280'
p954
aS'00281'
p955
aS'00282'
p956
aS'00283'
p957
aS'00284'
p958
aS'00285'
p959
aS'00286'
p960
aS'00287'
p961
aS'00288'
p962
asg70
(lp963
F390.1281840626232
aF397.3159951474393
aF417.93779441443195
aF424.16977732978575
aF433.62656745176486
aF441.6016304317728
aF450.8347812669293
aF462.21207253813697
aF505.8893159575521
aF510.3920062069938
aF510.3920062069938
aF523.6945674723006
aF523.6945674723006
aF524.6903848937962
aF536.674948176268
aF550.1454353168806
aF564.7583554052122
aF571.233752504174
aF587.7278281653847
aF598.0
aF612.800130548289
aF621.7169774101395
aF634.3406025157147
aF651.0821760730361
aF657.0783819301926
aF670.188033316024
aF683.3388617662544
aF693.8875989668644
aF710.7517147358844
aF715.0552426211558
aF733.0948096938076
aF740.2107807915256
aF740.2107807915256
aF747.3285756613352
aF757.7149859940741
aF773.6795202149273
aF779.1200164287912
aF791.403816013039
aF784.4182557794024
aF793.5767133680272
aF797.5587752636166
aF792.3736492337438
aF792.3736492337438
aF792.3736492337438
aF792.3736492337438
aF788.3653975156444
aF788.3653975156444
aF786.630790142364
aF784.6451427237665
aF775.7138647723141
aF775.7138647723141
aF775.7138647723141
aF775.7138647723141
aF764.3088381014575
aF764.3088381014575
aF764.3088381014575
aF764.3088381014575
aF764.3088381014575
aF764.3088381014575
aF764.3088381014575
aF764.3088381014575
aF764.3088381014575
aF764.3088381014575
aF764.3088381014575
aF762.5772092057302
aF762.5772092057302
aF763.5810369567856
aF763.5810369567856
aF763.5810369567856
aF763.5810369567856
aF763.5810369567856
aF763.5810369567856
aF763.5810369567856
aF763.5810369567856
aF763.5810369567856
aF763.5810369567856
aF763.5810369567856
aF763.5810369567856
aF763.5810369567856
aF763.5810369567856
aF772.5076051405579
aF772.5076051405579
aF776.9710419314223
aF778.9865210643892
aF784.1683492720169
asg72
(lp964
F12.083045973594572
aF17.46424919657298
aF14.866068747318506
aF22.135943621178654
aF9.848857801796104
aF33.95585369269929
aF29.154759474226502
aF61.0
aF31.89043743820395
aF44.9221548904324
aF54.817880294662984
aF55.31726674375732
aF45.48626166217664
aF73.24616030891995
aF62.6418390534633
aF67.67569726275453
aF86.53323061113575
aF99.72462083156798
aF63.071388124885914
aF38.01315561749642
aF46.04345773288535
aF46.2709412050371
aF52.009614495783374
aF6.708203932499369
aF39.11521443121589
aF80.89499366462674
aF27.65863337187866
aF12.806248474865697
aF72.44308110509934
aF133.3604139165742
aF86.82165628459296
aF71.386273190299
aF34.17601498127012
aF58.412327466040935
aF49.16299421312742
aF50.93132631298737
aF74.46475676452586
aF32.31098884280702
aF73.49829930005184
aF110.6752004741803
aF75.92759709091287
aF59.77457653551382
aF24.20743687382041
aF13.601470508735444
aF46.04345773288535
aF6.708203932499369
aF20.615528128088304
aF40.01249804748511
aF40.45985664828782
aF47.265209192385896
aF7.615773105863909
aF117.64777940955791
aF62.96824596572466
aF17.72004514666935
aF36.069377593742864
aF17.69180601295413
aF57.9396237474839
aF44.41846462902562
aF47.80167361086848
aF30.4138126514911
aF44.40720662234904
aF40.496913462633174
aF14.866068747318506
aF7.615773105863909
aF33.734255586866
aF12.806248474865697
aF8.54400374531753
aF17.0
aF73.55270219373317
aF21.02379604162864
aF5.830951894845301
aF37.73592452822641
aF70.03570517957252
aF46.0
aF140.356688476182
aF78.87331614684399
aF107.07474025184464
aF20.615528128088304
aF67.11929677819934
aF24.08318915758459
aF13.038404810405298
aF11.180339887498949
aF34.828149534535996
aF18.439088914585774
aF45.60701700396552
asg74
(dp965
I124
(lp966
I122
aI460
aI44
aI398
asI125
(lp967
I122
aI450
aI44
aI388
asI126
(lp968
I122
aI450
aI44
aI388
asI127
(lp969
I122
aI450
aI38
aI388
asI128
(lp970
I114
aI454
aI30
aI392
asI129
(lp971
I100
aI458
aI16
aI396
asI130
(lp972
I90
aI466
aI6
aI394
asI131
(lp973
I86
aI466
aI2
aI394
asI132
(lp974
I86
aI464
aI2
aI392
asI133
(lp975
I86
aI458
aI2
aI386
asI134
(lp976
I98
aI458
aI10
aI386
asI135
(lp977
I114
aI456
aI22
aI382
asI136
(lp978
I128
aI450
aI38
aI376
asI137
(lp979
I148
aI450
aI58
aI376
asI138
(lp980
I170
aI446
aI80
aI372
asI139
(lp981
I186
aI440
aI98
aI366
asI140
(lp982
I198
aI436
aI110
aI362
asI141
(lp983
I214
aI430
aI116
aI356
asI142
(lp984
I232
aI430
aI134
aI356
asI143
(lp985
I246
aI432
aI154
aI358
asI144
(lp986
I262
aI436
aI174
aI362
asI145
(lp987
I278
aI448
aI194
aI374
asI146
(lp988
I296
aI452
aI212
aI378
asI147
(lp989
I312
aI454
aI228
aI376
asI148
(lp990
I338
aI458
aI250
aI380
asI149
(lp991
I356
aI464
aI268
aI386
asI150
(lp992
I394
aI468
aI306
aI386
asI151
(lp993
I416
aI468
aI328
aI386
asI152
(lp994
I432
aI472
aI344
aI390
asI153
(lp995
I452
aI472
aI360
aI390
asI154
(lp996
I468
aI470
aI376
aI388
asI155
(lp997
I472
aI470
aI386
aI384
asI156
(lp998
I486
aI464
aI400
aI378
asI157
(lp999
I502
aI462
aI416
aI376
asI158
(lp1000
I520
aI462
aI432
aI374
asI159
(lp1001
I538
aI466
aI446
aI376
asI160
(lp1002
I554
aI460
aI462
aI372
asI161
(lp1003
I570
aI460
aI476
aI372
asI162
(lp1004
I586
aI460
aI488
aI368
asI163
(lp1005
I594
aI458
aI492
aI366
asI164
(lp1006
I604
aI460
aI506
aI362
asI165
(lp1007
I620
aI472
aI512
aI366
asI166
(lp1008
I628
aI478
aI520
aI372
asI167
(lp1009
I638
aI476
aI528
aI386
asI168
(lp1010
I644
aI476
aI534
aI386
asI169
(lp1011
I662
aI480
aI546
aI386
asI170
(lp1012
I676
aI492
aI558
aI390
asI171
(lp1013
I702
aI502
aI570
aI394
asI172
(lp1014
I714
aI508
aI582
aI400
asI173
(lp1015
I720
aI508
aI590
aI400
asI174
(lp1016
I726
aI512
aI596
aI396
asI175
(lp1017
I732
aI514
aI598
aI396
asI176
(lp1018
I740
aI514
aI602
aI396
asI177
(lp1019
I744
aI514
aI606
aI392
asI178
(lp1020
I752
aI516
aI610
aI392
asI179
(lp1021
I764
aI516
aI614
aI390
asI180
(lp1022
I770
aI516
aI616
aI386
asI181
(lp1023
I776
aI520
aI624
aI384
asI182
(lp1024
I778
aI520
aI624
aI382
asI183
(lp1025
I784
aI522
aI624
aI382
asI184
(lp1026
I796
aI524
aI624
aI384
asI185
(lp1027
I786
aI534
aI614
aI388
asI186
(lp1028
I780
aI538
aI606
aI398
asI187
(lp1029
I782
aI548
aI590
aI400
asI188
(lp1030
I770
aI560
aI578
aI408
asI189
(lp1031
I766
aI574
aI568
aI414
asI190
(lp1032
I756
aI588
aI558
aI420
asI191
(lp1033
I752
aI608
aI544
aI434
asI192
(lp1034
I752
aI624
aI532
aI438
asI193
(lp1035
I756
aI630
aI526
aI452
asI194
(lp1036
I748
aI646
aI516
aI458
asI195
(lp1037
I748
aI650
aI510
aI458
asI196
(lp1038
I748
aI658
aI504
aI458
asI197
(lp1039
I750
aI664
aI498
aI458
asI198
(lp1040
I748
aI670
aI492
aI458
asI199
(lp1041
I752
aI676
aI486
aI454
asI200
(lp1042
I750
aI676
aI478
aI448
asI201
(lp1043
I750
aI682
aI460
aI448
asI202
(lp1044
I750
aI674
aI460
aI440
asI203
(lp1045
I742
aI670
aI444
aI432
asI204
(lp1046
I740
aI664
aI434
aI422
asI205
(lp1047
I740
aI662
aI428
aI416
asI206
(lp1048
I746
aI668
aI422
aI404
asI207
(lp1049
I752
aI668
aI420
aI404
asI208
(lp1050
I750
aI668
aI406
aI404
asI209
(lp1051
I748
aI666
aI394
aI402
asI210
(lp1052
I736
aI664
aI372
aI398
asI211
(lp1053
I724
aI670
aI346
aI404
asI212
(lp1054
I728
aI684
aI308
aI402
asI213
(lp1055
I730
aI698
aI310
aI408
asI214
(lp1056
I734
aI702
aI314
aI412
asI215
(lp1057
I728
aI718
aI288
aI434
asI216
(lp1058
I728
aI718
aI288
aI434
asI217
(lp1059
I728
aI718
aI270
aI462
asI218
(lp1060
I718
aI718
aI240
aI474
asI219
(lp1061
I718
aI718
aI222
aI480
asI220
(lp1062
I720
aI718
aI206
aI484
asI221
(lp1063
I712
aI718
aI190
aI486
asI222
(lp1064
I712
aI718
aI172
aI486
asI223
(lp1065
I710
aI718
aI158
aI488
asI224
(lp1066
I708
aI718
aI140
aI488
asI225
(lp1067
I710
aI718
aI134
aI484
asI226
(lp1068
I708
aI718
aI120
aI480
asI227
(lp1069
I714
aI718
aI112
aI470
asI228
(lp1070
I716
aI718
aI110
aI464
asI229
(lp1071
I724
aI718
aI108
aI454
asI230
(lp1072
I730
aI718
aI104
aI444
asI231
(lp1073
I736
aI718
aI102
aI436
asI232
(lp1074
I744
aI718
aI96
aI426
asI233
(lp1075
I746
aI718
aI96
aI420
asI234
(lp1076
I750
aI718
aI82
aI416
asI235
(lp1077
I750
aI718
aI76
aI412
asI236
(lp1078
I750
aI718
aI76
aI412
asI237
(lp1079
I750
aI718
aI70
aI408
asI238
(lp1080
I756
aI718
aI72
aI392
asI239
(lp1081
I762
aI718
aI70
aI372
asI240
(lp1082
I768
aI718
aI76
aI360
asI241
(lp1083
I776
aI718
aI84
aI334
asI242
(lp1084
I784
aI718
aI100
aI334
asI243
(lp1085
I794
aI718
aI104
aI326
asI244
(lp1086
I796
aI718
aI106
aI318
asI245
(lp1087
I802
aI714
aI118
aI314
asI246
(lp1088
I802
aI702
aI118
aI302
asI247
(lp1089
I802
aI702
aI118
aI302
asI248
(lp1090
I804
aI698
aI120
aI298
asI249
(lp1091
I804
aI690
aI120
aI298
asI250
(lp1092
I804
aI674
aI120
aI282
asI251
(lp1093
I806
aI674
aI124
aI282
asI252
(lp1094
I806
aI660
aI124
aI272
asI253
(lp1095
I804
aI646
aI130
aI262
asI254
(lp1096
I802
aI636
aI128
aI252
asI255
(lp1097
I802
aI630
aI128
aI246
asI256
(lp1098
I802
aI630
aI128
aI246
asI257
(lp1099
I800
aI634
aI138
aI252
asI258
(lp1100
I800
aI634
aI138
aI252
asI259
(lp1101
I798
aI636
aI136
aI254
asI260
(lp1102
I794
aI638
aI132
aI256
asI261
(lp1103
I794
aI638
aI132
aI256
asI262
(lp1104
I794
aI640
aI132
aI258
asI263
(lp1105
I792
aI642
aI130
aI260
asI264
(lp1106
I792
aI642
aI130
aI260
asI265
(lp1107
I792
aI642
aI130
aI260
asI266
(lp1108
I790
aI646
aI128
aI264
asI267
(lp1109
I790
aI646
aI128
aI264
asI268
(lp1110
I786
aI648
aI126
aI266
asI269
(lp1111
I786
aI648
aI126
aI266
asI270
(lp1112
I786
aI652
aI126
aI268
asI271
(lp1113
I786
aI652
aI126
aI268
asI272
(lp1114
I786
aI652
aI126
aI268
asI273
(lp1115
I786
aI652
aI126
aI268
asI274
(lp1116
I786
aI652
aI126
aI268
asI275
(lp1117
I786
aI652
aI126
aI268
asI276
(lp1118
I786
aI652
aI126
aI268
asI277
(lp1119
I786
aI652
aI126
aI268
asI278
(lp1120
I786
aI652
aI126
aI268
asI279
(lp1121
I786
aI648
aI126
aI264
asI280
(lp1122
I786
aI648
aI126
aI264
asI281
(lp1123
I792
aI648
aI132
aI264
asI282
(lp1124
I792
aI648
aI132
aI264
asI283
(lp1125
I792
aI648
aI132
aI264
asI284
(lp1126
I800
aI652
aI132
aI264
asI285
(lp1127
I800
aI654
aI132
aI266
asI286
(lp1128
I804
aI656
aI132
aI266
asI287
(lp1129
I804
aI662
aI132
aI268
asI288
(lp1130
I810
aI666
aI132
aI272
assg241
(lp1131
I576
aI238
aI156
aI131
aI119
aI72
aI61
aI50
aI67
aI90
aI50
aI49
aI39
aI30
aI21
aI16
aI21
aI15
aI13
aI8
aI10
aI14
aI15
aI14
aI14
aI11
aI14
aI14
aI12
aI9
aI9
aI10
aI5
aI8
aI13
aI16
aI11
aI10
aI12
aI10
aI18
aI16
aI17
aI16
aI13
aI23
aI14
aI20
aI18
aI22
aI18
aI13
aI14
aI14
aI15
aI14
aI17
aI17
aI17
aI17
aI18
aI14
aI16
aI16
aI17
aI18
aI15
aI17
aI17
aI15
aI16
aI14
aI14
aI15
aI6
aI10
aI7
aI17
aI14
aI18
aI14
aI19
aI20
aI16
aI17
asg243
(lp1132
I576
aI241
aI161
aI136
aI119
aI78
aI70
aI62
aI74
aI95
aI58
aI58
aI45
aI39
aI27
aI27
aI34
aI27
aI20
aI15
aI20
aI21
aI24
aI16
aI20
aI13
aI21
aI20
aI15
aI15
aI13
aI12
aI7
aI15
aI17
aI19
aI16
aI11
aI20
aI14
aI23
aI19
aI23
aI18
aI18
aI28
aI17
aI25
aI25
aI35
aI24
aI17
aI15
aI19
aI17
aI15
aI21
aI20
aI21
aI22
aI22
aI19
aI18
aI20
aI19
aI19
aI18
aI19
aI21
aI18
aI21
aI19
aI18
aI15
aI8
aI15
aI13
aI22
aI18
aI19
aI22
aI24
aI24
aI20
aI19
assI144
(dp1133
g2
F75.0
sg3
(lp1134
S'00144'
p1135
aS'00145'
p1136
aS'00146'
p1137
aS'00147'
p1138
aS'00148'
p1139
aS'00149'
p1140
aS'00150'
p1141
aS'00151'
p1142
aS'00152'
p1143
aS'00153'
p1144
aS'00154'
p1145
aS'00155'
p1146
aS'00156'
p1147
aS'00157'
p1148
aS'00158'
p1149
aS'00159'
p1150
aS'00160'
p1151
aS'00161'
p1152
aS'00165'
p1153
aS'00168'
p1154
aS'00169'
p1155
aS'00174'
p1156
aS'00178'
p1157
aS'00199'
p1158
aS'00204'
p1159
aS'00209'
p1160
aS'00211'
p1161
aS'00220'
p1162
aS'00221'
p1163
aS'00227'
p1164
aS'00237'
p1165
aS'00238'
p1166
aS'00250'
p1167
aS'00257'
p1168
aS'00259'
p1169
aS'00262'
p1170
aS'00265'
p1171
aS'00266'
p1172
aS'00270'
p1173
aS'00271'
p1174
aS'00279'
p1175
aS'00287'
p1176
asg70
(lp1177
F114.97825881443848
aF111.94641575325224
aF111.94641575325224
aF114.6298390472568
aF117.5925167687128
aF117.5925167687128
aF120.28299963003916
aF120.28299963003916
aF120.28299963003916
aF123.23960402403117
aF123.23960402403117
aF121.62236636408618
aF121.62236636408618
aF121.62236636408618
aF124.45079348883236
aF128.70120434556935
aF127.31064370271639
aF128.76334882255898
aF151.32745950421557
aF142.12670403551894
aF149.30505684671232
aF174.22973339817747
aF188.52055590836773
aF346.4678917302439
aF390.1281840626232
aF441.6016304317728
aF462.21207253813697
aF564.7583554052122
aF571.233752504174
aF651.0821760730361
aF747.3285756613352
aF757.7149859940741
aF788.3653975156444
aF764.3088381014575
aF764.3088381014575
aF764.3088381014575
aF764.3088381014575
aF764.3088381014575
aF763.5810369567856
aF763.5810369567856
aF763.5810369567856
aF778.9865210643892
asg72
(lp1178
F2.8284271247461903
aF5.385164807134504
aF3.1622776601683795
aF16.401219466856727
aF17.72004514666935
aF18.439088914585774
aF9.433981132056603
aF12.649110640673518
aF48.38388161361178
aF12.041594578792296
aF44.553338819890925
aF65.11528238439882
aF31.04834939252005
aF23.430749027719962
aF22.80350850198276
aF71.50524456289902
aF68.6804193347711
aF69.31089380465383
aF72.18032973047436
aF423.27414284361856
aF73.53910524340094
aF427.0702518321781
aF546.9378392468379
aF603.9023099806789
aF248.26195842295292
aF349.4638751001311
aF615.37630763623
aF340.99266854288817
aF127.76932339180638
aF417.71401700206326
aF348.7377237982722
aF687.4976363595732
aF506.7879240865946
aF372.1787205093811
aF499.63987030660394
aF480.09374084651427
aF630.6195366463047
aF498.3813800695207
aF479.8176737053357
aF478.87576677046417
aF477.87550680067295
aF459.436611514581
asg74
(dp1179
I124
(lp1180
I122
aI460
aI44
aI398
asI125
(lp1181
I122
aI450
aI44
aI388
asI126
(lp1182
I122
aI450
aI44
aI388
asI127
(lp1183
I122
aI450
aI38
aI388
asI128
(lp1184
I114
aI454
aI30
aI392
asI129
(lp1185
I100
aI458
aI16
aI396
asI130
(lp1186
I90
aI466
aI6
aI394
asI131
(lp1187
I86
aI466
aI2
aI394
asI132
(lp1188
I86
aI464
aI2
aI392
asI133
(lp1189
I86
aI458
aI2
aI386
asI134
(lp1190
I98
aI458
aI10
aI386
asI135
(lp1191
I114
aI456
aI22
aI382
asI136
(lp1192
I128
aI450
aI38
aI376
asI137
(lp1193
I148
aI450
aI58
aI376
asI138
(lp1194
I170
aI446
aI80
aI372
asI139
(lp1195
I186
aI440
aI98
aI366
asI140
(lp1196
I198
aI436
aI110
aI362
asI141
(lp1197
I214
aI430
aI116
aI356
asI142
(lp1198
I232
aI430
aI134
aI356
asI143
(lp1199
I246
aI432
aI154
aI358
asI144
(lp1200
I262
aI436
aI174
aI362
asI145
(lp1201
I278
aI448
aI194
aI374
asI146
(lp1202
I296
aI452
aI212
aI378
asI147
(lp1203
I312
aI454
aI228
aI376
asI148
(lp1204
I338
aI458
aI250
aI380
asI149
(lp1205
I356
aI464
aI268
aI386
asI150
(lp1206
I394
aI468
aI306
aI386
asI151
(lp1207
I416
aI468
aI328
aI386
asI152
(lp1208
I432
aI472
aI344
aI390
asI153
(lp1209
I452
aI472
aI360
aI390
asI154
(lp1210
I468
aI470
aI376
aI388
asI155
(lp1211
I472
aI470
aI386
aI384
asI156
(lp1212
I486
aI464
aI400
aI378
asI157
(lp1213
I502
aI462
aI416
aI376
asI158
(lp1214
I520
aI462
aI432
aI374
asI159
(lp1215
I538
aI466
aI446
aI376
asI160
(lp1216
I554
aI460
aI462
aI372
asI161
(lp1217
I570
aI460
aI476
aI372
asI162
(lp1218
I586
aI460
aI488
aI368
asI163
(lp1219
I594
aI458
aI492
aI366
asI164
(lp1220
I604
aI460
aI506
aI362
asI165
(lp1221
I620
aI472
aI512
aI366
asI166
(lp1222
I628
aI478
aI520
aI372
asI167
(lp1223
I638
aI476
aI528
aI386
asI168
(lp1224
I644
aI476
aI534
aI386
asI169
(lp1225
I662
aI480
aI546
aI386
asI170
(lp1226
I676
aI492
aI558
aI390
asI171
(lp1227
I702
aI502
aI570
aI394
asI172
(lp1228
I714
aI508
aI582
aI400
asI173
(lp1229
I720
aI508
aI590
aI400
asI174
(lp1230
I726
aI512
aI596
aI396
asI175
(lp1231
I732
aI514
aI598
aI396
asI176
(lp1232
I740
aI514
aI602
aI396
asI177
(lp1233
I744
aI514
aI606
aI392
asI178
(lp1234
I752
aI516
aI610
aI392
asI179
(lp1235
I764
aI516
aI614
aI390
asI180
(lp1236
I770
aI516
aI616
aI386
asI181
(lp1237
I776
aI520
aI624
aI384
asI182
(lp1238
I778
aI520
aI624
aI382
asI183
(lp1239
I784
aI522
aI624
aI382
asI184
(lp1240
I796
aI524
aI624
aI384
asI185
(lp1241
I786
aI534
aI614
aI388
asI186
(lp1242
I780
aI538
aI606
aI398
asI187
(lp1243
I782
aI548
aI590
aI400
asI188
(lp1244
I770
aI560
aI578
aI408
asI189
(lp1245
I766
aI574
aI568
aI414
asI190
(lp1246
I756
aI588
aI558
aI420
asI191
(lp1247
I752
aI608
aI544
aI434
asI192
(lp1248
I752
aI624
aI532
aI438
asI193
(lp1249
I756
aI630
aI526
aI452
asI194
(lp1250
I748
aI646
aI516
aI458
asI195
(lp1251
I748
aI650
aI510
aI458
asI196
(lp1252
I748
aI658
aI504
aI458
asI197
(lp1253
I750
aI664
aI498
aI458
asI198
(lp1254
I748
aI670
aI492
aI458
asI199
(lp1255
I752
aI676
aI486
aI454
asI200
(lp1256
I750
aI676
aI478
aI448
asI201
(lp1257
I750
aI682
aI460
aI448
asI202
(lp1258
I750
aI674
aI460
aI440
asI203
(lp1259
I742
aI670
aI444
aI432
asI204
(lp1260
I740
aI664
aI434
aI422
asI205
(lp1261
I740
aI662
aI428
aI416
asI206
(lp1262
I746
aI668
aI422
aI404
asI207
(lp1263
I752
aI668
aI420
aI404
asI208
(lp1264
I750
aI668
aI406
aI404
asI209
(lp1265
I748
aI666
aI394
aI402
asI210
(lp1266
I736
aI664
aI372
aI398
asI211
(lp1267
I724
aI670
aI346
aI404
asI212
(lp1268
I728
aI684
aI308
aI402
asI213
(lp1269
I730
aI698
aI310
aI408
asI214
(lp1270
I734
aI702
aI314
aI412
asI215
(lp1271
I728
aI718
aI288
aI434
asI216
(lp1272
I728
aI718
aI288
aI434
asI217
(lp1273
I728
aI718
aI270
aI462
asI218
(lp1274
I718
aI718
aI240
aI474
asI219
(lp1275
I718
aI718
aI222
aI480
asI220
(lp1276
I720
aI718
aI206
aI484
asI221
(lp1277
I712
aI718
aI190
aI486
asI222
(lp1278
I712
aI718
aI172
aI486
asI223
(lp1279
I710
aI718
aI158
aI488
asI224
(lp1280
I708
aI718
aI140
aI488
asI225
(lp1281
I710
aI718
aI134
aI484
asI226
(lp1282
I708
aI718
aI120
aI480
asI227
(lp1283
I714
aI718
aI112
aI470
asI228
(lp1284
I716
aI718
aI110
aI464
asI229
(lp1285
I724
aI718
aI108
aI454
asI230
(lp1286
I730
aI718
aI104
aI444
asI231
(lp1287
I736
aI718
aI102
aI436
asI232
(lp1288
I744
aI718
aI96
aI426
asI233
(lp1289
I746
aI718
aI96
aI420
asI234
(lp1290
I750
aI718
aI82
aI416
asI235
(lp1291
I750
aI718
aI76
aI412
asI236
(lp1292
I750
aI718
aI76
aI412
asI237
(lp1293
I750
aI718
aI70
aI408
asI238
(lp1294
I756
aI718
aI72
aI392
asI239
(lp1295
I762
aI718
aI70
aI372
asI240
(lp1296
I768
aI718
aI76
aI360
asI241
(lp1297
I776
aI718
aI84
aI334
asI242
(lp1298
I784
aI718
aI100
aI334
asI243
(lp1299
I794
aI718
aI104
aI326
asI244
(lp1300
I796
aI718
aI106
aI318
asI245
(lp1301
I802
aI714
aI118
aI314
asI246
(lp1302
I802
aI702
aI118
aI302
asI247
(lp1303
I802
aI702
aI118
aI302
asI248
(lp1304
I804
aI698
aI120
aI298
asI249
(lp1305
I804
aI690
aI120
aI298
asI250
(lp1306
I804
aI674
aI120
aI282
asI251
(lp1307
I806
aI674
aI124
aI282
asI252
(lp1308
I806
aI660
aI124
aI272
asI253
(lp1309
I804
aI646
aI130
aI262
asI254
(lp1310
I802
aI636
aI128
aI252
asI255
(lp1311
I802
aI630
aI128
aI246
asI256
(lp1312
I802
aI630
aI128
aI246
asI257
(lp1313
I800
aI634
aI138
aI252
asI258
(lp1314
I800
aI634
aI138
aI252
asI259
(lp1315
I798
aI636
aI136
aI254
asI260
(lp1316
I794
aI638
aI132
aI256
asI261
(lp1317
I794
aI638
aI132
aI256
asI262
(lp1318
I794
aI640
aI132
aI258
asI263
(lp1319
I792
aI642
aI130
aI260
asI264
(lp1320
I792
aI642
aI130
aI260
asI265
(lp1321
I792
aI642
aI130
aI260
asI266
(lp1322
I790
aI646
aI128
aI264
asI267
(lp1323
I790
aI646
aI128
aI264
asI268
(lp1324
I786
aI648
aI126
aI266
asI269
(lp1325
I786
aI648
aI126
aI266
asI270
(lp1326
I786
aI652
aI126
aI268
asI271
(lp1327
I786
aI652
aI126
aI268
asI272
(lp1328
I786
aI652
aI126
aI268
asI273
(lp1329
I786
aI652
aI126
aI268
asI274
(lp1330
I786
aI652
aI126
aI268
asI275
(lp1331
I786
aI652
aI126
aI268
asI276
(lp1332
I786
aI652
aI126
aI268
asI277
(lp1333
I786
aI652
aI126
aI268
asI278
(lp1334
I786
aI652
aI126
aI268
asI279
(lp1335
I786
aI648
aI126
aI264
asI280
(lp1336
I786
aI648
aI126
aI264
asI281
(lp1337
I792
aI648
aI132
aI264
asI282
(lp1338
I792
aI648
aI132
aI264
asI283
(lp1339
I792
aI648
aI132
aI264
asI284
(lp1340
I800
aI652
aI132
aI264
asI285
(lp1341
I800
aI654
aI132
aI266
asI286
(lp1342
I804
aI656
aI132
aI266
asI287
(lp1343
I804
aI662
aI132
aI268
asI288
(lp1344
I810
aI666
aI132
aI272
assg241
(lp1345
I40
aI14
aI8
aI7
aI10
aI7
aI6
aI4
aI3
aI5
aI2
aI0
aI1
aI2
aI2
aI0
aI0
aI0
aI1
aI0
aI0
aI0
aI0
aI0
aI0
aI0
aI0
aI0
aI1
aI0
aI0
aI0
aI0
aI1
aI0
aI0
aI0
aI0
aI0
aI0
aI0
aI0
asg243
(lp1346
I40
aI14
aI8
aI7
aI12
aI9
aI8
aI4
aI4
aI5
aI2
aI1
aI2
aI3
aI3
aI1
aI1
aI1
aI1
aI1
aI1
aI1
aI1
aI1
aI1
aI1
aI1
aI1
aI1
aI1
aI1
aI1
aI1
aI2
aI1
aI1
aI2
aI1
aI1
aI1
aI1
aI2
assI244
(dp1347
g2
F95.56502471450486
sg3
(lp1348
S'00244'
p1349
aS'00245'
p1350
aS'00246'
p1351
aS'00247'
p1352
aS'00248'
p1353
aS'00249'
p1354
aS'00250'
p1355
aS'00251'
p1356
aS'00252'
p1357
aS'00253'
p1358
aS'00254'
p1359
aS'00255'
p1360
aS'00256'
p1361
aS'00257'
p1362
aS'00258'
p1363
aS'00259'
p1364
aS'00260'
p1365
aS'00261'
p1366
aS'00262'
p1367
aS'00263'
p1368
aS'00264'
p1369
aS'00265'
p1370
aS'00266'
p1371
aS'00267'
p1372
aS'00268'
p1373
aS'00269'
p1374
aS'00270'
p1375
aS'00271'
p1376
aS'00272'
p1377
aS'00273'
p1378
aS'00274'
p1379
aS'00275'
p1380
aS'00276'
p1381
aS'00277'
p1382
aS'00278'
p1383
aS'00279'
p1384
aS'00280'
p1385
aS'00281'
p1386
aS'00282'
p1387
aS'00283'
p1388
aS'00284'
p1389
aS'00285'
p1390
aS'00286'
p1391
aS'00287'
p1392
aS'00288'
p1393
asg70
(lp1394
F797.5587752636166
aF792.3736492337438
aF792.3736492337438
aF792.3736492337438
aF792.3736492337438
aF788.3653975156444
aF788.3653975156444
aF786.630790142364
aF784.6451427237665
aF775.7138647723141
aF775.7138647723141
aF775.7138647723141
aF775.7138647723141
aF764.3088381014575
aF764.3088381014575
aF764.3088381014575
aF764.3088381014575
aF764.3088381014575
aF764.3088381014575
aF764.3088381014575
aF764.3088381014575
aF764.3088381014575
aF764.3088381014575
aF764.3088381014575
aF762.5772092057302
aF762.5772092057302
aF763.5810369567856
aF763.5810369567856
aF763.5810369567856
aF763.5810369567856
aF763.5810369567856
aF763.5810369567856
aF763.5810369567856
aF763.5810369567856
aF763.5810369567856
aF763.5810369567856
aF763.5810369567856
aF763.5810369567856
aF763.5810369567856
aF763.5810369567856
aF772.5076051405579
aF772.5076051405579
aF776.9710419314223
aF778.9865210643892
aF784.1683492720169
asg72
(lp1395
F62.26556030423239
aF57.8013840664737
aF48.30113870293329
aF49.193495504995376
aF68.00735254367721
aF69.8927750200262
aF78.85429601486528
aF89.49301648732151
aF71.5122367151245
aF76.40026177965623
aF67.89698078707183
aF62.80127387243033
aF60.166435825965294
aF56.92099788303083
aF52.20153254455275
aF61.1310068623117
aF54.70831746635972
aF41.593268686170845
aF49.39635614091387
aF51.86520991955976
aF49.33558553417604
aF49.658836071740545
aF51.0
aF52.92447448959697
aF42.95346318982906
aF42.720018726587654
aF33.015148038438355
aF50.59644256269407
aF48.33218389437829
aF43.382023926967726
aF47.92702786528704
aF36.6742416417845
aF53.85164807134504
aF53.31041174104736
aF57.584720195551874
aF68.65857557508748
aF67.72001181334805
aF64.25729530566937
aF57.0087712549569
aF62.96824596572466
aF60.8276253029822
aF59.135437767890075
aF55.54277630799526
aF66.30987860040162
aF64.8459713474939
asg74
(dp1396
I124
(lp1397
I122
aI460
aI44
aI398
asI125
(lp1398
I122
aI450
aI44
aI388
asI126
(lp1399
I122
aI450
aI44
aI388
asI127
(lp1400
I122
aI450
aI38
aI388
asI128
(lp1401
I114
aI454
aI30
aI392
asI129
(lp1402
I100
aI458
aI16
aI396
asI130
(lp1403
I90
aI466
aI6
aI394
asI131
(lp1404
I86
aI466
aI2
aI394
asI132
(lp1405
I86
aI464
aI2
aI392
asI133
(lp1406
I86
aI458
aI2
aI386
asI134
(lp1407
I98
aI458
aI10
aI386
asI135
(lp1408
I114
aI456
aI22
aI382
asI136
(lp1409
I128
aI450
aI38
aI376
asI137
(lp1410
I148
aI450
aI58
aI376
asI138
(lp1411
I170
aI446
aI80
aI372
asI139
(lp1412
I186
aI440
aI98
aI366
asI140
(lp1413
I198
aI436
aI110
aI362
asI141
(lp1414
I214
aI430
aI116
aI356
asI142
(lp1415
I232
aI430
aI134
aI356
asI143
(lp1416
I246
aI432
aI154
aI358
asI144
(lp1417
I262
aI436
aI174
aI362
asI145
(lp1418
I278
aI448
aI194
aI374
asI146
(lp1419
I296
aI452
aI212
aI378
asI147
(lp1420
I312
aI454
aI228
aI376
asI148
(lp1421
I338
aI458
aI250
aI380
asI149
(lp1422
I356
aI464
aI268
aI386
asI150
(lp1423
I394
aI468
aI306
aI386
asI151
(lp1424
I416
aI468
aI328
aI386
asI152
(lp1425
I432
aI472
aI344
aI390
asI153
(lp1426
I452
aI472
aI360
aI390
asI154
(lp1427
I468
aI470
aI376
aI388
asI155
(lp1428
I472
aI470
aI386
aI384
asI156
(lp1429
I486
aI464
aI400
aI378
asI157
(lp1430
I502
aI462
aI416
aI376
asI158
(lp1431
I520
aI462
aI432
aI374
asI159
(lp1432
I538
aI466
aI446
aI376
asI160
(lp1433
I554
aI460
aI462
aI372
asI161
(lp1434
I570
aI460
aI476
aI372
asI162
(lp1435
I586
aI460
aI488
aI368
asI163
(lp1436
I594
aI458
aI492
aI366
asI164
(lp1437
I604
aI460
aI506
aI362
asI165
(lp1438
I620
aI472
aI512
aI366
asI166
(lp1439
I628
aI478
aI520
aI372
asI167
(lp1440
I638
aI476
aI528
aI386
asI168
(lp1441
I644
aI476
aI534
aI386
asI169
(lp1442
I662
aI480
aI546
aI386
asI170
(lp1443
I676
aI492
aI558
aI390
asI171
(lp1444
I702
aI502
aI570
aI394
asI172
(lp1445
I714
aI508
aI582
aI400
asI173
(lp1446
I720
aI508
aI590
aI400
asI174
(lp1447
I726
aI512
aI596
aI396
asI175
(lp1448
I732
aI514
aI598
aI396
asI176
(lp1449
I740
aI514
aI602
aI396
asI177
(lp1450
I744
aI514
aI606
aI392
asI178
(lp1451
I752
aI516
aI610
aI392
asI179
(lp1452
I764
aI516
aI614
aI390
asI180
(lp1453
I770
aI516
aI616
aI386
asI181
(lp1454
I776
aI520
aI624
aI384
asI182
(lp1455
I778
aI520
aI624
aI382
asI183
(lp1456
I784
aI522
aI624
aI382
asI184
(lp1457
I796
aI524
aI624
aI384
asI185
(lp1458
I786
aI534
aI614
aI388
asI186
(lp1459
I780
aI538
aI606
aI398
asI187
(lp1460
I782
aI548
aI590
aI400
asI188
(lp1461
I770
aI560
aI578
aI408
asI189
(lp1462
I766
aI574
aI568
aI414
asI190
(lp1463
I756
aI588
aI558
aI420
asI191
(lp1464
I752
aI608
aI544
aI434
asI192
(lp1465
I752
aI624
aI532
aI438
asI193
(lp1466
I756
aI630
aI526
aI452
asI194
(lp1467
I748
aI646
aI516
aI458
asI195
(lp1468
I748
aI650
aI510
aI458
asI196
(lp1469
I748
aI658
aI504
aI458
asI197
(lp1470
I750
aI664
aI498
aI458
asI198
(lp1471
I748
aI670
aI492
aI458
asI199
(lp1472
I752
aI676
aI486
aI454
asI200
(lp1473
I750
aI676
aI478
aI448
asI201
(lp1474
I750
aI682
aI460
aI448
asI202
(lp1475
I750
aI674
aI460
aI440
asI203
(lp1476
I742
aI670
aI444
aI432
asI204
(lp1477
I740
aI664
aI434
aI422
asI205
(lp1478
I740
aI662
aI428
aI416
asI206
(lp1479
I746
aI668
aI422
aI404
asI207
(lp1480
I752
aI668
aI420
aI404
asI208
(lp1481
I750
aI668
aI406
aI404
asI209
(lp1482
I748
aI666
aI394
aI402
asI210
(lp1483
I736
aI664
aI372
aI398
asI211
(lp1484
I724
aI670
aI346
aI404
asI212
(lp1485
I728
aI684
aI308
aI402
asI213
(lp1486
I730
aI698
aI310
aI408
asI214
(lp1487
I734
aI702
aI314
aI412
asI215
(lp1488
I728
aI718
aI288
aI434
asI216
(lp1489
I728
aI718
aI288
aI434
asI217
(lp1490
I728
aI718
aI270
aI462
asI218
(lp1491
I718
aI718
aI240
aI474
asI219
(lp1492
I718
aI718
aI222
aI480
asI220
(lp1493
I720
aI718
aI206
aI484
asI221
(lp1494
I712
aI718
aI190
aI486
asI222
(lp1495
I712
aI718
aI172
aI486
asI223
(lp1496
I710
aI718
aI158
aI488
asI224
(lp1497
I708
aI718
aI140
aI488
asI225
(lp1498
I710
aI718
aI134
aI484
asI226
(lp1499
I708
aI718
aI120
aI480
asI227
(lp1500
I714
aI718
aI112
aI470
asI228
(lp1501
I716
aI718
aI110
aI464
asI229
(lp1502
I724
aI718
aI108
aI454
asI230
(lp1503
I730
aI718
aI104
aI444
asI231
(lp1504
I736
aI718
aI102
aI436
asI232
(lp1505
I744
aI718
aI96
aI426
asI233
(lp1506
I746
aI718
aI96
aI420
asI234
(lp1507
I750
aI718
aI82
aI416
asI235
(lp1508
I750
aI718
aI76
aI412
asI236
(lp1509
I750
aI718
aI76
aI412
asI237
(lp1510
I750
aI718
aI70
aI408
asI238
(lp1511
I756
aI718
aI72
aI392
asI239
(lp1512
I762
aI718
aI70
aI372
asI240
(lp1513
I768
aI718
aI76
aI360
asI241
(lp1514
I776
aI718
aI84
aI334
asI242
(lp1515
I784
aI718
aI100
aI334
asI243
(lp1516
I794
aI718
aI104
aI326
asI244
(lp1517
I796
aI718
aI106
aI318
asI245
(lp1518
I802
aI714
aI118
aI314
asI246
(lp1519
I802
aI702
aI118
aI302
asI247
(lp1520
I802
aI702
aI118
aI302
asI248
(lp1521
I804
aI698
aI120
aI298
asI249
(lp1522
I804
aI690
aI120
aI298
asI250
(lp1523
I804
aI674
aI120
aI282
asI251
(lp1524
I806
aI674
aI124
aI282
asI252
(lp1525
I806
aI660
aI124
aI272
asI253
(lp1526
I804
aI646
aI130
aI262
asI254
(lp1527
I802
aI636
aI128
aI252
asI255
(lp1528
I802
aI630
aI128
aI246
asI256
(lp1529
I802
aI630
aI128
aI246
asI257
(lp1530
I800
aI634
aI138
aI252
asI258
(lp1531
I800
aI634
aI138
aI252
asI259
(lp1532
I798
aI636
aI136
aI254
asI260
(lp1533
I794
aI638
aI132
aI256
asI261
(lp1534
I794
aI638
aI132
aI256
asI262
(lp1535
I794
aI640
aI132
aI258
asI263
(lp1536
I792
aI642
aI130
aI260
asI264
(lp1537
I792
aI642
aI130
aI260
asI265
(lp1538
I792
aI642
aI130
aI260
asI266
(lp1539
I790
aI646
aI128
aI264
asI267
(lp1540
I790
aI646
aI128
aI264
asI268
(lp1541
I786
aI648
aI126
aI266
asI269
(lp1542
I786
aI648
aI126
aI266
asI270
(lp1543
I786
aI652
aI126
aI268
asI271
(lp1544
I786
aI652
aI126
aI268
asI272
(lp1545
I786
aI652
aI126
aI268
asI273
(lp1546
I786
aI652
aI126
aI268
asI274
(lp1547
I786
aI652
aI126
aI268
asI275
(lp1548
I786
aI652
aI126
aI268
asI276
(lp1549
I786
aI652
aI126
aI268
asI277
(lp1550
I786
aI652
aI126
aI268
asI278
(lp1551
I786
aI652
aI126
aI268
asI279
(lp1552
I786
aI648
aI126
aI264
asI280
(lp1553
I786
aI648
aI126
aI264
asI281
(lp1554
I792
aI648
aI132
aI264
asI282
(lp1555
I792
aI648
aI132
aI264
asI283
(lp1556
I792
aI648
aI132
aI264
asI284
(lp1557
I800
aI652
aI132
aI264
asI285
(lp1558
I800
aI654
aI132
aI266
asI286
(lp1559
I804
aI656
aI132
aI266
asI287
(lp1560
I804
aI662
aI132
aI268
asI288
(lp1561
I810
aI666
aI132
aI272
assg241
(lp1562
I1902
aI1038
aI884
aI831
aI814
aI869
aI795
aI704
aI576
aI488
aI568
aI683
aI578
aI569
aI592
aI601
aI578
aI520
aI529
aI552
aI554
aI537
aI518
aI536
aI545
aI529
aI508
aI536
aI528
aI538
aI517
aI547
aI487
aI516
aI519
aI517
aI521
aI555
aI536
aI526
aI550
aI556
aI571
aI564
aI552
asg243
(lp1563
I1902
aI1078
aI919
aI858
aI838
aI904
aI807
aI712
aI593
aI500
aI580
aI698
aI605
aI606
aI627
aI627
aI606
aI556
aI572
aI590
aI591
aI577
aI550
aI567
aI581
aI560
aI541
aI571
aI569
aI575
aI553
aI580
aI521
aI545
aI548
aI548
aI558
aI594
aI556
aI557
aI570
aI582
aI595
aI589
aI579
assI184
(dp1564
g2
F83.82905982905983
sg3
(lp1565
S'00184'
p1566
aS'00185'
p1567
aS'00186'
p1568
aS'00187'
p1569
aS'00188'
p1570
aS'00189'
p1571
aS'00190'
p1572
aS'00191'
p1573
aS'00192'
p1574
aS'00193'
p1575
aS'00194'
p1576
aS'00195'
p1577
aS'00196'
p1578
aS'00197'
p1579
aS'00198'
p1580
aS'00199'
p1581
aS'00200'
p1582
aS'00201'
p1583
aS'00202'
p1584
aS'00203'
p1585
aS'00204'
p1586
aS'00205'
p1587
aS'00206'
p1588
aS'00207'
p1589
aS'00208'
p1590
aS'00209'
p1591
aS'00210'
p1592
aS'00211'
p1593
aS'00212'
p1594
aS'00213'
p1595
aS'00214'
p1596
aS'00215'
p1597
aS'00216'
p1598
aS'00217'
p1599
aS'00218'
p1600
aS'00219'
p1601
aS'00220'
p1602
aS'00221'
p1603
aS'00222'
p1604
aS'00223'
p1605
aS'00224'
p1606
aS'00225'
p1607
aS'00226'
p1608
aS'00227'
p1609
aS'00228'
p1610
aS'00229'
p1611
aS'00230'
p1612
aS'00231'
p1613
aS'00232'
p1614
aS'00233'
p1615
aS'00234'
p1616
aS'00235'
p1617
aS'00236'
p1618
aS'00237'
p1619
aS'00238'
p1620
aS'00239'
p1621
aS'00240'
p1622
aS'00241'
p1623
aS'00242'
p1624
aS'00243'
p1625
aS'00244'
p1626
aS'00245'
p1627
aS'00246'
p1628
aS'00247'
p1629
aS'00248'
p1630
aS'00249'
p1631
aS'00250'
p1632
aS'00251'
p1633
aS'00252'
p1634
aS'00253'
p1635
aS'00254'
p1636
aS'00255'
p1637
aS'00256'
p1638
aS'00257'
p1639
aS'00258'
p1640
aS'00259'
p1641
aS'00260'
p1642
aS'00261'
p1643
aS'00262'
p1644
aS'00263'
p1645
aS'00264'
p1646
aS'00265'
p1647
aS'00266'
p1648
aS'00267'
p1649
aS'00268'
p1650
aS'00269'
p1651
aS'00270'
p1652
aS'00271'
p1653
aS'00272'
p1654
aS'00273'
p1655
aS'00274'
p1656
aS'00275'
p1657
aS'00276'
p1658
aS'00277'
p1659
aS'00278'
p1660
aS'00279'
p1661
aS'00280'
p1662
aS'00281'
p1663
aS'00282'
p1664
aS'00283'
p1665
aS'00284'
p1666
aS'00285'
p1667
aS'00286'
p1668
aS'00287'
p1669
aS'00288'
p1670
asg70
(lp1671
F221.7746604100658
aF225.61028345356956
aF223.32935319836486
aF242.42112119202815
aF244.88364584022347
aF254.566297847928
aF259.6690201005888
aF271.1825953117198
aF288.0902636327719
aF290.83328557783756
aF298.61011369342464
aF305.7907781474124
aF315.49326458737596
aF325.48425461149424
aF332.38531856867564
aF346.4678917302439
aF354.91970923012997
aF372.63386856269517
aF372.63386856269517
aF381.37645443839347
aF390.1281840626232
aF397.3159951474393
aF417.93779441443195
aF424.16977732978575
aF433.62656745176486
aF441.6016304317728
aF450.8347812669293
aF462.21207253813697
aF505.8893159575521
aF510.3920062069938
aF510.3920062069938
aF523.6945674723006
aF523.6945674723006
aF524.6903848937962
aF536.674948176268
aF550.1454353168806
aF564.7583554052122
aF571.233752504174
aF587.7278281653847
aF598.0
aF612.800130548289
aF621.7169774101395
aF634.3406025157147
aF651.0821760730361
aF657.0783819301926
aF670.188033316024
aF683.3388617662544
aF693.8875989668644
aF710.7517147358844
aF715.0552426211558
aF733.0948096938076
aF740.2107807915256
aF740.2107807915256
aF747.3285756613352
aF757.7149859940741
aF773.6795202149273
aF779.1200164287912
aF791.403816013039
aF784.4182557794024
aF793.5767133680272
aF797.5587752636166
aF792.3736492337438
aF792.3736492337438
aF792.3736492337438
aF792.3736492337438
aF788.3653975156444
aF788.3653975156444
aF786.630790142364
aF784.6451427237665
aF775.7138647723141
aF775.7138647723141
aF775.7138647723141
aF775.7138647723141
aF764.3088381014575
aF764.3088381014575
aF764.3088381014575
aF764.3088381014575
aF764.3088381014575
aF764.3088381014575
aF764.3088381014575
aF764.3088381014575
aF764.3088381014575
aF764.3088381014575
aF764.3088381014575
aF762.5772092057302
aF762.5772092057302
aF763.5810369567856
aF763.5810369567856
aF763.5810369567856
aF763.5810369567856
aF763.5810369567856
aF763.5810369567856
aF763.5810369567856
aF763.5810369567856
aF763.5810369567856
aF763.5810369567856
aF763.5810369567856
aF763.5810369567856
aF763.5810369567856
aF763.5810369567856
aF772.5076051405579
aF772.5076051405579
aF776.9710419314223
aF778.9865210643892
aF784.1683492720169
asg72
(lp1672
F4.47213595499958
aF20.248456731316587
aF18.027756377319946
aF19.235384061671343
aF22.47220505424423
aF27.65863337187866
aF21.93171219946131
aF22.825424421026653
aF9.055385138137417
aF24.041630560342615
aF20.12461179749811
aF16.15549442140351
aF14.212670403551895
aF2.23606797749979
aF18.35755975068582
aF3.1622776601683795
aF7.211102550927978
aF15.297058540778355
aF30.14962686336267
aF54.12947441089743
aF35.510561809129406
aF26.476404589747453
aF15.811388300841896
aF48.46648326421054
aF41.88078318274385
aF99.32774033471213
aF97.52948272189288
aF97.082439194738
aF48.08326112068523
aF39.81205847478876
aF56.08029957123981
aF33.1058907144937
aF38.07886552931954
aF7.0710678118654755
aF111.6288493177279
aF105.38026380684383
aF30.23243291566195
aF21.633307652783937
aF278.4690287985362
aF43.41658669218482
aF384.2199890687625
aF449.2705198430006
aF441.72615951514575
aF348.5742388645495
aF437.2241987813575
aF439.0284728807461
aF101.96568050084302
aF49.4064773081425
aF84.52810183601665
aF140.6840431605518
aF174.23260314877925
aF458.8431104419026
aF131.5750736271882
aF98.29038610159185
aF157.08914666519772
aF157.99050604387594
aF95.42536350467836
aF144.53373308677806
aF105.1094667477673
aF88.05679985100527
aF117.44360348695028
aF71.11258679024411
aF68.06614430096654
aF82.28000972289685
aF172.12204972053988
aF120.30378215168466
aF94.08506789071261
aF179.2344832893492
aF130.50670480860362
aF24.73863375370596
aF83.38465086573187
aF142.00352108310554
aF89.26925562588724
aF108.90821823902914
aF56.08029957123981
aF53.16013544000805
aF40.607881008493905
aF99.53893710503444
aF109.04127658827184
aF104.5609869884557
aF28.231188426986208
aF64.8459713474939
aF69.77105417004964
aF86.2670273047588
aF97.0051545022222
aF92.20086767487604
aF28.319604517012593
aF100.84145972763385
aF28.844410203711913
aF107.00467279516349
aF93.04837451562494
aF60.8276253029822
aF23.08679276123039
aF87.09190547921202
aF136.194713553794
aF115.43396380615195
aF86.31338250816034
aF151.5585695366646
aF111.19802156513397
aF68.8839603971781
aF121.27654348636426
aF110.11357772772621
aF93.08598175880189
aF135.1332675546625
aF149.4824404403407
asg74
(dp1673
I124
(lp1674
I122
aI460
aI44
aI398
asI125
(lp1675
I122
aI450
aI44
aI388
asI126
(lp1676
I122
aI450
aI44
aI388
asI127
(lp1677
I122
aI450
aI38
aI388
asI128
(lp1678
I114
aI454
aI30
aI392
asI129
(lp1679
I100
aI458
aI16
aI396
asI130
(lp1680
I90
aI466
aI6
aI394
asI131
(lp1681
I86
aI466
aI2
aI394
asI132
(lp1682
I86
aI464
aI2
aI392
asI133
(lp1683
I86
aI458
aI2
aI386
asI134
(lp1684
I98
aI458
aI10
aI386
asI135
(lp1685
I114
aI456
aI22
aI382
asI136
(lp1686
I128
aI450
aI38
aI376
asI137
(lp1687
I148
aI450
aI58
aI376
asI138
(lp1688
I170
aI446
aI80
aI372
asI139
(lp1689
I186
aI440
aI98
aI366
asI140
(lp1690
I198
aI436
aI110
aI362
asI141
(lp1691
I214
aI430
aI116
aI356
asI142
(lp1692
I232
aI430
aI134
aI356
asI143
(lp1693
I246
aI432
aI154
aI358
asI144
(lp1694
I262
aI436
aI174
aI362
asI145
(lp1695
I278
aI448
aI194
aI374
asI146
(lp1696
I296
aI452
aI212
aI378
asI147
(lp1697
I312
aI454
aI228
aI376
asI148
(lp1698
I338
aI458
aI250
aI380
asI149
(lp1699
I356
aI464
aI268
aI386
asI150
(lp1700
I394
aI468
aI306
aI386
asI151
(lp1701
I416
aI468
aI328
aI386
asI152
(lp1702
I432
aI472
aI344
aI390
asI153
(lp1703
I452
aI472
aI360
aI390
asI154
(lp1704
I468
aI470
aI376
aI388
asI155
(lp1705
I472
aI470
aI386
aI384
asI156
(lp1706
I486
aI464
aI400
aI378
asI157
(lp1707
I502
aI462
aI416
aI376
asI158
(lp1708
I520
aI462
aI432
aI374
asI159
(lp1709
I538
aI466
aI446
aI376
asI160
(lp1710
I554
aI460
aI462
aI372
asI161
(lp1711
I570
aI460
aI476
aI372
asI162
(lp1712
I586
aI460
aI488
aI368
asI163
(lp1713
I594
aI458
aI492
aI366
asI164
(lp1714
I604
aI460
aI506
aI362
asI165
(lp1715
I620
aI472
aI512
aI366
asI166
(lp1716
I628
aI478
aI520
aI372
asI167
(lp1717
I638
aI476
aI528
aI386
asI168
(lp1718
I644
aI476
aI534
aI386
asI169
(lp1719
I662
aI480
aI546
aI386
asI170
(lp1720
I676
aI492
aI558
aI390
asI171
(lp1721
I702
aI502
aI570
aI394
asI172
(lp1722
I714
aI508
aI582
aI400
asI173
(lp1723
I720
aI508
aI590
aI400
asI174
(lp1724
I726
aI512
aI596
aI396
asI175
(lp1725
I732
aI514
aI598
aI396
asI176
(lp1726
I740
aI514
aI602
aI396
asI177
(lp1727
I744
aI514
aI606
aI392
asI178
(lp1728
I752
aI516
aI610
aI392
asI179
(lp1729
I764
aI516
aI614
aI390
asI180
(lp1730
I770
aI516
aI616
aI386
asI181
(lp1731
I776
aI520
aI624
aI384
asI182
(lp1732
I778
aI520
aI624
aI382
asI183
(lp1733
I784
aI522
aI624
aI382
asI184
(lp1734
I796
aI524
aI624
aI384
asI185
(lp1735
I786
aI534
aI614
aI388
asI186
(lp1736
I780
aI538
aI606
aI398
asI187
(lp1737
I782
aI548
aI590
aI400
asI188
(lp1738
I770
aI560
aI578
aI408
asI189
(lp1739
I766
aI574
aI568
aI414
asI190
(lp1740
I756
aI588
aI558
aI420
asI191
(lp1741
I752
aI608
aI544
aI434
asI192
(lp1742
I752
aI624
aI532
aI438
asI193
(lp1743
I756
aI630
aI526
aI452
asI194
(lp1744
I748
aI646
aI516
aI458
asI195
(lp1745
I748
aI650
aI510
aI458
asI196
(lp1746
I748
aI658
aI504
aI458
asI197
(lp1747
I750
aI664
aI498
aI458
asI198
(lp1748
I748
aI670
aI492
aI458
asI199
(lp1749
I752
aI676
aI486
aI454
asI200
(lp1750
I750
aI676
aI478
aI448
asI201
(lp1751
I750
aI682
aI460
aI448
asI202
(lp1752
I750
aI674
aI460
aI440
asI203
(lp1753
I742
aI670
aI444
aI432
asI204
(lp1754
I740
aI664
aI434
aI422
asI205
(lp1755
I740
aI662
aI428
aI416
asI206
(lp1756
I746
aI668
aI422
aI404
asI207
(lp1757
I752
aI668
aI420
aI404
asI208
(lp1758
I750
aI668
aI406
aI404
asI209
(lp1759
I748
aI666
aI394
aI402
asI210
(lp1760
I736
aI664
aI372
aI398
asI211
(lp1761
I724
aI670
aI346
aI404
asI212
(lp1762
I728
aI684
aI308
aI402
asI213
(lp1763
I730
aI698
aI310
aI408
asI214
(lp1764
I734
aI702
aI314
aI412
asI215
(lp1765
I728
aI718
aI288
aI434
asI216
(lp1766
I728
aI718
aI288
aI434
asI217
(lp1767
I728
aI718
aI270
aI462
asI218
(lp1768
I718
aI718
aI240
aI474
asI219
(lp1769
I718
aI718
aI222
aI480
asI220
(lp1770
I720
aI718
aI206
aI484
asI221
(lp1771
I712
aI718
aI190
aI486
asI222
(lp1772
I712
aI718
aI172
aI486
asI223
(lp1773
I710
aI718
aI158
aI488
asI224
(lp1774
I708
aI718
aI140
aI488
asI225
(lp1775
I710
aI718
aI134
aI484
asI226
(lp1776
I708
aI718
aI120
aI480
asI227
(lp1777
I714
aI718
aI112
aI470
asI228
(lp1778
I716
aI718
aI110
aI464
asI229
(lp1779
I724
aI718
aI108
aI454
asI230
(lp1780
I730
aI718
aI104
aI444
asI231
(lp1781
I736
aI718
aI102
aI436
asI232
(lp1782
I744
aI718
aI96
aI426
asI233
(lp1783
I746
aI718
aI96
aI420
asI234
(lp1784
I750
aI718
aI82
aI416
asI235
(lp1785
I750
aI718
aI76
aI412
asI236
(lp1786
I750
aI718
aI76
aI412
asI237
(lp1787
I750
aI718
aI70
aI408
asI238
(lp1788
I756
aI718
aI72
aI392
asI239
(lp1789
I762
aI718
aI70
aI372
asI240
(lp1790
I768
aI718
aI76
aI360
asI241
(lp1791
I776
aI718
aI84
aI334
asI242
(lp1792
I784
aI718
aI100
aI334
asI243
(lp1793
I794
aI718
aI104
aI326
asI244
(lp1794
I796
aI718
aI106
aI318
asI245
(lp1795
I802
aI714
aI118
aI314
asI246
(lp1796
I802
aI702
aI118
aI302
asI247
(lp1797
I802
aI702
aI118
aI302
asI248
(lp1798
I804
aI698
aI120
aI298
asI249
(lp1799
I804
aI690
aI120
aI298
asI250
(lp1800
I804
aI674
aI120
aI282
asI251
(lp1801
I806
aI674
aI124
aI282
asI252
(lp1802
I806
aI660
aI124
aI272
asI253
(lp1803
I804
aI646
aI130
aI262
asI254
(lp1804
I802
aI636
aI128
aI252
asI255
(lp1805
I802
aI630
aI128
aI246
asI256
(lp1806
I802
aI630
aI128
aI246
asI257
(lp1807
I800
aI634
aI138
aI252
asI258
(lp1808
I800
aI634
aI138
aI252
asI259
(lp1809
I798
aI636
aI136
aI254
asI260
(lp1810
I794
aI638
aI132
aI256
asI261
(lp1811
I794
aI638
aI132
aI256
asI262
(lp1812
I794
aI640
aI132
aI258
asI263
(lp1813
I792
aI642
aI130
aI260
asI264
(lp1814
I792
aI642
aI130
aI260
asI265
(lp1815
I792
aI642
aI130
aI260
asI266
(lp1816
I790
aI646
aI128
aI264
asI267
(lp1817
I790
aI646
aI128
aI264
asI268
(lp1818
I786
aI648
aI126
aI266
asI269
(lp1819
I786
aI648
aI126
aI266
asI270
(lp1820
I786
aI652
aI126
aI268
asI271
(lp1821
I786
aI652
aI126
aI268
asI272
(lp1822
I786
aI652
aI126
aI268
asI273
(lp1823
I786
aI652
aI126
aI268
asI274
(lp1824
I786
aI652
aI126
aI268
asI275
(lp1825
I786
aI652
aI126
aI268
asI276
(lp1826
I786
aI652
aI126
aI268
asI277
(lp1827
I786
aI652
aI126
aI268
asI278
(lp1828
I786
aI652
aI126
aI268
asI279
(lp1829
I786
aI648
aI126
aI264
asI280
(lp1830
I786
aI648
aI126
aI264
asI281
(lp1831
I792
aI648
aI132
aI264
asI282
(lp1832
I792
aI648
aI132
aI264
asI283
(lp1833
I792
aI648
aI132
aI264
asI284
(lp1834
I800
aI652
aI132
aI264
asI285
(lp1835
I800
aI654
aI132
aI266
asI286
(lp1836
I804
aI656
aI132
aI266
asI287
(lp1837
I804
aI662
aI132
aI268
asI288
(lp1838
I810
aI666
aI132
aI272
assg241
(lp1839
I345
aI129
aI99
aI79
aI53
aI57
aI34
aI33
aI55
aI50
aI70
aI63
aI67
aI59
aI67
aI64
aI57
aI52
aI48
aI34
aI31
aI45
aI42
aI46
aI39
aI29
aI23
aI21
aI32
aI28
aI12
aI20
aI16
aI10
aI8
aI8
aI11
aI8
aI5
aI8
aI3
aI1
aI3
aI4
aI2
aI4
aI5
aI4
aI7
aI4
aI7
aI5
aI5
aI5
aI5
aI5
aI8
aI6
aI13
aI13
aI6
aI10
aI7
aI8
aI5
aI4
aI8
aI11
aI8
aI6
aI8
aI7
aI8
aI8
aI8
aI9
aI4
aI7
aI8
aI9
aI8
aI9
aI9
aI5
aI8
aI6
aI7
aI9
aI10
aI9
aI9
aI12
aI8
aI11
aI10
aI9
aI8
aI12
aI11
aI14
aI14
aI12
aI9
aI8
aI10
asg243
(lp1840
I345
aI149
aI108
aI86
aI58
aI64
aI41
aI38
aI61
aI56
aI76
aI70
aI72
aI65
aI77
aI72
aI61
aI54
aI56
aI41
aI32
aI54
aI47
aI58
aI54
aI49
aI39
aI30
aI38
aI32
aI15
aI23
aI22
aI12
aI11
aI9
aI14
aI13
aI11
aI11
aI8
aI9
aI11
aI9
aI9
aI14
aI11
aI13
aI13
aI9
aI9
aI13
aI12
aI12
aI6
aI6
aI12
aI8
aI17
aI16
aI9
aI11
aI10
aI8
aI8
aI4
aI12
aI14
aI13
aI8
aI11
aI8
aI10
aI11
aI10
aI14
aI7
aI8
aI11
aI12
aI10
aI9
aI11
aI7
aI11
aI6
aI9
aI9
aI11
aI12
aI13
aI13
aI10
aI14
aI10
aI11
aI11
aI14
aI11
aI18
aI14
aI14
aI13
aI11
aI13
assI124
(dp1841
g2
F73.34963325183375
sg3
(lp1842
S'00124'
p1843
aS'00125'
p1844
aS'00126'
p1845
aS'00127'
p1846
aS'00128'
p1847
aS'00129'
p1848
aS'00130'
p1849
aS'00131'
p1850
aS'00132'
p1851
aS'00133'
p1852
aS'00134'
p1853
aS'00135'
p1854
aS'00136'
p1855
aS'00137'
p1856
aS'00138'
p1857
aS'00139'
p1858
aS'00140'
p1859
aS'00141'
p1860
aS'00142'
p1861
aS'00145'
p1862
aS'00146'
p1863
aS'00147'
p1864
aS'00149'
p1865
aS'00153'
p1866
aS'00154'
p1867
aS'00155'
p1868
aS'00156'
p1869
aS'00157'
p1870
aS'00158'
p1871
aS'00159'
p1872
aS'00160'
p1873
aS'00161'
p1874
aS'00162'
p1875
aS'00163'
p1876
aS'00164'
p1877
aS'00165'
p1878
aS'00166'
p1879
aS'00167'
p1880
aS'00168'
p1881
aS'00169'
p1882
aS'00170'
p1883
aS'00171'
p1884
aS'00172'
p1885
aS'00173'
p1886
aS'00174'
p1887
aS'00175'
p1888
aS'00176'
p1889
aS'00177'
p1890
aS'00178'
p1891
aS'00179'
p1892
aS'00180'
p1893
aS'00181'
p1894
aS'00182'
p1895
aS'00183'
p1896
aS'00184'
p1897
aS'00185'
p1898
aS'00186'
p1899
aS'00187'
p1900
aS'00188'
p1901
aS'00190'
p1902
aS'00191'
p1903
aS'00192'
p1904
aS'00193'
p1905
aS'00194'
p1906
aS'00195'
p1907
aS'00196'
p1908
aS'00198'
p1909
aS'00200'
p1910
aS'00201'
p1911
aS'00202'
p1912
aS'00203'
p1913
aS'00204'
p1914
aS'00205'
p1915
aS'00206'
p1916
aS'00207'
p1917
aS'00209'
p1918
aS'00210'
p1919
aS'00211'
p1920
aS'00212'
p1921
aS'00213'
p1922
aS'00216'
p1923
aS'00221'
p1924
aS'00223'
p1925
aS'00225'
p1926
aS'00226'
p1927
aS'00227'
p1928
aS'00229'
p1929
aS'00230'
p1930
aS'00231'
p1931
aS'00233'
p1932
aS'00235'
p1933
aS'00238'
p1934
aS'00239'
p1935
aS'00240'
p1936
aS'00244'
p1937
aS'00247'
p1938
aS'00248'
p1939
aS'00257'
p1940
aS'00260'
p1941
aS'00262'
p1942
aS'00263'
p1943
aS'00264'
p1944
aS'00269'
p1945
aS'00270'
p1946
aS'00271'
p1947
aS'00282'
p1948
aS'00284'
p1949
asg70
(lp1950
F99.6393496566492
aF99.6393496566492
aF99.6393496566492
aF104.4030650891055
aF104.4030650891055
aF104.4030650891055
aF110.63453348751464
aF110.63453348751464
aF110.63453348751464
aF110.63453348751464
aF113.70136322841516
aF118.06777714516353
aF116.51609330903607
aF116.51609330903607
aF116.51609330903607
aF114.97825881443848
aF114.97825881443848
aF122.80065146407001
aF122.80065146407001
aF111.94641575325224
aF111.94641575325224
aF114.6298390472568
aF117.5925167687128
aF123.23960402403117
aF123.23960402403117
aF121.62236636408618
aF121.62236636408618
aF121.62236636408618
aF124.45079348883236
aF128.70120434556935
aF127.31064370271639
aF128.76334882255898
aF134.41726079637243
aF137.3608386695422
aF138.59292911256333
aF151.32745950421557
aF151.32745950421557
aF142.12670403551894
aF142.12670403551894
aF149.30505684671232
aF155.97435686676192
aF170.55204484262273
aF170.55204484262273
aF169.00887550658396
aF174.22973339817747
aF178.54971296532514
aF181.57092278225608
aF184.19554826325202
aF188.52055590836773
aF195.8979326077741
aF201.5341162185698
aF203.9607805437114
aF206.7849124090053
aF212.60291625469299
aF221.7746604100658
aF225.61028345356956
aF223.32935319836486
aF242.42112119202815
aF244.88364584022347
aF259.6690201005888
aF271.1825953117198
aF288.0902636327719
aF290.83328557783756
aF298.61011369342464
aF305.7907781474124
aF315.49326458737596
aF332.38531856867564
aF354.91970923012997
aF372.63386856269517
aF372.63386856269517
aF381.37645443839347
aF390.1281840626232
aF397.3159951474393
aF417.93779441443195
aF424.16977732978575
aF441.6016304317728
aF450.8347812669293
aF462.21207253813697
aF505.8893159575521
aF510.3920062069938
aF523.6945674723006
aF571.233752504174
aF598.0
aF621.7169774101395
aF634.3406025157147
aF651.0821760730361
aF670.188033316024
aF683.3388617662544
aF693.8875989668644
aF715.0552426211558
aF740.2107807915256
aF757.7149859940741
aF773.6795202149273
aF779.1200164287912
aF797.5587752636166
aF792.3736492337438
aF792.3736492337438
aF764.3088381014575
aF764.3088381014575
aF764.3088381014575
aF764.3088381014575
aF764.3088381014575
aF762.5772092057302
aF763.5810369567856
aF763.5810369567856
aF763.5810369567856
aF772.5076051405579
asg72
(lp1951
F7.0710678118654755
aF13.601470508735444
aF9.899494936611665
aF8.06225774829855
aF13.892443989449804
aF8.602325267042627
aF31.575306807693888
aF15.811388300841896
aF17.88854381999832
aF39.0
aF20.396078054371138
aF27.784887978899608
aF18.439088914585774
aF71.34423592694787
aF25.059928172283335
aF9.433981132056603
aF9.848857801796104
aF22.80350850198276
aF25.495097567963924
aF37.589892258425
aF19.1049731745428
aF202.80532537386685
aF74.33034373659252
aF54.405882034941776
aF6.082762530298219
aF34.828149534535996
aF200.8606482116395
aF74.84650960465692
aF49.39635614091387
aF16.55294535724685
aF52.20153254455275
aF52.08646657242167
aF6.0
aF1.0
aF9.848857801796104
aF6.082762530298219
aF8.94427190999916
aF17.26267650163207
aF6.324555320336759
aF20.396078054371138
aF24.758836806279895
aF11.40175425099138
aF47.095647357266465
aF31.0
aF50.44799302251776
aF44.68780594300866
aF78.85429601486528
aF50.44799302251776
aF51.62363799656123
aF40.311288741492746
aF29.5296461204668
aF57.0087712549569
aF83.773504164503
aF53.14132102234569
aF34.828149534535996
aF27.16615541441225
aF37.12142238654117
aF65.06919393998976
aF80.62257748298549
aF11.704699910719626
aF183.50476833041697
aF131.3202193114221
aF106.89246933250256
aF107.54068997360952
aF82.21921916437786
aF85.14693182963201
aF44.598206241955516
aF124.77980605851253
aF124.53112060846478
aF148.4082207965583
aF133.7235955244997
aF138.63621460498698
aF90.02777349240623
aF95.77577981932593
aF96.17692030835673
aF97.86214794290998
aF169.53170794869024
aF170.07351351694948
aF170.8156901458411
aF115.95257651298655
aF508.4977876058066
aF453.15449903978663
aF311.27640450249356
aF769.8266038531015
aF169.64963896218583
aF528.887511669542
aF22.561028345356956
aF24.515301344262525
aF27.459060435491963
aF32.01562118716424
aF30.083217912982647
aF43.73785545725808
aF50.35871324805669
aF64.19501538281614
aF541.0009242136283
aF333.08407347094817
aF137.53544997563355
aF316.12813857674865
aF308.76528302255747
aF308.1720298794165
aF308.4234102658227
aF306.54363474063524
aF305.26218239408564
aF308.4234102658227
aF307.82624969290714
aF309.58359129643804
aF309.9435432461854
asg74
(dp1952
I124
(lp1953
I122
aI460
aI44
aI398
asI125
(lp1954
I122
aI450
aI44
aI388
asI126
(lp1955
I122
aI450
aI44
aI388
asI127
(lp1956
I122
aI450
aI38
aI388
asI128
(lp1957
I114
aI454
aI30
aI392
asI129
(lp1958
I100
aI458
aI16
aI396
asI130
(lp1959
I90
aI466
aI6
aI394
asI131
(lp1960
I86
aI466
aI2
aI394
asI132
(lp1961
I86
aI464
aI2
aI392
asI133
(lp1962
I86
aI458
aI2
aI386
asI134
(lp1963
I98
aI458
aI10
aI386
asI135
(lp1964
I114
aI456
aI22
aI382
asI136
(lp1965
I128
aI450
aI38
aI376
asI137
(lp1966
I148
aI450
aI58
aI376
asI138
(lp1967
I170
aI446
aI80
aI372
asI139
(lp1968
I186
aI440
aI98
aI366
asI140
(lp1969
I198
aI436
aI110
aI362
asI141
(lp1970
I214
aI430
aI116
aI356
asI142
(lp1971
I232
aI430
aI134
aI356
asI143
(lp1972
I246
aI432
aI154
aI358
asI144
(lp1973
I262
aI436
aI174
aI362
asI145
(lp1974
I278
aI448
aI194
aI374
asI146
(lp1975
I296
aI452
aI212
aI378
asI147
(lp1976
I312
aI454
aI228
aI376
asI148
(lp1977
I338
aI458
aI250
aI380
asI149
(lp1978
I356
aI464
aI268
aI386
asI150
(lp1979
I394
aI468
aI306
aI386
asI151
(lp1980
I416
aI468
aI328
aI386
asI152
(lp1981
I432
aI472
aI344
aI390
asI153
(lp1982
I452
aI472
aI360
aI390
asI154
(lp1983
I468
aI470
aI376
aI388
asI155
(lp1984
I472
aI470
aI386
aI384
asI156
(lp1985
I486
aI464
aI400
aI378
asI157
(lp1986
I502
aI462
aI416
aI376
asI158
(lp1987
I520
aI462
aI432
aI374
asI159
(lp1988
I538
aI466
aI446
aI376
asI160
(lp1989
I554
aI460
aI462
aI372
asI161
(lp1990
I570
aI460
aI476
aI372
asI162
(lp1991
I586
aI460
aI488
aI368
asI163
(lp1992
I594
aI458
aI492
aI366
asI164
(lp1993
I604
aI460
aI506
aI362
asI165
(lp1994
I620
aI472
aI512
aI366
asI166
(lp1995
I628
aI478
aI520
aI372
asI167
(lp1996
I638
aI476
aI528
aI386
asI168
(lp1997
I644
aI476
aI534
aI386
asI169
(lp1998
I662
aI480
aI546
aI386
asI170
(lp1999
I676
aI492
aI558
aI390
asI171
(lp2000
I702
aI502
aI570
aI394
asI172
(lp2001
I714
aI508
aI582
aI400
asI173
(lp2002
I720
aI508
aI590
aI400
asI174
(lp2003
I726
aI512
aI596
aI396
asI175
(lp2004
I732
aI514
aI598
aI396
asI176
(lp2005
I740
aI514
aI602
aI396
asI177
(lp2006
I744
aI514
aI606
aI392
asI178
(lp2007
I752
aI516
aI610
aI392
asI179
(lp2008
I764
aI516
aI614
aI390
asI180
(lp2009
I770
aI516
aI616
aI386
asI181
(lp2010
I776
aI520
aI624
aI384
asI182
(lp2011
I778
aI520
aI624
aI382
asI183
(lp2012
I784
aI522
aI624
aI382
asI184
(lp2013
I796
aI524
aI624
aI384
asI185
(lp2014
I786
aI534
aI614
aI388
asI186
(lp2015
I780
aI538
aI606
aI398
asI187
(lp2016
I782
aI548
aI590
aI400
asI188
(lp2017
I770
aI560
aI578
aI408
asI189
(lp2018
I766
aI574
aI568
aI414
asI190
(lp2019
I756
aI588
aI558
aI420
asI191
(lp2020
I752
aI608
aI544
aI434
asI192
(lp2021
I752
aI624
aI532
aI438
asI193
(lp2022
I756
aI630
aI526
aI452
asI194
(lp2023
I748
aI646
aI516
aI458
asI195
(lp2024
I748
aI650
aI510
aI458
asI196
(lp2025
I748
aI658
aI504
aI458
asI197
(lp2026
I750
aI664
aI498
aI458
asI198
(lp2027
I748
aI670
aI492
aI458
asI199
(lp2028
I752
aI676
aI486
aI454
asI200
(lp2029
I750
aI676
aI478
aI448
asI201
(lp2030
I750
aI682
aI460
aI448
asI202
(lp2031
I750
aI674
aI460
aI440
asI203
(lp2032
I742
aI670
aI444
aI432
asI204
(lp2033
I740
aI664
aI434
aI422
asI205
(lp2034
I740
aI662
aI428
aI416
asI206
(lp2035
I746
aI668
aI422
aI404
asI207
(lp2036
I752
aI668
aI420
aI404
asI208
(lp2037
I750
aI668
aI406
aI404
asI209
(lp2038
I748
aI666
aI394
aI402
asI210
(lp2039
I736
aI664
aI372
aI398
asI211
(lp2040
I724
aI670
aI346
aI404
asI212
(lp2041
I728
aI684
aI308
aI402
asI213
(lp2042
I730
aI698
aI310
aI408
asI214
(lp2043
I734
aI702
aI314
aI412
asI215
(lp2044
I728
aI718
aI288
aI434
asI216
(lp2045
I728
aI718
aI288
aI434
asI217
(lp2046
I728
aI718
aI270
aI462
asI218
(lp2047
I718
aI718
aI240
aI474
asI219
(lp2048
I718
aI718
aI222
aI480
asI220
(lp2049
I720
aI718
aI206
aI484
asI221
(lp2050
I712
aI718
aI190
aI486
asI222
(lp2051
I712
aI718
aI172
aI486
asI223
(lp2052
I710
aI718
aI158
aI488
asI224
(lp2053
I708
aI718
aI140
aI488
asI225
(lp2054
I710
aI718
aI134
aI484
asI226
(lp2055
I708
aI718
aI120
aI480
asI227
(lp2056
I714
aI718
aI112
aI470
asI228
(lp2057
I716
aI718
aI110
aI464
asI229
(lp2058
I724
aI718
aI108
aI454
asI230
(lp2059
I730
aI718
aI104
aI444
asI231
(lp2060
I736
aI718
aI102
aI436
asI232
(lp2061
I744
aI718
aI96
aI426
asI233
(lp2062
I746
aI718
aI96
aI420
asI234
(lp2063
I750
aI718
aI82
aI416
asI235
(lp2064
I750
aI718
aI76
aI412
asI236
(lp2065
I750
aI718
aI76
aI412
asI237
(lp2066
I750
aI718
aI70
aI408
asI238
(lp2067
I756
aI718
aI72
aI392
asI239
(lp2068
I762
aI718
aI70
aI372
asI240
(lp2069
I768
aI718
aI76
aI360
asI241
(lp2070
I776
aI718
aI84
aI334
asI242
(lp2071
I784
aI718
aI100
aI334
asI243
(lp2072
I794
aI718
aI104
aI326
asI244
(lp2073
I796
aI718
aI106
aI318
asI245
(lp2074
I802
aI714
aI118
aI314
asI246
(lp2075
I802
aI702
aI118
aI302
asI247
(lp2076
I802
aI702
aI118
aI302
asI248
(lp2077
I804
aI698
aI120
aI298
asI249
(lp2078
I804
aI690
aI120
aI298
asI250
(lp2079
I804
aI674
aI120
aI282
asI251
(lp2080
I806
aI674
aI124
aI282
asI252
(lp2081
I806
aI660
aI124
aI272
asI253
(lp2082
I804
aI646
aI130
aI262
asI254
(lp2083
I802
aI636
aI128
aI252
asI255
(lp2084
I802
aI630
aI128
aI246
asI256
(lp2085
I802
aI630
aI128
aI246
asI257
(lp2086
I800
aI634
aI138
aI252
asI258
(lp2087
I800
aI634
aI138
aI252
asI259
(lp2088
I798
aI636
aI136
aI254
asI260
(lp2089
I794
aI638
aI132
aI256
asI261
(lp2090
I794
aI638
aI132
aI256
asI262
(lp2091
I794
aI640
aI132
aI258
asI263
(lp2092
I792
aI642
aI130
aI260
asI264
(lp2093
I792
aI642
aI130
aI260
asI265
(lp2094
I792
aI642
aI130
aI260
asI266
(lp2095
I790
aI646
aI128
aI264
asI267
(lp2096
I790
aI646
aI128
aI264
asI268
(lp2097
I786
aI648
aI126
aI266
asI269
(lp2098
I786
aI648
aI126
aI266
asI270
(lp2099
I786
aI652
aI126
aI268
asI271
(lp2100
I786
aI652
aI126
aI268
asI272
(lp2101
I786
aI652
aI126
aI268
asI273
(lp2102
I786
aI652
aI126
aI268
asI274
(lp2103
I786
aI652
aI126
aI268
asI275
(lp2104
I786
aI652
aI126
aI268
asI276
(lp2105
I786
aI652
aI126
aI268
asI277
(lp2106
I786
aI652
aI126
aI268
asI278
(lp2107
I786
aI652
aI126
aI268
asI279
(lp2108
I786
aI648
aI126
aI264
asI280
(lp2109
I786
aI648
aI126
aI264
asI281
(lp2110
I792
aI648
aI132
aI264
asI282
(lp2111
I792
aI648
aI132
aI264
asI283
(lp2112
I792
aI648
aI132
aI264
asI284
(lp2113
I800
aI652
aI132
aI264
asI285
(lp2114
I800
aI654
aI132
aI266
asI286
(lp2115
I804
aI656
aI132
aI266
asI287
(lp2116
I804
aI662
aI132
aI268
asI288
(lp2117
I810
aI666
aI132
aI272
assg241
(lp2118
I53
aI28
aI28
aI24
aI7
aI3
aI4
aI9
aI9
aI6
aI9
aI6
aI1
aI1
aI3
aI2
aI2
aI1
aI1
aI1
aI1
aI0
aI0
aI0
aI0
aI0
aI0
aI0
aI0
aI1
aI0
aI0
aI0
aI4
aI2
aI9
aI7
aI4
aI5
aI2
aI4
aI2
aI2
aI1
aI1
aI0
aI0
aI1
aI3
aI2
aI3
aI3
aI1
aI1
aI1
aI1
aI1
aI1
aI2
aI2
aI1
aI0
aI1
aI1
aI1
aI1
aI1
aI1
aI1
aI1
aI1
aI1
aI2
aI2
aI2
aI2
aI1
aI1
aI1
aI2
aI0
aI0
aI1
aI0
aI1
aI0
aI1
aI1
aI1
aI1
aI1
aI1
aI1
aI1
aI0
aI0
aI1
aI0
aI0
aI0
aI0
aI0
aI0
aI0
aI0
aI0
aI0
asg243
(lp2119
I53
aI35
aI32
aI24
aI7
aI3
aI4
aI9
aI10
aI8
aI9
aI6
aI2
aI3
aI3
aI2
aI2
aI2
aI4
aI2
aI1
aI1
aI1
aI1
aI2
aI3
aI2
aI1
aI1
aI2
aI1
aI2
aI4
aI5
aI7
aI11
aI7
aI5
aI7
aI5
aI7
aI2
aI4
aI3
aI3
aI3
aI1
aI3
aI4
aI3
aI5
aI5
aI3
aI3
aI1
aI1
aI2
aI2
aI6
aI2
aI2
aI1
aI1
aI1
aI2
aI2
aI1
aI1
aI1
aI2
aI1
aI1
aI2
aI2
aI2
aI2
aI1
aI1
aI1
aI2
aI1
aI1
aI2
aI1
aI1
aI1
aI1
aI1
aI1
aI1
aI1
aI1
aI1
aI1
aI1
aI1
aI1
aI1
aI1
aI1
aI1
aI1
aI1
aI1
aI1
aI1
aI1
ass.