(dp0
I224
(dp1
S'frame numbers'
p2
(lp3
S'00224'
p4
aS'00225'
p5
aS'00226'
p6
aS'00227'
p7
aS'00228'
p8
aS'00229'
p9
aS'00230'
p10
aS'00231'
p11
aS'00232'
p12
aS'00233'
p13
aS'00234'
p14
aS'00235'
p15
aS'00236'
p16
aS'00237'
p17
aS'00238'
p18
aS'00239'
p19
aS'00240'
p20
aS'00241'
p21
aS'00242'
p22
aS'00243'
p23
aS'00244'
p24
aS'00245'
p25
aS'00246'
p26
aS'00247'
p27
aS'00248'
p28
aS'00249'
p29
aS'00250'
p30
aS'00251'
p31
aS'00252'
p32
aS'00253'
p33
aS'00254'
p34
aS'00255'
p35
aS'00256'
p36
aS'00257'
p37
aS'00258'
p38
aS'00259'
p39
aS'00260'
p40
aS'00261'
p41
aS'00262'
p42
aS'00263'
p43
aS'00264'
p44
aS'00265'
p45
aS'00266'
p46
aS'00267'
p47
aS'00268'
p48
aS'00269'
p49
aS'00270'
p50
aS'00271'
p51
aS'00272'
p52
aS'00273'
p53
aS'00274'
p54
aS'00275'
p55
aS'00276'
p56
aS'00277'
p57
aS'00278'
p58
aS'00279'
p59
aS'00280'
p60
aS'00281'
p61
aS'00282'
p62
aS'00283'
p63
aS'00284'
p64
aS'00285'
p65
aS'00286'
p66
aS'00287'
p67
aS'00288'
p68
asS'correct kp matches'
p69
(lp70
I171
aI24
aI24
aI16
aI10
aI9
aI8
aI7
aI12
aI10
aI7
aI10
aI14
aI7
aI3
aI1
aI2
aI2
aI7
aI7
aI5
aI5
aI9
aI8
aI11
aI9
aI4
aI6
aI6
aI5
aI5
aI8
aI8
aI7
aI8
aI11
aI7
aI4
aI9
aI9
aI6
aI8
aI8
aI11
aI8
aI7
aI14
aI6
aI10
aI7
aI9
aI6
aI9
aI6
aI5
aI10
aI6
aI5
aI12
aI6
aI5
aI6
aI10
aI9
aI10
asS'total kp matches'
p71
(lp72
I171
aI28
aI28
aI19
aI12
aI12
aI9
aI9
aI13
aI12
aI9
aI13
aI16
aI10
aI3
aI1
aI3
aI3
aI9
aI11
aI7
aI7
aI14
aI10
aI14
aI14
aI7
aI9
aI8
aI6
aI8
aI9
aI13
aI10
aI11
aI12
aI8
aI6
aI14
aI13
aI7
aI10
aI10
aI14
aI10
aI9
aI15
aI8
aI10
aI9
aI10
aI8
aI11
aI6
aI5
aI13
aI9
aI8
aI16
aI6
aI5
aI7
aI12
aI11
aI13
asS'distance from center'
p73
(lp74
F36.71511950137164
aF68.70953354520753
aF80.52949770115296
aF108.4665847162157
aF131.21356637177422
aF32.0624390837628
aF119.54915307102765
aF54.70831746635972
aF27.80287754891569
aF118.15244390193544
aF184.58873205046942
aF82.13403679352427
aF81.02468759581859
aF59.81638571495272
aF275.0727176584403
aF167.5231327309754
aF197.62590923257
aF84.86459803710851
aF47.50789408087881
aF174.8656627242753
aF122.64175471673585
aF158.75137794677562
aF125.60254774486066
aF188.91532494744834
aF153.22206107476822
aF227.6532450899833
aF107.37783756436893
aF90.47098982546837
aF82.03657720797473
aF66.21933252457322
aF81.00617260431454
aF108.2450922675019
aF93.60555539069249
aF243.30433617179946
aF254.34818654749634
aF179.7386992275175
aF145.2067491544384
aF116.21101496846157
aF222.4275162833951
aF168.37161280928564
aF96.25487000666512
aF189.44656238633627
aF116.76472069936193
aF193.0932417253385
aF184.44782460088814
aF158.11388300841898
aF185.41305239923105
aF191.73158320944412
aF131.04579352272242
aF174.41330224498358
aF122.20065466273084
aF208.47062143141417
aF229.67150454507848
aF178.05897899291685
aF87.66413177577246
aF236.13555429032706
aF115.52056094046635
aF177.88198334851114
aF188.7246671741667
aF155.4155719353759
aF132.07573584879245
aF173.6663467687393
aF79.2464510246358
aF125.03199590504823
aF189.52836199366047
asS'overall accuracy'
p75
F83.31332533013205
ssI164
(dp76
g2
(lp77
S'00164'
p78
aS'00165'
p79
aS'00166'
p80
aS'00167'
p81
aS'00168'
p82
aS'00169'
p83
aS'00170'
p84
aS'00172'
p85
aS'00173'
p86
aS'00174'
p87
aS'00178'
p88
aS'00181'
p89
aS'00187'
p90
aS'00189'
p91
aS'00195'
p92
aS'00196'
p93
aS'00197'
p94
aS'00201'
p95
aS'00203'
p96
aS'00204'
p97
aS'00209'
p98
aS'00216'
p99
aS'00231'
p100
aS'00232'
p101
aS'00233'
p102
aS'00235'
p103
aS'00243'
p104
aS'00248'
p105
aS'00251'
p106
aS'00257'
p107
aS'00260'
p108
aS'00278'
p109
asg69
(lp110
I18
aI3
aI1
aI1
aI4
aI1
aI1
aI2
aI3
aI1
aI2
aI1
aI0
aI1
aI1
aI1
aI1
aI1
aI2
aI1
aI1
aI0
aI1
aI1
aI1
aI1
aI0
aI1
aI1
aI1
aI1
aI0
asg71
(lp111
I18
aI3
aI1
aI1
aI4
aI1
aI1
aI2
aI3
aI1
aI2
aI1
aI1
aI1
aI2
aI1
aI1
aI1
aI2
aI1
aI1
aI1
aI1
aI1
aI1
aI1
aI1
aI1
aI1
aI1
aI1
aI1
asg73
(lp112
F7.0
aF21.93171219946131
aF22.561028345356956
aF38.58756276314948
aF6.708203932499369
aF28.635642126552707
aF14.0
aF33.734255586866
aF38.01315561749642
aF33.24154027718932
aF50.96076922496363
aF27.892651361962706
aF316.4253466459348
aF98.97979591815695
aF210.48990474604713
aF50.96076922496363
aF123.664869708418
aF135.4843164355196
aF93.68030742904295
aF147.648230602334
aF67.68308503607086
aF583.2495177880561
aF101.78899744078434
aF166.41213898030395
aF103.81233067415451
aF105.43718509140881
aF666.0548025500605
aF161.72198366332265
aF77.25283166331187
aF76.21679604916491
aF71.69379331573968
aF548.0583910497129
asg75
F91.66666666666666
ssI264
(dp113
g2
(lp114
S'00264'
p115
aS'00265'
p116
aS'00266'
p117
aS'00267'
p118
aS'00268'
p119
aS'00269'
p120
aS'00270'
p121
aS'00271'
p122
aS'00272'
p123
aS'00273'
p124
aS'00274'
p125
aS'00275'
p126
aS'00276'
p127
aS'00277'
p128
aS'00278'
p129
aS'00279'
p130
aS'00280'
p131
aS'00281'
p132
aS'00282'
p133
aS'00283'
p134
aS'00284'
p135
aS'00285'
p136
aS'00286'
p137
aS'00287'
p138
aS'00288'
p139
asg69
(lp140
I513
aI136
aI110
aI140
aI147
aI136
aI119
aI122
aI138
aI124
aI110
aI110
aI137
aI134
aI136
aI118
aI138
aI115
aI127
aI133
aI123
aI120
aI118
aI95
aI87
asg71
(lp141
I513
aI143
aI118
aI148
aI152
aI144
aI124
aI129
aI144
aI134
aI115
aI115
aI144
aI137
aI147
aI124
aI143
aI120
aI131
aI141
aI130
aI124
aI127
aI104
aI95
asg73
(lp142
F57.28001396647874
aF68.00735254367721
aF55.226805085936306
aF63.28506932918696
aF71.21797525905943
aF58.05170109479997
aF48.16637831516918
aF78.00640999302557
aF49.09175083453431
aF50.24937810560445
aF60.90155991434045
aF66.03786792439622
aF52.15361924162119
aF56.639209034025185
aF54.817880294662984
aF46.04345773288535
aF88.45903006477066
aF75.43208866258443
aF45.27692569068709
aF89.06739021662193
aF50.695167422546305
aF76.47875521999558
aF68.70953354520753
aF86.97700845625813
aF108.04628637764465
asg75
F95.61162918266594
ssI284
(dp143
g2
(lp144
S'00284'
p145
aS'00285'
p146
aS'00286'
p147
aS'00287'
p148
aS'00288'
p149
asg69
(lp150
I469
aI142
aI118
aI112
aI118
asg71
(lp151
I469
aI148
aI125
aI117
aI126
asg73
(lp152
F59.033888572581766
aF61.98386886924694
aF57.4543296888929
aF47.67598976424087
aF77.10382610480494
asg75
F97.36040609137055
ssI204
(dp153
g2
(lp154
S'00204'
p155
aS'00205'
p156
aS'00206'
p157
aS'00207'
p158
aS'00208'
p159
aS'00209'
p160
aS'00210'
p161
aS'00211'
p162
aS'00212'
p163
aS'00213'
p164
aS'00214'
p165
aS'00215'
p166
aS'00216'
p167
aS'00217'
p168
aS'00218'
p169
aS'00219'
p170
aS'00220'
p171
aS'00221'
p172
aS'00222'
p173
aS'00223'
p174
aS'00224'
p175
aS'00225'
p176
aS'00226'
p177
aS'00227'
p178
aS'00228'
p179
aS'00229'
p180
aS'00230'
p181
aS'00232'
p182
aS'00233'
p183
aS'00234'
p184
aS'00235'
p185
aS'00237'
p186
aS'00238'
p187
aS'00239'
p188
aS'00240'
p189
aS'00241'
p190
aS'00242'
p191
aS'00243'
p192
aS'00244'
p193
aS'00245'
p194
aS'00246'
p195
aS'00249'
p196
aS'00250'
p197
aS'00251'
p198
aS'00252'
p199
aS'00253'
p200
aS'00254'
p201
aS'00255'
p202
aS'00256'
p203
aS'00257'
p204
aS'00259'
p205
aS'00261'
p206
aS'00264'
p207
aS'00265'
p208
aS'00266'
p209
aS'00267'
p210
aS'00268'
p211
aS'00269'
p212
aS'00270'
p213
aS'00271'
p214
aS'00272'
p215
aS'00273'
p216
aS'00274'
p217
aS'00276'
p218
aS'00277'
p219
aS'00279'
p220
aS'00280'
p221
aS'00282'
p222
aS'00283'
p223
aS'00284'
p224
aS'00285'
p225
aS'00286'
p226
aS'00287'
p227
aS'00288'
p228
asg69
(lp229
I147
aI22
aI18
aI10
aI13
aI6
aI1
aI2
aI4
aI2
aI4
aI0
aI0
aI0
aI0
aI1
aI1
aI1
aI0
aI0
aI0
aI0
aI1
aI2
aI1
aI0
aI2
aI2
aI3
aI0
aI1
aI1
aI1
aI1
aI1
aI0
aI2
aI0
aI2
aI0
aI0
aI0
aI0
aI1
aI1
aI0
aI3
aI2
aI0
aI2
aI0
aI2
aI2
aI1
aI1
aI2
aI1
aI0
aI1
aI0
aI0
aI0
aI1
aI0
aI0
aI0
aI2
aI1
aI0
aI2
aI1
aI2
aI1
aI2
asg71
(lp230
I147
aI22
aI20
aI11
aI13
aI6
aI2
aI4
aI5
aI3
aI7
aI1
aI3
aI2
aI1
aI4
aI7
aI6
aI7
aI2
aI1
aI3
aI1
aI4
aI3
aI1
aI2
aI4
aI4
aI3
aI1
aI2
aI3
aI3
aI3
aI3
aI3
aI2
aI2
aI1
aI2
aI1
aI2
aI1
aI3
aI1
aI5
aI2
aI1
aI3
aI1
aI2
aI2
aI2
aI1
aI2
aI2
aI1
aI2
aI1
aI1
aI1
aI3
aI1
aI1
aI2
aI4
aI1
aI1
aI4
aI3
aI2
aI1
aI2
asg73
(lp231
F21.633307652783937
aF37.16180835212409
aF43.104524124504614
aF39.05124837953327
aF30.066592756745816
aF58.54912467321779
aF206.0218435020908
aF105.6882207249228
aF125.4830665866913
aF100.08995953640904
aF166.88319268278636
aF557.2396252959762
aF616.1055104444367
aF296.56871041969345
aF643.0559851210468
aF335.72607882021913
aF397.20146021886677
aF389.39054944875073
aF460.6821029734062
aF423.59532575324766
aF441.23576464289476
aF610.0073770045736
aF31.064449134018133
aF26.92582403567252
aF70.03570517957252
aF403.0607894598531
aF91.96738552334735
aF114.85643212288984
aF80.99382692526635
aF384.98441526898205
aF69.33974329343886
aF462.09955637286646
aF526.9127062426944
aF554.5637925432925
aF322.6840560052511
aF545.0330265222466
aF259.3472575524947
aF456.0109647804535
aF57.0350769263968
aF257.59852484049674
aF508.99312372565504
aF800.9694126494469
aF552.3278012195294
aF48.38388161361178
aF408.24012541640246
aF459.0043572777932
aF112.16059914247963
aF16.1245154965971
aF313.73874481804125
aF48.83646178829912
aF311.926273340352
aF48.662100242385755
aF166.68833192518306
aF198.76870981117727
aF39.319206502675
aF162.5607578722491
aF199.8499437077729
aF306.14049062481104
aF278.919343180067
aF442.2544516452039
aF308.97410894765926
aF308.6907837950463
aF208.48261318392957
aF306.4718584144391
aF307.74827375632833
aF213.974297521922
aF161.8919392681427
aF118.0889495253472
aF309.1100127786222
aF175.32826355154492
aF267.8077668776617
aF118.06777714516353
aF98.0
aF133.82077566656082
asg75
F73.31606217616581
ssI144
(dp232
g2
(lp233
S'00144'
p234
aS'00145'
p235
aS'00146'
p236
aS'00147'
p237
aS'00148'
p238
aS'00149'
p239
aS'00152'
p240
aS'00155'
p241
aS'00156'
p242
aS'00159'
p243
aS'00162'
p244
asg69
(lp245
I3
aI1
aI1
aI1
aI0
aI0
aI0
aI0
aI1
aI0
aI1
asg71
(lp246
I3
aI2
aI2
aI1
aI1
aI2
aI1
aI1
aI2
aI1
aI1
asg73
(lp247
F30.364452901377952
aF30.4138126514911
aF23.769728648009426
aF42.05948168962618
aF56.08029957123981
aF42.05948168962618
aF52.20153254455275
aF48.507731342539614
aF44.721359549995796
aF50.96076922496363
aF47.41307836451879
asg75
F47.05882352941176
ssI244
(dp248
g2
(lp249
S'00244'
p250
aS'00245'
p251
aS'00246'
p252
aS'00247'
p253
aS'00248'
p254
aS'00249'
p255
aS'00250'
p256
aS'00251'
p257
aS'00252'
p258
aS'00253'
p259
aS'00254'
p260
aS'00255'
p261
aS'00256'
p262
aS'00257'
p263
aS'00258'
p264
aS'00259'
p265
aS'00260'
p266
aS'00261'
p267
aS'00262'
p268
aS'00263'
p269
aS'00264'
p270
aS'00265'
p271
aS'00266'
p272
aS'00267'
p273
aS'00268'
p274
aS'00269'
p275
aS'00270'
p276
aS'00271'
p277
aS'00272'
p278
aS'00273'
p279
aS'00274'
p280
aS'00275'
p281
aS'00276'
p282
aS'00277'
p283
aS'00278'
p284
aS'00279'
p285
aS'00280'
p286
aS'00281'
p287
aS'00282'
p288
aS'00283'
p289
aS'00284'
p290
aS'00285'
p291
aS'00286'
p292
aS'00287'
p293
aS'00288'
p294
asg69
(lp295
I220
aI42
aI29
aI26
aI30
aI27
aI30
aI30
aI27
aI20
aI24
aI24
aI14
aI20
aI25
aI27
aI24
aI25
aI27
aI21
aI18
aI20
aI20
aI20
aI15
aI23
aI18
aI22
aI15
aI13
aI17
aI20
aI15
aI17
aI22
aI21
aI18
aI18
aI21
aI21
aI20
aI22
aI29
aI23
aI29
asg71
(lp296
I220
aI46
aI34
aI31
aI32
aI30
aI32
aI30
aI28
aI23
aI25
aI26
aI17
aI23
aI29
aI28
aI26
aI29
aI29
aI26
aI21
aI27
aI22
aI24
aI17
aI28
aI22
aI23
aI19
aI18
aI21
aI22
aI22
aI17
aI26
aI24
aI21
aI21
aI26
aI24
aI26
aI23
aI30
aI28
aI32
asg73
(lp297
F64.35060217278468
aF70.32780389006896
aF62.0966987850401
aF79.12016177940993
aF69.06518659932803
aF71.8679344353238
aF29.154759474226502
aF73.40980860893181
aF92.19544457292888
aF48.25971404805462
aF35.05709628591621
aF40.607881008493905
aF28.42534080710379
aF65.06919393998976
aF5.830951894845301
aF20.0
aF50.44799302251776
aF41.10960958218893
aF18.867962264113206
aF74.02702209328699
aF50.99019513592785
aF19.313207915827967
aF35.608987629529715
aF34.0147027033899
aF95.4148835350125
aF69.35416353759881
aF91.2633551870629
aF111.51681487560519
aF69.9714227381436
aF50.48762224545735
aF116.76472069936193
aF45.17742799230607
aF96.42095207992918
aF51.66236541235796
aF44.598206241955516
aF10.770329614269007
aF88.3911760301898
aF64.35060217278468
aF89.37561188601732
aF92.76313923105448
aF15.524174696260024
aF20.024984394500787
aF39.11521443121589
aF63.7808748764079
aF14.0
asg75
F89.68842729970326
ssI184
(dp298
g2
(lp299
S'00184'
p300
aS'00185'
p301
aS'00186'
p302
aS'00187'
p303
aS'00188'
p304
aS'00189'
p305
aS'00190'
p306
aS'00191'
p307
aS'00192'
p308
aS'00194'
p309
aS'00195'
p310
aS'00196'
p311
aS'00197'
p312
aS'00198'
p313
aS'00199'
p314
aS'00200'
p315
aS'00201'
p316
aS'00202'
p317
aS'00203'
p318
aS'00204'
p319
aS'00205'
p320
aS'00206'
p321
aS'00207'
p322
aS'00209'
p323
aS'00210'
p324
aS'00211'
p325
aS'00212'
p326
aS'00213'
p327
aS'00214'
p328
aS'00219'
p329
aS'00220'
p330
aS'00221'
p331
aS'00223'
p332
aS'00225'
p333
aS'00226'
p334
aS'00228'
p335
aS'00229'
p336
aS'00231'
p337
aS'00232'
p338
aS'00234'
p339
aS'00235'
p340
aS'00236'
p341
aS'00237'
p342
aS'00240'
p343
aS'00241'
p344
aS'00242'
p345
aS'00244'
p346
aS'00246'
p347
aS'00247'
p348
aS'00248'
p349
aS'00249'
p350
aS'00250'
p351
aS'00252'
p352
aS'00253'
p353
aS'00257'
p354
aS'00258'
p355
aS'00259'
p356
aS'00260'
p357
aS'00261'
p358
aS'00262'
p359
aS'00263'
p360
aS'00264'
p361
aS'00265'
p362
aS'00267'
p363
aS'00268'
p364
aS'00270'
p365
aS'00271'
p366
aS'00274'
p367
aS'00276'
p368
aS'00278'
p369
aS'00279'
p370
aS'00280'
p371
aS'00284'
p372
aS'00285'
p373
aS'00287'
p374
aS'00288'
p375
asg69
(lp376
I99
aI12
aI5
aI7
aI1
aI6
aI1
aI1
aI1
aI2
aI5
aI1
aI4
aI0
aI2
aI2
aI1
aI1
aI1
aI2
aI3
aI0
aI1
aI1
aI3
aI0
aI2
aI1
aI0
aI1
aI1
aI1
aI1
aI1
aI1
aI2
aI1
aI1
aI0
aI1
aI1
aI2
aI0
aI1
aI1
aI0
aI1
aI0
aI2
aI1
aI1
aI0
aI1
aI0
aI1
aI1
aI1
aI2
aI1
aI1
aI0
aI1
aI1
aI0
aI2
aI1
aI1
aI2
aI1
aI1
aI1
aI0
aI1
aI1
aI1
aI1
asg71
(lp377
I99
aI14
aI5
aI7
aI1
aI7
aI1
aI1
aI1
aI5
aI5
aI2
aI6
aI2
aI4
aI3
aI6
aI4
aI3
aI2
aI4
aI1
aI1
aI1
aI4
aI1
aI2
aI2
aI2
aI2
aI1
aI1
aI1
aI1
aI1
aI2
aI1
aI1
aI2
aI2
aI1
aI2
aI1
aI2
aI1
aI1
aI2
aI1
aI4
aI2
aI2
aI2
aI1
aI1
aI1
aI1
aI1
aI3
aI1
aI1
aI1
aI1
aI2
aI1
aI2
aI2
aI2
aI2
aI1
aI1
aI1
aI1
aI2
aI1
aI1
aI1
asg73
(lp378
F5.656854249492381
aF15.132745950421556
aF25.45584412271571
aF26.419689627245813
aF34.9857113690718
aF59.90826320300064
aF40.24922359499622
aF20.615528128088304
aF109.0
aF74.84650960465692
aF74.62573282722254
aF48.33218389437829
aF52.354560450833695
aF420.83963691648626
aF165.94577427581578
aF31.89043743820395
aF214.67417171145672
aF134.40610105199838
aF43.56604182158393
aF149.41218156495808
aF14.422205101855956
aF425.20583250938597
aF169.04733065032408
aF120.95040305844375
aF34.48187929913333
aF257.1633721975196
aF49.040799340956916
aF183.22117781522965
aF368.6583784481237
aF77.46612162745726
aF96.66436778875658
aF63.52952069707436
aF68.8839603971781
aF105.04284840006957
aF104.01922899156675
aF116.3486140871476
aF117.34564329364768
aF171.82840277439584
aF508.2361655765949
aF215.0348808914498
aF99.31767214348109
aF79.2464510246358
aF848.9835098516343
aF302.1671722738921
aF344.70277051396033
aF513.4608066834313
aF164.98484778912274
aF629.3210627334827
aF120.20815280171308
aF151.15885683611134
aF167.72000476985446
aF559.6516773851392
aF181.5736765062601
aF618.4504830623063
aF146.4547711752676
aF103.77379245262264
aF241.00622398602076
aF275.234445518725
aF100.44899203078147
aF165.3027525481654
aF608.3757062868307
aF96.54014708917737
aF131.21737689803132
aF606.3868402265999
aF182.3896926912264
aF133.6600164596728
aF150.05332385522155
aF37.16180835212409
aF101.6366075781753
aF57.982756057296896
aF147.46185947559457
aF526.0237637217543
aF206.0218435020908
aF133.64505228402584
aF131.52946437965906
aF100.0199980003999
asg75
F79.16666666666666
ssI124
(dp379
g2
(lp380
S'00124'
p381
aS'00125'
p382
aS'00126'
p383
aS'00127'
p384
aS'00129'
p385
aS'00132'
p386
aS'00134'
p387
aS'00135'
p388
aS'00136'
p389
aS'00138'
p390
aS'00139'
p391
aS'00142'
p392
aS'00152'
p393
aS'00157'
p394
aS'00165'
p395
aS'00168'
p396
aS'00170'
p397
aS'00171'
p398
aS'00174'
p399
aS'00175'
p400
aS'00187'
p401
aS'00188'
p402
aS'00193'
p403
aS'00253'
p404
aS'00255'
p405
aS'00277'
p406
asg69
(lp407
I21
aI2
aI5
aI5
aI1
aI1
aI2
aI1
aI1
aI1
aI1
aI1
aI0
aI0
aI0
aI0
aI1
aI0
aI1
aI1
aI1
aI0
aI0
aI0
aI0
aI0
asg71
(lp408
I21
aI2
aI5
aI5
aI1
aI1
aI2
aI1
aI1
aI1
aI1
aI1
aI1
aI1
aI1
aI1
aI1
aI1
aI1
aI1
aI1
aI1
aI1
aI1
aI1
aI1
asg73
(lp409
F6.082762530298219
aF23.600847442411894
aF20.591260281974
aF13.038404810405298
aF36.40054944640259
aF29.274562336608895
aF14.560219778561036
aF10.198039027185569
aF26.30589287593181
aF29.068883707497267
aF27.16615541441225
aF28.0
aF500.0569967513703
aF296.99831649354513
aF60.207972893961475
aF65.5133574166368
aF43.56604182158393
aF78.54934754662193
aF19.6468827043885
aF22.561028345356956
aF103.94229168149026
aF472.4616386543991
aF119.5198728245642
aF313.8056723515367
aF310.30468897520706
aF284.4591359053177
asg75
F82.14285714285714
ss.