(dp0
I124
(dp1
S'overall accuracy'
p2
F70.17045454545455
sS'frame numbers'
p3
(lp4
S'00124'
p5
aS'00125'
p6
aS'00126'
p7
aS'00127'
p8
aS'00128'
p9
aS'00129'
p10
aS'00130'
p11
aS'00131'
p12
aS'00132'
p13
aS'00133'
p14
aS'00134'
p15
aS'00135'
p16
aS'00136'
p17
aS'00137'
p18
aS'00138'
p19
aS'00139'
p20
aS'00140'
p21
aS'00141'
p22
aS'00142'
p23
aS'00143'
p24
aS'00144'
p25
aS'00145'
p26
aS'00146'
p27
aS'00147'
p28
aS'00148'
p29
aS'00149'
p30
aS'00150'
p31
aS'00151'
p32
aS'00152'
p33
aS'00153'
p34
aS'00154'
p35
aS'00155'
p36
aS'00156'
p37
aS'00157'
p38
aS'00158'
p39
aS'00159'
p40
aS'00160'
p41
aS'00161'
p42
aS'00162'
p43
aS'00163'
p44
aS'00164'
p45
aS'00165'
p46
aS'00166'
p47
aS'00167'
p48
aS'00168'
p49
aS'00169'
p50
aS'00170'
p51
aS'00171'
p52
aS'00172'
p53
aS'00173'
p54
aS'00174'
p55
aS'00175'
p56
aS'00176'
p57
aS'00177'
p58
aS'00178'
p59
aS'00179'
p60
aS'00180'
p61
aS'00181'
p62
aS'00182'
p63
aS'00183'
p64
aS'00184'
p65
aS'00185'
p66
aS'00186'
p67
aS'00187'
p68
aS'00188'
p69
aS'00189'
p70
aS'00190'
p71
aS'00191'
p72
aS'00192'
p73
aS'00193'
p74
aS'00194'
p75
aS'00195'
p76
aS'00196'
p77
aS'00197'
p78
aS'00198'
p79
aS'00199'
p80
aS'00200'
p81
aS'00201'
p82
aS'00202'
p83
aS'00203'
p84
aS'00204'
p85
aS'00205'
p86
aS'00206'
p87
aS'00207'
p88
aS'00208'
p89
aS'00209'
p90
aS'00210'
p91
aS'00211'
p92
aS'00212'
p93
aS'00213'
p94
aS'00214'
p95
aS'00215'
p96
aS'00216'
p97
aS'00217'
p98
aS'00218'
p99
aS'00219'
p100
aS'00220'
p101
aS'00221'
p102
aS'00222'
p103
aS'00223'
p104
aS'00224'
p105
aS'00225'
p106
aS'00227'
p107
aS'00228'
p108
aS'00229'
p109
aS'00230'
p110
aS'00231'
p111
aS'00232'
p112
aS'00233'
p113
aS'00234'
p114
aS'00235'
p115
aS'00236'
p116
aS'00238'
p117
aS'00239'
p118
aS'00240'
p119
aS'00241'
p120
aS'00243'
p121
aS'00244'
p122
aS'00245'
p123
aS'00247'
p124
aS'00248'
p125
aS'00252'
p126
aS'00253'
p127
aS'00254'
p128
aS'00255'
p129
aS'00256'
p130
aS'00257'
p131
aS'00258'
p132
aS'00259'
p133
aS'00260'
p134
aS'00261'
p135
aS'00262'
p136
aS'00264'
p137
aS'00265'
p138
aS'00267'
p139
aS'00268'
p140
aS'00270'
p141
aS'00271'
p142
aS'00272'
p143
aS'00273'
p144
aS'00274'
p145
aS'00275'
p146
aS'00276'
p147
aS'00277'
p148
aS'00279'
p149
aS'00280'
p150
aS'00281'
p151
aS'00282'
p152
aS'00283'
p153
aS'00284'
p154
aS'00285'
p155
aS'00286'
p156
aS'00287'
p157
aS'00288'
p158
asS'hypotenuse'
p159
(lp160
F99.6393496566492
aF99.6393496566492
aF99.6393496566492
aF104.4030650891055
aF104.4030650891055
aF104.4030650891055
aF110.63453348751464
aF110.63453348751464
aF110.63453348751464
aF110.63453348751464
aF113.70136322841516
aF118.06777714516353
aF116.51609330903607
aF116.51609330903607
aF116.51609330903607
aF114.97825881443848
aF114.97825881443848
aF122.80065146407001
aF122.80065146407001
aF118.06777714516353
aF114.97825881443848
aF111.94641575325224
aF111.94641575325224
aF114.6298390472568
aF117.5925167687128
aF117.5925167687128
aF120.28299963003916
aF120.28299963003916
aF120.28299963003916
aF123.23960402403117
aF123.23960402403117
aF121.62236636408618
aF121.62236636408618
aF121.62236636408618
aF124.45079348883236
aF128.70120434556935
aF127.31064370271639
aF128.76334882255898
aF134.41726079637243
aF137.3608386695422
aF138.59292911256333
aF151.32745950421557
aF151.32745950421557
aF142.12670403551894
aF142.12670403551894
aF149.30505684671232
aF155.97435686676192
aF170.55204484262273
aF170.55204484262273
aF169.00887550658396
aF174.22973339817747
aF178.54971296532514
aF181.57092278225608
aF184.19554826325202
aF188.52055590836773
aF195.8979326077741
aF201.5341162185698
aF203.9607805437114
aF206.7849124090053
aF212.60291625469299
aF221.7746604100658
aF225.61028345356956
aF223.32935319836486
aF242.42112119202815
aF244.88364584022347
aF254.566297847928
aF259.6690201005888
aF271.1825953117198
aF288.0902636327719
aF290.83328557783756
aF298.61011369342464
aF305.7907781474124
aF315.49326458737596
aF325.48425461149424
aF332.38531856867564
aF346.4678917302439
aF354.91970923012997
aF372.63386856269517
aF372.63386856269517
aF381.37645443839347
aF390.1281840626232
aF397.3159951474393
aF417.93779441443195
aF424.16977732978575
aF433.62656745176486
aF441.6016304317728
aF450.8347812669293
aF462.21207253813697
aF505.8893159575521
aF510.3920062069938
aF510.3920062069938
aF523.6945674723006
aF523.6945674723006
aF524.6903848937962
aF536.674948176268
aF550.1454353168806
aF564.7583554052122
aF571.233752504174
aF587.7278281653847
aF598.0
aF612.800130548289
aF621.7169774101395
aF651.0821760730361
aF657.0783819301926
aF670.188033316024
aF683.3388617662544
aF693.8875989668644
aF710.7517147358844
aF715.0552426211558
aF733.0948096938076
aF740.2107807915256
aF740.2107807915256
aF757.7149859940741
aF773.6795202149273
aF779.1200164287912
aF791.403816013039
aF793.5767133680272
aF797.5587752636166
aF792.3736492337438
aF792.3736492337438
aF792.3736492337438
aF784.6451427237665
aF775.7138647723141
aF775.7138647723141
aF775.7138647723141
aF775.7138647723141
aF764.3088381014575
aF764.3088381014575
aF764.3088381014575
aF764.3088381014575
aF764.3088381014575
aF764.3088381014575
aF764.3088381014575
aF764.3088381014575
aF764.3088381014575
aF762.5772092057302
aF763.5810369567856
aF763.5810369567856
aF763.5810369567856
aF763.5810369567856
aF763.5810369567856
aF763.5810369567856
aF763.5810369567856
aF763.5810369567856
aF763.5810369567856
aF763.5810369567856
aF763.5810369567856
aF763.5810369567856
aF763.5810369567856
aF772.5076051405579
aF772.5076051405579
aF776.9710419314223
aF778.9865210643892
aF784.1683492720169
asS'distance from center'
p161
(lp162
F5.385164807134504
aF6.0
aF5.0990195135927845
aF3.605551275463989
aF4.47213595499958
aF23.853720883753127
aF13.0
aF5.830951894845301
aF1.4142135623730951
aF9.486832980505138
aF11.180339887498949
aF4.47213595499958
aF29.154759474226502
aF31.016124838541646
aF34.0147027033899
aF1.4142135623730951
aF7.0710678118654755
aF5.0990195135927845
aF2.0
aF25.059928172283335
aF23.600847442411894
aF24.758836806279895
aF32.14031735997639
aF17.804493814764857
aF30.066592756745816
aF16.64331697709324
aF30.364452901377952
aF29.966648127543394
aF25.942243542145693
aF6.708203932499369
aF9.899494936611665
aF13.341664064126334
aF14.560219778561036
aF11.661903789690601
aF17.11724276862369
aF25.079872407968907
aF14.142135623730951
aF22.360679774997898
aF9.219544457292887
aF22.47220505424423
aF17.4928556845359
aF7.280109889280518
aF18.601075237738275
aF31.016124838541646
aF21.587033144922902
aF19.4164878389476
aF22.561028345356956
aF28.071337695236398
aF31.064449134018133
aF8.246211251235321
aF24.020824298928627
aF19.849433241279208
aF6.708203932499369
aF5.830951894845301
aF7.280109889280518
aF10.816653826391969
aF6.708203932499369
aF29.017236257093817
aF30.479501308256342
aF12.529964086141668
aF41.23105625617661
aF207.62466134830902
aF30.364452901377952
aF107.93516572461452
aF42.42640687119285
aF6.324555320336759
aF58.137767414994535
aF57.0087712549569
aF46.09772228646444
aF128.4562182223967
aF76.00657866263946
aF84.38009243891595
aF138.07968713753664
aF142.20056258679148
aF326.7919827657955
aF230.5666931714119
aF103.61949623502326
aF116.36150566231085
aF111.35977729862789
aF128.9961239727768
aF237.36048533822978
aF219.8021837926093
aF37.33630940518894
aF40.01249804748511
aF120.50311199301038
aF148.29699929533302
aF89.81091247727082
aF388.36065712170176
aF71.58910531638176
aF189.64440408301004
aF206.0509645694482
aF163.36768346279504
aF198.90952717253137
aF226.15260334561705
aF38.07886552931954
aF79.92496481075234
aF706.7708256570867
aF448.69254506844663
aF78.77182237323191
aF71.40028011149536
aF83.2946576918352
aF289.77404990785493
aF460.10868281309365
aF304.8212591011329
aF477.5447622998288
aF487.54486972995625
aF495.7822102496216
aF501.09081013325317
aF509.3181716766053
aF518.536401808012
aF522.2575992745343
aF526.3762912593993
aF538.5629025471397
aF360.5551275463989
aF549.8672567083805
aF549.8672567083805
aF554.2355095083677
aF161.27616066858735
aF555.972121603233
aF554.9495472563249
aF553.0144663568938
aF549.6071324136906
aF546.4521937004188
aF546.4521937004188
aF147.41099009232656
aF158.44872987815333
aF265.2941763401526
aF161.24515496597098
aF537.812234892439
aF538.7773194929423
aF537.2913548532118
aF536.8472780968532
aF154.31137352768266
aF535.3596921696665
aF535.8824497965949
aF537.1107893163197
aF535.7163428531932
aF534.7532141090879
aF534.7532141090879
aF533.7902209670012
aF533.5213210360014
aF533.5213210360014
aF613.6489224304073
aF534.7532141090879
aF532.5579780643607
aF533.0984899622208
aF147.41099009232656
aF533.9222789882438
aF536.8053650998656
aF145.2067491544384
aF203.78910667648555
aF144.61673485458036
aF571.541774501217
aF160.77624202599088
asS'boxes'
p163
(dp164
I124
(lp165
I122
aI460
aI44
aI398
asI125
(lp166
I122
aI450
aI44
aI388
asI126
(lp167
I122
aI450
aI44
aI388
asI127
(lp168
I122
aI450
aI38
aI388
asI128
(lp169
I114
aI454
aI30
aI392
asI129
(lp170
I100
aI458
aI16
aI396
asI130
(lp171
I90
aI466
aI6
aI394
asI131
(lp172
I86
aI466
aI2
aI394
asI132
(lp173
I86
aI464
aI2
aI392
asI133
(lp174
I86
aI458
aI2
aI386
asI134
(lp175
I98
aI458
aI10
aI386
asI135
(lp176
I114
aI456
aI22
aI382
asI136
(lp177
I128
aI450
aI38
aI376
asI137
(lp178
I148
aI450
aI58
aI376
asI138
(lp179
I170
aI446
aI80
aI372
asI139
(lp180
I186
aI440
aI98
aI366
asI140
(lp181
I198
aI436
aI110
aI362
asI141
(lp182
I214
aI430
aI116
aI356
asI142
(lp183
I232
aI430
aI134
aI356
asI143
(lp184
I246
aI432
aI154
aI358
asI144
(lp185
I262
aI436
aI174
aI362
asI145
(lp186
I278
aI448
aI194
aI374
asI146
(lp187
I296
aI452
aI212
aI378
asI147
(lp188
I312
aI454
aI228
aI376
asI148
(lp189
I338
aI458
aI250
aI380
asI149
(lp190
I356
aI464
aI268
aI386
asI150
(lp191
I394
aI468
aI306
aI386
asI151
(lp192
I416
aI468
aI328
aI386
asI152
(lp193
I432
aI472
aI344
aI390
asI153
(lp194
I452
aI472
aI360
aI390
asI154
(lp195
I468
aI470
aI376
aI388
asI155
(lp196
I472
aI470
aI386
aI384
asI156
(lp197
I486
aI464
aI400
aI378
asI157
(lp198
I502
aI462
aI416
aI376
asI158
(lp199
I520
aI462
aI432
aI374
asI159
(lp200
I538
aI466
aI446
aI376
asI160
(lp201
I554
aI460
aI462
aI372
asI161
(lp202
I570
aI460
aI476
aI372
asI162
(lp203
I586
aI460
aI488
aI368
asI163
(lp204
I594
aI458
aI492
aI366
asI164
(lp205
I604
aI460
aI506
aI362
asI165
(lp206
I620
aI472
aI512
aI366
asI166
(lp207
I628
aI478
aI520
aI372
asI167
(lp208
I638
aI476
aI528
aI386
asI168
(lp209
I644
aI476
aI534
aI386
asI169
(lp210
I662
aI480
aI546
aI386
asI170
(lp211
I676
aI492
aI558
aI390
asI171
(lp212
I702
aI502
aI570
aI394
asI172
(lp213
I714
aI508
aI582
aI400
asI173
(lp214
I720
aI508
aI590
aI400
asI174
(lp215
I726
aI512
aI596
aI396
asI175
(lp216
I732
aI514
aI598
aI396
asI176
(lp217
I740
aI514
aI602
aI396
asI177
(lp218
I744
aI514
aI606
aI392
asI178
(lp219
I752
aI516
aI610
aI392
asI179
(lp220
I764
aI516
aI614
aI390
asI180
(lp221
I770
aI516
aI616
aI386
asI181
(lp222
I776
aI520
aI624
aI384
asI182
(lp223
I778
aI520
aI624
aI382
asI183
(lp224
I784
aI522
aI624
aI382
asI184
(lp225
I796
aI524
aI624
aI384
asI185
(lp226
I786
aI534
aI614
aI388
asI186
(lp227
I780
aI538
aI606
aI398
asI187
(lp228
I782
aI548
aI590
aI400
asI188
(lp229
I770
aI560
aI578
aI408
asI189
(lp230
I766
aI574
aI568
aI414
asI190
(lp231
I756
aI588
aI558
aI420
asI191
(lp232
I752
aI608
aI544
aI434
asI192
(lp233
I752
aI624
aI532
aI438
asI193
(lp234
I756
aI630
aI526
aI452
asI194
(lp235
I748
aI646
aI516
aI458
asI195
(lp236
I748
aI650
aI510
aI458
asI196
(lp237
I748
aI658
aI504
aI458
asI197
(lp238
I750
aI664
aI498
aI458
asI198
(lp239
I748
aI670
aI492
aI458
asI199
(lp240
I752
aI676
aI486
aI454
asI200
(lp241
I750
aI676
aI478
aI448
asI201
(lp242
I750
aI682
aI460
aI448
asI202
(lp243
I750
aI674
aI460
aI440
asI203
(lp244
I742
aI670
aI444
aI432
asI204
(lp245
I740
aI664
aI434
aI422
asI205
(lp246
I740
aI662
aI428
aI416
asI206
(lp247
I746
aI668
aI422
aI404
asI207
(lp248
I752
aI668
aI420
aI404
asI208
(lp249
I750
aI668
aI406
aI404
asI209
(lp250
I748
aI666
aI394
aI402
asI210
(lp251
I736
aI664
aI372
aI398
asI211
(lp252
I724
aI670
aI346
aI404
asI212
(lp253
I728
aI684
aI308
aI402
asI213
(lp254
I730
aI698
aI310
aI408
asI214
(lp255
I734
aI702
aI314
aI412
asI215
(lp256
I728
aI718
aI288
aI434
asI216
(lp257
I728
aI718
aI288
aI434
asI217
(lp258
I728
aI718
aI270
aI462
asI218
(lp259
I718
aI718
aI240
aI474
asI219
(lp260
I718
aI718
aI222
aI480
asI220
(lp261
I720
aI718
aI206
aI484
asI221
(lp262
I712
aI718
aI190
aI486
asI222
(lp263
I712
aI718
aI172
aI486
asI223
(lp264
I710
aI718
aI158
aI488
asI224
(lp265
I708
aI718
aI140
aI488
asI225
(lp266
I710
aI718
aI134
aI484
asI226
(lp267
I708
aI718
aI120
aI480
asI227
(lp268
I714
aI718
aI112
aI470
asI228
(lp269
I716
aI718
aI110
aI464
asI229
(lp270
I724
aI718
aI108
aI454
asI230
(lp271
I730
aI718
aI104
aI444
asI231
(lp272
I736
aI718
aI102
aI436
asI232
(lp273
I744
aI718
aI96
aI426
asI233
(lp274
I746
aI718
aI96
aI420
asI234
(lp275
I750
aI718
aI82
aI416
asI235
(lp276
I750
aI718
aI76
aI412
asI236
(lp277
I750
aI718
aI76
aI412
asI237
(lp278
I750
aI718
aI70
aI408
asI238
(lp279
I756
aI718
aI72
aI392
asI239
(lp280
I762
aI718
aI70
aI372
asI240
(lp281
I768
aI718
aI76
aI360
asI241
(lp282
I776
aI718
aI84
aI334
asI242
(lp283
I784
aI718
aI100
aI334
asI243
(lp284
I794
aI718
aI104
aI326
asI244
(lp285
I796
aI718
aI106
aI318
asI245
(lp286
I802
aI714
aI118
aI314
asI246
(lp287
I802
aI702
aI118
aI302
asI247
(lp288
I802
aI702
aI118
aI302
asI248
(lp289
I804
aI698
aI120
aI298
asI249
(lp290
I804
aI690
aI120
aI298
asI250
(lp291
I804
aI674
aI120
aI282
asI251
(lp292
I806
aI674
aI124
aI282
asI252
(lp293
I806
aI660
aI124
aI272
asI253
(lp294
I804
aI646
aI130
aI262
asI254
(lp295
I802
aI636
aI128
aI252
asI255
(lp296
I802
aI630
aI128
aI246
asI256
(lp297
I802
aI630
aI128
aI246
asI257
(lp298
I800
aI634
aI138
aI252
asI258
(lp299
I800
aI634
aI138
aI252
asI259
(lp300
I798
aI636
aI136
aI254
asI260
(lp301
I794
aI638
aI132
aI256
asI261
(lp302
I794
aI638
aI132
aI256
asI262
(lp303
I794
aI640
aI132
aI258
asI263
(lp304
I792
aI642
aI130
aI260
asI264
(lp305
I792
aI642
aI130
aI260
asI265
(lp306
I792
aI642
aI130
aI260
asI266
(lp307
I790
aI646
aI128
aI264
asI267
(lp308
I790
aI646
aI128
aI264
asI268
(lp309
I786
aI648
aI126
aI266
asI269
(lp310
I786
aI648
aI126
aI266
asI270
(lp311
I786
aI652
aI126
aI268
asI271
(lp312
I786
aI652
aI126
aI268
asI272
(lp313
I786
aI652
aI126
aI268
asI273
(lp314
I786
aI652
aI126
aI268
asI274
(lp315
I786
aI652
aI126
aI268
asI275
(lp316
I786
aI652
aI126
aI268
asI276
(lp317
I786
aI652
aI126
aI268
asI277
(lp318
I786
aI652
aI126
aI268
asI278
(lp319
I786
aI652
aI126
aI268
asI279
(lp320
I786
aI648
aI126
aI264
asI280
(lp321
I786
aI648
aI126
aI264
asI281
(lp322
I792
aI648
aI132
aI264
asI282
(lp323
I792
aI648
aI132
aI264
asI283
(lp324
I792
aI648
aI132
aI264
asI284
(lp325
I800
aI652
aI132
aI264
asI285
(lp326
I800
aI654
aI132
aI266
asI286
(lp327
I804
aI656
aI132
aI266
asI287
(lp328
I804
aI662
aI132
aI268
asI288
(lp329
I810
aI666
aI132
aI272
assS'correct kp matches'
p330
(lp331
I73
aI41
aI39
aI19
aI10
aI8
aI6
aI18
aI14
aI17
aI8
aI5
aI1
aI1
aI1
aI5
aI4
aI4
aI3
aI2
aI1
aI1
aI1
aI3
aI1
aI3
aI2
aI2
aI2
aI4
aI5
aI4
aI1
aI4
aI4
aI3
aI5
aI5
aI3
aI5
aI8
aI6
aI4
aI6
aI7
aI7
aI8
aI5
aI5
aI9
aI5
aI3
aI9
aI6
aI6
aI7
aI4
aI4
aI2
aI3
aI1
aI1
aI1
aI0
aI0
aI1
aI1
aI1
aI0
aI0
aI0
aI1
aI0
aI0
aI0
aI0
aI1
aI2
aI2
aI1
aI0
aI0
aI0
aI0
aI1
aI0
aI1
aI0
aI2
aI1
aI0
aI2
aI1
aI0
aI2
aI1
aI1
aI0
aI1
aI1
aI1
aI1
aI0
aI1
aI0
aI0
aI0
aI0
aI0
aI0
aI0
aI0
aI0
aI1
aI0
aI0
aI0
aI1
aI0
aI0
aI0
aI0
aI0
aI0
aI1
aI1
aI1
aI1
aI0
aI0
aI0
aI0
aI1
aI0
aI0
aI0
aI0
aI0
aI0
aI0
aI0
aI0
aI0
aI0
aI0
aI0
aI1
aI0
aI0
aI1
aI1
aI1
aI0
aI1
asS'total kp matches'
p332
(lp333
I73
aI42
aI41
aI20
aI12
aI8
aI6
aI18
aI14
aI19
aI8
aI6
aI2
aI2
aI2
aI6
aI5
aI4
aI4
aI3
aI1
aI1
aI2
aI3
aI2
aI3
aI3
aI3
aI3
aI5
aI7
aI5
aI3
aI5
aI6
aI4
aI6
aI5
aI6
aI6
aI9
aI9
aI6
aI9
aI11
aI11
aI11
aI8
aI7
aI11
aI6
aI4
aI12
aI9
aI8
aI9
aI6
aI5
aI3
aI5
aI4
aI3
aI3
aI1
aI2
aI3
aI2
aI2
aI2
aI1
aI2
aI2
aI1
aI1
aI2
aI3
aI3
aI5
aI6
aI4
aI3
aI1
aI2
aI2
aI2
aI3
aI5
aI3
aI3
aI3
aI3
aI2
aI4
aI2
aI3
aI2
aI4
aI1
aI1
aI2
aI1
aI1
aI1
aI2
aI1
aI1
aI1
aI2
aI1
aI1
aI1
aI1
aI1
aI2
aI1
aI1
aI1
aI2
aI1
aI1
aI1
aI1
aI1
aI1
aI1
aI2
aI3
aI2
aI1
aI1
aI1
aI1
aI2
aI1
aI1
aI1
aI1
aI1
aI1
aI1
aI1
aI1
aI2
aI1
aI1
aI1
aI1
aI1
aI1
aI1
aI3
aI1
aI2
aI2
ass.