(dp0
I224
(dp1
S'boxes'
p2
(dp3
I124
(lp4
I122
aI460
aI44
aI398
asI125
(lp5
I122
aI450
aI44
aI388
asI126
(lp6
I122
aI450
aI44
aI388
asI127
(lp7
I122
aI450
aI38
aI388
asI128
(lp8
I114
aI454
aI30
aI392
asI129
(lp9
I100
aI458
aI16
aI396
asI130
(lp10
I90
aI466
aI6
aI394
asI131
(lp11
I86
aI466
aI2
aI394
asI132
(lp12
I86
aI464
aI2
aI392
asI133
(lp13
I86
aI458
aI2
aI386
asI134
(lp14
I98
aI458
aI10
aI386
asI135
(lp15
I114
aI456
aI22
aI382
asI136
(lp16
I128
aI450
aI38
aI376
asI137
(lp17
I148
aI450
aI58
aI376
asI138
(lp18
I170
aI446
aI80
aI372
asI139
(lp19
I186
aI440
aI98
aI366
asI140
(lp20
I198
aI436
aI110
aI362
asI141
(lp21
I214
aI430
aI116
aI356
asI142
(lp22
I232
aI430
aI134
aI356
asI143
(lp23
I246
aI432
aI154
aI358
asI144
(lp24
I262
aI436
aI174
aI362
asI145
(lp25
I278
aI448
aI194
aI374
asI146
(lp26
I296
aI452
aI212
aI378
asI147
(lp27
I312
aI454
aI228
aI376
asI148
(lp28
I338
aI458
aI250
aI380
asI149
(lp29
I356
aI464
aI268
aI386
asI150
(lp30
I394
aI468
aI306
aI386
asI151
(lp31
I416
aI468
aI328
aI386
asI152
(lp32
I432
aI472
aI344
aI390
asI153
(lp33
I452
aI472
aI360
aI390
asI154
(lp34
I468
aI470
aI376
aI388
asI155
(lp35
I472
aI470
aI386
aI384
asI156
(lp36
I486
aI464
aI400
aI378
asI157
(lp37
I502
aI462
aI416
aI376
asI158
(lp38
I520
aI462
aI432
aI374
asI159
(lp39
I538
aI466
aI446
aI376
asI160
(lp40
I554
aI460
aI462
aI372
asI161
(lp41
I570
aI460
aI476
aI372
asI162
(lp42
I586
aI460
aI488
aI368
asI163
(lp43
I594
aI458
aI492
aI366
asI164
(lp44
I604
aI460
aI506
aI362
asI165
(lp45
I620
aI472
aI512
aI366
asI166
(lp46
I628
aI478
aI520
aI372
asI167
(lp47
I638
aI476
aI528
aI386
asI168
(lp48
I644
aI476
aI534
aI386
asI169
(lp49
I662
aI480
aI546
aI386
asI170
(lp50
I676
aI492
aI558
aI390
asI171
(lp51
I702
aI502
aI570
aI394
asI172
(lp52
I714
aI508
aI582
aI400
asI173
(lp53
I720
aI508
aI590
aI400
asI174
(lp54
I726
aI512
aI596
aI396
asI175
(lp55
I732
aI514
aI598
aI396
asI176
(lp56
I740
aI514
aI602
aI396
asI177
(lp57
I744
aI514
aI606
aI392
asI178
(lp58
I752
aI516
aI610
aI392
asI179
(lp59
I764
aI516
aI614
aI390
asI180
(lp60
I770
aI516
aI616
aI386
asI181
(lp61
I776
aI520
aI624
aI384
asI182
(lp62
I778
aI520
aI624
aI382
asI183
(lp63
I784
aI522
aI624
aI382
asI184
(lp64
I796
aI524
aI624
aI384
asI185
(lp65
I786
aI534
aI614
aI388
asI186
(lp66
I780
aI538
aI606
aI398
asI187
(lp67
I782
aI548
aI590
aI400
asI188
(lp68
I770
aI560
aI578
aI408
asI189
(lp69
I766
aI574
aI568
aI414
asI190
(lp70
I756
aI588
aI558
aI420
asI191
(lp71
I752
aI608
aI544
aI434
asI192
(lp72
I752
aI624
aI532
aI438
asI193
(lp73
I756
aI630
aI526
aI452
asI194
(lp74
I748
aI646
aI516
aI458
asI195
(lp75
I748
aI650
aI510
aI458
asI196
(lp76
I748
aI658
aI504
aI458
asI197
(lp77
I750
aI664
aI498
aI458
asI198
(lp78
I748
aI670
aI492
aI458
asI199
(lp79
I752
aI676
aI486
aI454
asI200
(lp80
I750
aI676
aI478
aI448
asI201
(lp81
I750
aI682
aI460
aI448
asI202
(lp82
I750
aI674
aI460
aI440
asI203
(lp83
I742
aI670
aI444
aI432
asI204
(lp84
I740
aI664
aI434
aI422
asI205
(lp85
I740
aI662
aI428
aI416
asI206
(lp86
I746
aI668
aI422
aI404
asI207
(lp87
I752
aI668
aI420
aI404
asI208
(lp88
I750
aI668
aI406
aI404
asI209
(lp89
I748
aI666
aI394
aI402
asI210
(lp90
I736
aI664
aI372
aI398
asI211
(lp91
I724
aI670
aI346
aI404
asI212
(lp92
I728
aI684
aI308
aI402
asI213
(lp93
I730
aI698
aI310
aI408
asI214
(lp94
I734
aI702
aI314
aI412
asI215
(lp95
I728
aI718
aI288
aI434
asI216
(lp96
I728
aI718
aI288
aI434
asI217
(lp97
I728
aI718
aI270
aI462
asI218
(lp98
I718
aI718
aI240
aI474
asI219
(lp99
I718
aI718
aI222
aI480
asI220
(lp100
I720
aI718
aI206
aI484
asI221
(lp101
I712
aI718
aI190
aI486
asI222
(lp102
I712
aI718
aI172
aI486
asI223
(lp103
I710
aI718
aI158
aI488
asI224
(lp104
I708
aI718
aI140
aI488
asI225
(lp105
I710
aI718
aI134
aI484
asI226
(lp106
I708
aI718
aI120
aI480
asI227
(lp107
I714
aI718
aI112
aI470
asI228
(lp108
I716
aI718
aI110
aI464
asI229
(lp109
I724
aI718
aI108
aI454
asI230
(lp110
I730
aI718
aI104
aI444
asI231
(lp111
I736
aI718
aI102
aI436
asI232
(lp112
I744
aI718
aI96
aI426
asI233
(lp113
I746
aI718
aI96
aI420
asI234
(lp114
I750
aI718
aI82
aI416
asI235
(lp115
I750
aI718
aI76
aI412
asI236
(lp116
I750
aI718
aI76
aI412
asI237
(lp117
I750
aI718
aI70
aI408
asI238
(lp118
I756
aI718
aI72
aI392
asI239
(lp119
I762
aI718
aI70
aI372
asI240
(lp120
I768
aI718
aI76
aI360
asI241
(lp121
I776
aI718
aI84
aI334
asI242
(lp122
I784
aI718
aI100
aI334
asI243
(lp123
I794
aI718
aI104
aI326
asI244
(lp124
I796
aI718
aI106
aI318
asI245
(lp125
I802
aI714
aI118
aI314
asI246
(lp126
I802
aI702
aI118
aI302
asI247
(lp127
I802
aI702
aI118
aI302
asI248
(lp128
I804
aI698
aI120
aI298
asI249
(lp129
I804
aI690
aI120
aI298
asI250
(lp130
I804
aI674
aI120
aI282
asI251
(lp131
I806
aI674
aI124
aI282
asI252
(lp132
I806
aI660
aI124
aI272
asI253
(lp133
I804
aI646
aI130
aI262
asI254
(lp134
I802
aI636
aI128
aI252
asI255
(lp135
I802
aI630
aI128
aI246
asI256
(lp136
I802
aI630
aI128
aI246
asI257
(lp137
I800
aI634
aI138
aI252
asI258
(lp138
I800
aI634
aI138
aI252
asI259
(lp139
I798
aI636
aI136
aI254
asI260
(lp140
I794
aI638
aI132
aI256
asI261
(lp141
I794
aI638
aI132
aI256
asI262
(lp142
I794
aI640
aI132
aI258
asI263
(lp143
I792
aI642
aI130
aI260
asI264
(lp144
I792
aI642
aI130
aI260
asI265
(lp145
I792
aI642
aI130
aI260
asI266
(lp146
I790
aI646
aI128
aI264
asI267
(lp147
I790
aI646
aI128
aI264
asI268
(lp148
I786
aI648
aI126
aI266
asI269
(lp149
I786
aI648
aI126
aI266
asI270
(lp150
I786
aI652
aI126
aI268
asI271
(lp151
I786
aI652
aI126
aI268
asI272
(lp152
I786
aI652
aI126
aI268
asI273
(lp153
I786
aI652
aI126
aI268
asI274
(lp154
I786
aI652
aI126
aI268
asI275
(lp155
I786
aI652
aI126
aI268
asI276
(lp156
I786
aI652
aI126
aI268
asI277
(lp157
I786
aI652
aI126
aI268
asI278
(lp158
I786
aI652
aI126
aI268
asI279
(lp159
I786
aI648
aI126
aI264
asI280
(lp160
I786
aI648
aI126
aI264
asI281
(lp161
I792
aI648
aI132
aI264
asI282
(lp162
I792
aI648
aI132
aI264
asI283
(lp163
I792
aI648
aI132
aI264
asI284
(lp164
I800
aI652
aI132
aI264
asI285
(lp165
I800
aI654
aI132
aI266
asI286
(lp166
I804
aI656
aI132
aI266
asI287
(lp167
I804
aI662
aI132
aI268
asI288
(lp168
I810
aI666
aI132
aI272
assS'overall accuracy'
p169
F86.90341783844812
sS'c_match'
p170
(lp171
I00
aI00
aI00
aI00
aI00
aI00
aI00
aI00
aI00
aI00
aI00
aI00
aI00
aI00
aI00
aI00
aI00
aI00
aI00
aI00
aI00
aI00
aI00
aI00
aI00
aI00
aI00
aI00
aI00
aI00
aI00
aI00
aI00
aI00
aI00
aI00
aI00
aI00
aI00
aI00
aI00
aI00
aI00
aI00
aI00
aI00
aI00
aI00
aI00
aI00
aI00
aI00
aI00
aI00
aI00
aI00
aI00
aI00
aI00
aI00
aI00
aI00
aI00
aI00
aI00
asS'frame numbers'
p172
(lp173
S'00224'
p174
aS'00225'
p175
aS'00226'
p176
aS'00227'
p177
aS'00228'
p178
aS'00229'
p179
aS'00230'
p180
aS'00231'
p181
aS'00232'
p182
aS'00233'
p183
aS'00234'
p184
aS'00235'
p185
aS'00236'
p186
aS'00237'
p187
aS'00238'
p188
aS'00239'
p189
aS'00240'
p190
aS'00241'
p191
aS'00242'
p192
aS'00243'
p193
aS'00244'
p194
aS'00245'
p195
aS'00246'
p196
aS'00247'
p197
aS'00248'
p198
aS'00249'
p199
aS'00250'
p200
aS'00251'
p201
aS'00252'
p202
aS'00253'
p203
aS'00254'
p204
aS'00255'
p205
aS'00256'
p206
aS'00257'
p207
aS'00258'
p208
aS'00259'
p209
aS'00260'
p210
aS'00261'
p211
aS'00262'
p212
aS'00263'
p213
aS'00264'
p214
aS'00265'
p215
aS'00266'
p216
aS'00267'
p217
aS'00268'
p218
aS'00269'
p219
aS'00270'
p220
aS'00271'
p221
aS'00272'
p222
aS'00273'
p223
aS'00274'
p224
aS'00275'
p225
aS'00276'
p226
aS'00277'
p227
aS'00278'
p228
aS'00279'
p229
aS'00280'
p230
aS'00281'
p231
aS'00282'
p232
aS'00283'
p233
aS'00284'
p234
aS'00285'
p235
aS'00286'
p236
aS'00287'
p237
aS'00288'
p238
asS'correct kp matches'
p239
(lp240
I1018
aI426
aI298
aI216
aI112
aI93
aI117
aI107
aI115
aI128
aI129
aI126
aI112
aI84
aI45
aI39
aI35
aI50
aI72
aI109
aI112
aI118
aI118
aI115
aI107
aI105
aI92
aI93
aI75
aI68
aI83
aI120
aI111
aI110
aI116
aI106
aI99
aI116
aI109
aI121
aI120
aI118
aI120
aI113
aI125
aI105
aI107
aI120
aI110
aI105
aI107
aI122
aI110
aI107
aI130
aI122
aI112
aI116
aI131
aI128
aI130
aI142
aI120
aI122
aI100
asS'total kp matches'
p241
(lp242
I1018
aI441
aI315
aI250
aI146
aI121
aI149
aI141
aI146
aI159
aI156
aI145
aI138
aI109
aI58
aI51
aI48
aI55
aI85
aI135
aI127
aI129
aI142
aI132
aI121
aI116
aI98
aI99
aI81
aI80
aI92
aI133
aI136
aI134
aI139
aI132
aI129
aI138
aI132
aI145
aI137
aI138
aI145
aI132
aI155
aI128
aI130
aI137
aI127
aI123
aI124
aI128
aI122
aI125
aI143
aI145
aI126
aI140
aI156
aI159
aI152
aI158
aI144
aI147
aI121
asS'hypotenuse'
p243
(lp244
F612.800130548289
aF621.7169774101395
aF634.3406025157147
aF651.0821760730361
aF657.0783819301926
aF670.188033316024
aF683.3388617662544
aF693.8875989668644
aF710.7517147358844
aF715.0552426211558
aF733.0948096938076
aF740.2107807915256
aF740.2107807915256
aF747.3285756613352
aF757.7149859940741
aF773.6795202149273
aF779.1200164287912
aF791.403816013039
aF784.4182557794024
aF793.5767133680272
aF797.5587752636166
aF792.3736492337438
aF792.3736492337438
aF792.3736492337438
aF792.3736492337438
aF788.3653975156444
aF788.3653975156444
aF786.630790142364
aF784.6451427237665
aF775.7138647723141
aF775.7138647723141
aF775.7138647723141
aF775.7138647723141
aF764.3088381014575
aF764.3088381014575
aF764.3088381014575
aF764.3088381014575
aF764.3088381014575
aF764.3088381014575
aF764.3088381014575
aF764.3088381014575
aF764.3088381014575
aF764.3088381014575
aF764.3088381014575
aF762.5772092057302
aF762.5772092057302
aF763.5810369567856
aF763.5810369567856
aF763.5810369567856
aF763.5810369567856
aF763.5810369567856
aF763.5810369567856
aF763.5810369567856
aF763.5810369567856
aF763.5810369567856
aF763.5810369567856
aF763.5810369567856
aF763.5810369567856
aF763.5810369567856
aF763.5810369567856
aF772.5076051405579
aF772.5076051405579
aF776.9710419314223
aF778.9865210643892
aF784.1683492720169
asS'distance from center'
p245
(lp246
F29.410882339705484
aF71.30918594402827
aF101.41498903022176
aF112.37882362794157
aF170.35551062410633
aF150.08331019803634
aF152.8953890737062
aF157.71493271088823
aF147.09180806557515
aF137.3608386695422
aF64.53681120105021
aF85.44003745317531
aF137.80058055030102
aF149.27156460625713
aF114.94781424629178
aF161.01242188104618
aF156.7801007781281
aF162.3884232326923
aF105.20931517693668
aF108.90362712049586
aF148.67750334196495
aF140.07141035914503
aF182.2361105818493
aF132.9661611087573
aF160.0781059358212
aF157.61345120261785
aF137.44089638822936
aF130.38404810405297
aF146.37281168304446
aF125.0
aF119.75391434103521
aF130.17680284904833
aF141.9929575718458
aF153.05554547287727
aF132.94359706281458
aF153.8083222715858
aF164.61470165206995
aF169.2010638264429
aF151.6443206981389
aF137.18600511714013
aF170.07351351694948
aF154.80633061990713
aF137.97463535012514
aF153.7172729396407
aF180.64883060789515
aF173.80736463107655
aF165.60193235587562
aF146.38647478507022
aF156.40012787718558
aF138.59292911256333
aF150.65523555456014
aF144.46106741956464
aF144.42298985964803
aF151.9802618763371
aF137.3608386695422
aF156.6301375853319
aF136.48809471891678
aF158.52129194527782
aF157.7244432546839
aF183.43936327844142
aF160.70158679988197
aF165.41463055002117
aF193.3416664870767
aF190.06577808748213
aF169.03549923019128
assI164
(dp247
g2
(dp248
I124
(lp249
I122
aI460
aI44
aI398
asI125
(lp250
I122
aI450
aI44
aI388
asI126
(lp251
I122
aI450
aI44
aI388
asI127
(lp252
I122
aI450
aI38
aI388
asI128
(lp253
I114
aI454
aI30
aI392
asI129
(lp254
I100
aI458
aI16
aI396
asI130
(lp255
I90
aI466
aI6
aI394
asI131
(lp256
I86
aI466
aI2
aI394
asI132
(lp257
I86
aI464
aI2
aI392
asI133
(lp258
I86
aI458
aI2
aI386
asI134
(lp259
I98
aI458
aI10
aI386
asI135
(lp260
I114
aI456
aI22
aI382
asI136
(lp261
I128
aI450
aI38
aI376
asI137
(lp262
I148
aI450
aI58
aI376
asI138
(lp263
I170
aI446
aI80
aI372
asI139
(lp264
I186
aI440
aI98
aI366
asI140
(lp265
I198
aI436
aI110
aI362
asI141
(lp266
I214
aI430
aI116
aI356
asI142
(lp267
I232
aI430
aI134
aI356
asI143
(lp268
I246
aI432
aI154
aI358
asI144
(lp269
I262
aI436
aI174
aI362
asI145
(lp270
I278
aI448
aI194
aI374
asI146
(lp271
I296
aI452
aI212
aI378
asI147
(lp272
I312
aI454
aI228
aI376
asI148
(lp273
I338
aI458
aI250
aI380
asI149
(lp274
I356
aI464
aI268
aI386
asI150
(lp275
I394
aI468
aI306
aI386
asI151
(lp276
I416
aI468
aI328
aI386
asI152
(lp277
I432
aI472
aI344
aI390
asI153
(lp278
I452
aI472
aI360
aI390
asI154
(lp279
I468
aI470
aI376
aI388
asI155
(lp280
I472
aI470
aI386
aI384
asI156
(lp281
I486
aI464
aI400
aI378
asI157
(lp282
I502
aI462
aI416
aI376
asI158
(lp283
I520
aI462
aI432
aI374
asI159
(lp284
I538
aI466
aI446
aI376
asI160
(lp285
I554
aI460
aI462
aI372
asI161
(lp286
I570
aI460
aI476
aI372
asI162
(lp287
I586
aI460
aI488
aI368
asI163
(lp288
I594
aI458
aI492
aI366
asI164
(lp289
I604
aI460
aI506
aI362
asI165
(lp290
I620
aI472
aI512
aI366
asI166
(lp291
I628
aI478
aI520
aI372
asI167
(lp292
I638
aI476
aI528
aI386
asI168
(lp293
I644
aI476
aI534
aI386
asI169
(lp294
I662
aI480
aI546
aI386
asI170
(lp295
I676
aI492
aI558
aI390
asI171
(lp296
I702
aI502
aI570
aI394
asI172
(lp297
I714
aI508
aI582
aI400
asI173
(lp298
I720
aI508
aI590
aI400
asI174
(lp299
I726
aI512
aI596
aI396
asI175
(lp300
I732
aI514
aI598
aI396
asI176
(lp301
I740
aI514
aI602
aI396
asI177
(lp302
I744
aI514
aI606
aI392
asI178
(lp303
I752
aI516
aI610
aI392
asI179
(lp304
I764
aI516
aI614
aI390
asI180
(lp305
I770
aI516
aI616
aI386
asI181
(lp306
I776
aI520
aI624
aI384
asI182
(lp307
I778
aI520
aI624
aI382
asI183
(lp308
I784
aI522
aI624
aI382
asI184
(lp309
I796
aI524
aI624
aI384
asI185
(lp310
I786
aI534
aI614
aI388
asI186
(lp311
I780
aI538
aI606
aI398
asI187
(lp312
I782
aI548
aI590
aI400
asI188
(lp313
I770
aI560
aI578
aI408
asI189
(lp314
I766
aI574
aI568
aI414
asI190
(lp315
I756
aI588
aI558
aI420
asI191
(lp316
I752
aI608
aI544
aI434
asI192
(lp317
I752
aI624
aI532
aI438
asI193
(lp318
I756
aI630
aI526
aI452
asI194
(lp319
I748
aI646
aI516
aI458
asI195
(lp320
I748
aI650
aI510
aI458
asI196
(lp321
I748
aI658
aI504
aI458
asI197
(lp322
I750
aI664
aI498
aI458
asI198
(lp323
I748
aI670
aI492
aI458
asI199
(lp324
I752
aI676
aI486
aI454
asI200
(lp325
I750
aI676
aI478
aI448
asI201
(lp326
I750
aI682
aI460
aI448
asI202
(lp327
I750
aI674
aI460
aI440
asI203
(lp328
I742
aI670
aI444
aI432
asI204
(lp329
I740
aI664
aI434
aI422
asI205
(lp330
I740
aI662
aI428
aI416
asI206
(lp331
I746
aI668
aI422
aI404
asI207
(lp332
I752
aI668
aI420
aI404
asI208
(lp333
I750
aI668
aI406
aI404
asI209
(lp334
I748
aI666
aI394
aI402
asI210
(lp335
I736
aI664
aI372
aI398
asI211
(lp336
I724
aI670
aI346
aI404
asI212
(lp337
I728
aI684
aI308
aI402
asI213
(lp338
I730
aI698
aI310
aI408
asI214
(lp339
I734
aI702
aI314
aI412
asI215
(lp340
I728
aI718
aI288
aI434
asI216
(lp341
I728
aI718
aI288
aI434
asI217
(lp342
I728
aI718
aI270
aI462
asI218
(lp343
I718
aI718
aI240
aI474
asI219
(lp344
I718
aI718
aI222
aI480
asI220
(lp345
I720
aI718
aI206
aI484
asI221
(lp346
I712
aI718
aI190
aI486
asI222
(lp347
I712
aI718
aI172
aI486
asI223
(lp348
I710
aI718
aI158
aI488
asI224
(lp349
I708
aI718
aI140
aI488
asI225
(lp350
I710
aI718
aI134
aI484
asI226
(lp351
I708
aI718
aI120
aI480
asI227
(lp352
I714
aI718
aI112
aI470
asI228
(lp353
I716
aI718
aI110
aI464
asI229
(lp354
I724
aI718
aI108
aI454
asI230
(lp355
I730
aI718
aI104
aI444
asI231
(lp356
I736
aI718
aI102
aI436
asI232
(lp357
I744
aI718
aI96
aI426
asI233
(lp358
I746
aI718
aI96
aI420
asI234
(lp359
I750
aI718
aI82
aI416
asI235
(lp360
I750
aI718
aI76
aI412
asI236
(lp361
I750
aI718
aI76
aI412
asI237
(lp362
I750
aI718
aI70
aI408
asI238
(lp363
I756
aI718
aI72
aI392
asI239
(lp364
I762
aI718
aI70
aI372
asI240
(lp365
I768
aI718
aI76
aI360
asI241
(lp366
I776
aI718
aI84
aI334
asI242
(lp367
I784
aI718
aI100
aI334
asI243
(lp368
I794
aI718
aI104
aI326
asI244
(lp369
I796
aI718
aI106
aI318
asI245
(lp370
I802
aI714
aI118
aI314
asI246
(lp371
I802
aI702
aI118
aI302
asI247
(lp372
I802
aI702
aI118
aI302
asI248
(lp373
I804
aI698
aI120
aI298
asI249
(lp374
I804
aI690
aI120
aI298
asI250
(lp375
I804
aI674
aI120
aI282
asI251
(lp376
I806
aI674
aI124
aI282
asI252
(lp377
I806
aI660
aI124
aI272
asI253
(lp378
I804
aI646
aI130
aI262
asI254
(lp379
I802
aI636
aI128
aI252
asI255
(lp380
I802
aI630
aI128
aI246
asI256
(lp381
I802
aI630
aI128
aI246
asI257
(lp382
I800
aI634
aI138
aI252
asI258
(lp383
I800
aI634
aI138
aI252
asI259
(lp384
I798
aI636
aI136
aI254
asI260
(lp385
I794
aI638
aI132
aI256
asI261
(lp386
I794
aI638
aI132
aI256
asI262
(lp387
I794
aI640
aI132
aI258
asI263
(lp388
I792
aI642
aI130
aI260
asI264
(lp389
I792
aI642
aI130
aI260
asI265
(lp390
I792
aI642
aI130
aI260
asI266
(lp391
I790
aI646
aI128
aI264
asI267
(lp392
I790
aI646
aI128
aI264
asI268
(lp393
I786
aI648
aI126
aI266
asI269
(lp394
I786
aI648
aI126
aI266
asI270
(lp395
I786
aI652
aI126
aI268
asI271
(lp396
I786
aI652
aI126
aI268
asI272
(lp397
I786
aI652
aI126
aI268
asI273
(lp398
I786
aI652
aI126
aI268
asI274
(lp399
I786
aI652
aI126
aI268
asI275
(lp400
I786
aI652
aI126
aI268
asI276
(lp401
I786
aI652
aI126
aI268
asI277
(lp402
I786
aI652
aI126
aI268
asI278
(lp403
I786
aI652
aI126
aI268
asI279
(lp404
I786
aI648
aI126
aI264
asI280
(lp405
I786
aI648
aI126
aI264
asI281
(lp406
I792
aI648
aI132
aI264
asI282
(lp407
I792
aI648
aI132
aI264
asI283
(lp408
I792
aI648
aI132
aI264
asI284
(lp409
I800
aI652
aI132
aI264
asI285
(lp410
I800
aI654
aI132
aI266
asI286
(lp411
I804
aI656
aI132
aI266
asI287
(lp412
I804
aI662
aI132
aI268
asI288
(lp413
I810
aI666
aI132
aI272
assg169
F79.66101694915254
sg170
(lp414
I00
aI00
aI00
aI00
aI00
aI00
aI00
aI00
aI00
aI00
aI00
aI00
aI00
aI00
aI00
aI00
aI00
aI00
aI00
aI00
aI00
aI00
aI00
aI00
aI00
aI00
aI00
aI00
aI00
aI00
aI00
aI00
aI00
aI00
aI00
aI00
aI00
aI00
aI00
aI00
aI00
aI00
aI00
aI00
aI00
aI00
aI00
aI00
aI00
aI00
aI00
aI00
aI00
aI00
aI00
aI00
aI00
aI00
aI00
aI00
aI00
aI00
aI00
aI00
aI00
aI00
aI00
aI00
aI00
aI00
aI00
aI00
aI00
aI00
aI00
aI00
aI00
aI00
aI00
aI00
aI00
aI00
aI00
aI00
aI00
asg172
(lp415
S'00164'
p416
aS'00165'
p417
aS'00166'
p418
aS'00167'
p419
aS'00168'
p420
aS'00169'
p421
aS'00170'
p422
aS'00171'
p423
aS'00172'
p424
aS'00173'
p425
aS'00174'
p426
aS'00175'
p427
aS'00176'
p428
aS'00177'
p429
aS'00178'
p430
aS'00179'
p431
aS'00180'
p432
aS'00181'
p433
aS'00182'
p434
aS'00183'
p435
aS'00184'
p436
aS'00185'
p437
aS'00186'
p438
aS'00187'
p439
aS'00188'
p440
aS'00189'
p441
aS'00190'
p442
aS'00191'
p443
aS'00192'
p444
aS'00193'
p445
aS'00194'
p446
aS'00196'
p447
aS'00197'
p448
aS'00198'
p449
aS'00199'
p450
aS'00200'
p451
aS'00201'
p452
aS'00202'
p453
aS'00203'
p454
aS'00204'
p455
aS'00205'
p456
aS'00206'
p457
aS'00207'
p458
aS'00208'
p459
aS'00209'
p460
aS'00210'
p461
aS'00211'
p462
aS'00212'
p463
aS'00213'
p464
aS'00214'
p465
aS'00215'
p466
aS'00217'
p467
aS'00218'
p468
aS'00219'
p469
aS'00220'
p470
aS'00222'
p471
aS'00223'
p472
aS'00224'
p473
aS'00226'
p474
aS'00229'
p475
aS'00230'
p476
aS'00233'
p477
aS'00234'
p478
aS'00238'
p479
aS'00240'
p480
aS'00243'
p481
aS'00245'
p482
aS'00247'
p483
aS'00248'
p484
aS'00251'
p485
aS'00252'
p486
aS'00253'
p487
aS'00254'
p488
aS'00255'
p489
aS'00256'
p490
aS'00266'
p491
aS'00267'
p492
aS'00277'
p493
aS'00279'
p494
aS'00281'
p495
aS'00282'
p496
aS'00285'
p497
aS'00286'
p498
aS'00287'
p499
aS'00288'
p500
asg239
(lp501
I117
aI16
aI19
aI11
aI48
aI33
aI16
aI10
aI22
aI31
aI17
aI15
aI11
aI13
aI14
aI13
aI18
aI14
aI9
aI4
aI9
aI6
aI6
aI7
aI5
aI8
aI5
aI5
aI6
aI4
aI5
aI2
aI2
aI1
aI2
aI3
aI4
aI3
aI4
aI5
aI3
aI5
aI4
aI5
aI5
aI4
aI2
aI4
aI1
aI1
aI2
aI4
aI4
aI4
aI2
aI1
aI2
aI2
aI0
aI0
aI1
aI0
aI0
aI1
aI0
aI0
aI0
aI0
aI1
aI2
aI1
aI0
aI1
aI0
aI0
aI0
aI0
aI1
aI0
aI1
aI0
aI1
aI1
aI1
aI1
asg241
(lp502
I117
aI18
aI20
aI17
aI54
aI36
aI23
aI15
aI27
aI34
aI23
aI21
aI14
aI16
aI21
aI19
aI22
aI16
aI10
aI8
aI10
aI9
aI7
aI10
aI7
aI12
aI9
aI7
aI7
aI5
aI5
aI2
aI3
aI3
aI4
aI4
aI5
aI3
aI6
aI6
aI5
aI6
aI6
aI9
aI6
aI5
aI3
aI4
aI2
aI1
aI5
aI6
aI5
aI5
aI3
aI2
aI2
aI2
aI1
aI2
aI1
aI1
aI1
aI1
aI1
aI1
aI3
aI1
aI1
aI3
aI1
aI1
aI2
aI1
aI1
aI1
aI1
aI1
aI1
aI1
aI1
aI1
aI2
aI2
aI1
asg243
(lp503
F138.59292911256333
aF151.32745950421557
aF151.32745950421557
aF142.12670403551894
aF142.12670403551894
aF149.30505684671232
aF155.97435686676192
aF170.55204484262273
aF170.55204484262273
aF169.00887550658396
aF174.22973339817747
aF178.54971296532514
aF181.57092278225608
aF184.19554826325202
aF188.52055590836773
aF195.8979326077741
aF201.5341162185698
aF203.9607805437114
aF206.7849124090053
aF212.60291625469299
aF221.7746604100658
aF225.61028345356956
aF223.32935319836486
aF242.42112119202815
aF244.88364584022347
aF254.566297847928
aF259.6690201005888
aF271.1825953117198
aF288.0902636327719
aF290.83328557783756
aF298.61011369342464
aF315.49326458737596
aF325.48425461149424
aF332.38531856867564
aF346.4678917302439
aF354.91970923012997
aF372.63386856269517
aF372.63386856269517
aF381.37645443839347
aF390.1281840626232
aF397.3159951474393
aF417.93779441443195
aF424.16977732978575
aF433.62656745176486
aF441.6016304317728
aF450.8347812669293
aF462.21207253813697
aF505.8893159575521
aF510.3920062069938
aF510.3920062069938
aF523.6945674723006
aF524.6903848937962
aF536.674948176268
aF550.1454353168806
aF564.7583554052122
aF587.7278281653847
aF598.0
aF612.800130548289
aF634.3406025157147
aF670.188033316024
aF683.3388617662544
aF715.0552426211558
aF733.0948096938076
aF757.7149859940741
aF779.1200164287912
aF793.5767133680272
aF792.3736492337438
aF792.3736492337438
aF792.3736492337438
aF786.630790142364
aF784.6451427237665
aF775.7138647723141
aF775.7138647723141
aF775.7138647723141
aF775.7138647723141
aF764.3088381014575
aF764.3088381014575
aF763.5810369567856
aF763.5810369567856
aF763.5810369567856
aF763.5810369567856
aF772.5076051405579
aF776.9710419314223
aF778.9865210643892
aF784.1683492720169
asg245
(lp504
F4.123105625617661
aF22.0
aF14.317821063276353
aF20.8806130178211
aF2.0
aF5.0
aF20.024984394500787
aF28.42534080710379
aF13.892443989449804
aF11.704699910719626
aF14.866068747318506
aF20.223748416156685
aF33.54101966249684
aF20.591260281974
aF28.160255680657446
aF33.97057550292606
aF33.24154027718932
aF27.294688127912362
aF22.825424421026653
aF22.47220505424423
aF37.12142238654117
aF38.91015291668744
aF7.211102550927978
aF37.107950630558946
aF14.7648230602334
aF61.07372593840988
aF76.8505042273634
aF33.24154027718932
aF42.42640687119285
aF70.83078426785913
aF72.91776189653656
aF80.02499609497022
aF69.46221994724903
aF377.18032822510776
aF337.2195130771646
aF118.72657663724664
aF89.64373932405988
aF128.4445405612866
aF106.6255128944288
aF104.92378186092989
aF147.75655653811103
aF111.89280584559492
aF55.90169943749474
aF152.50245899656832
aF85.42833253669417
aF155.24174696260025
aF14.560219778561036
aF63.655321851358195
aF200.9975124224178
aF171.84004189943624
aF530.6938853991065
aF167.14065932620943
aF130.14222988715076
aF162.49615380063616
aF214.21951358361358
aF609.6498995325104
aF100.12492197250393
aF53.31041174104736
aF407.06387705125593
aF135.95955280891445
aF303.99506574942956
aF695.1007121273866
aF804.2512045374878
aF141.8767070381886
aF375.0333318519835
aF661.8912297349165
aF479.8854029870048
aF668.6179776224985
aF137.53544997563355
aF122.80065146407001
aF157.99050604387594
aF528.5451730930857
aF226.45970944077447
aF659.6741619921156
aF641.0686390707316
aF631.3232135760572
aF630.600507453015
aF149.96666296213968
aF406.9889433387595
aF301.3171087077533
aF491.0570231653346
aF306.5566831762113
aF391.637587573001
aF447.5712233823797
aF276.9566753122228
assI264
(dp505
g2
(dp506
I124
(lp507
I122
aI460
aI44
aI398
asI125
(lp508
I122
aI450
aI44
aI388
asI126
(lp509
I122
aI450
aI44
aI388
asI127
(lp510
I122
aI450
aI38
aI388
asI128
(lp511
I114
aI454
aI30
aI392
asI129
(lp512
I100
aI458
aI16
aI396
asI130
(lp513
I90
aI466
aI6
aI394
asI131
(lp514
I86
aI466
aI2
aI394
asI132
(lp515
I86
aI464
aI2
aI392
asI133
(lp516
I86
aI458
aI2
aI386
asI134
(lp517
I98
aI458
aI10
aI386
asI135
(lp518
I114
aI456
aI22
aI382
asI136
(lp519
I128
aI450
aI38
aI376
asI137
(lp520
I148
aI450
aI58
aI376
asI138
(lp521
I170
aI446
aI80
aI372
asI139
(lp522
I186
aI440
aI98
aI366
asI140
(lp523
I198
aI436
aI110
aI362
asI141
(lp524
I214
aI430
aI116
aI356
asI142
(lp525
I232
aI430
aI134
aI356
asI143
(lp526
I246
aI432
aI154
aI358
asI144
(lp527
I262
aI436
aI174
aI362
asI145
(lp528
I278
aI448
aI194
aI374
asI146
(lp529
I296
aI452
aI212
aI378
asI147
(lp530
I312
aI454
aI228
aI376
asI148
(lp531
I338
aI458
aI250
aI380
asI149
(lp532
I356
aI464
aI268
aI386
asI150
(lp533
I394
aI468
aI306
aI386
asI151
(lp534
I416
aI468
aI328
aI386
asI152
(lp535
I432
aI472
aI344
aI390
asI153
(lp536
I452
aI472
aI360
aI390
asI154
(lp537
I468
aI470
aI376
aI388
asI155
(lp538
I472
aI470
aI386
aI384
asI156
(lp539
I486
aI464
aI400
aI378
asI157
(lp540
I502
aI462
aI416
aI376
asI158
(lp541
I520
aI462
aI432
aI374
asI159
(lp542
I538
aI466
aI446
aI376
asI160
(lp543
I554
aI460
aI462
aI372
asI161
(lp544
I570
aI460
aI476
aI372
asI162
(lp545
I586
aI460
aI488
aI368
asI163
(lp546
I594
aI458
aI492
aI366
asI164
(lp547
I604
aI460
aI506
aI362
asI165
(lp548
I620
aI472
aI512
aI366
asI166
(lp549
I628
aI478
aI520
aI372
asI167
(lp550
I638
aI476
aI528
aI386
asI168
(lp551
I644
aI476
aI534
aI386
asI169
(lp552
I662
aI480
aI546
aI386
asI170
(lp553
I676
aI492
aI558
aI390
asI171
(lp554
I702
aI502
aI570
aI394
asI172
(lp555
I714
aI508
aI582
aI400
asI173
(lp556
I720
aI508
aI590
aI400
asI174
(lp557
I726
aI512
aI596
aI396
asI175
(lp558
I732
aI514
aI598
aI396
asI176
(lp559
I740
aI514
aI602
aI396
asI177
(lp560
I744
aI514
aI606
aI392
asI178
(lp561
I752
aI516
aI610
aI392
asI179
(lp562
I764
aI516
aI614
aI390
asI180
(lp563
I770
aI516
aI616
aI386
asI181
(lp564
I776
aI520
aI624
aI384
asI182
(lp565
I778
aI520
aI624
aI382
asI183
(lp566
I784
aI522
aI624
aI382
asI184
(lp567
I796
aI524
aI624
aI384
asI185
(lp568
I786
aI534
aI614
aI388
asI186
(lp569
I780
aI538
aI606
aI398
asI187
(lp570
I782
aI548
aI590
aI400
asI188
(lp571
I770
aI560
aI578
aI408
asI189
(lp572
I766
aI574
aI568
aI414
asI190
(lp573
I756
aI588
aI558
aI420
asI191
(lp574
I752
aI608
aI544
aI434
asI192
(lp575
I752
aI624
aI532
aI438
asI193
(lp576
I756
aI630
aI526
aI452
asI194
(lp577
I748
aI646
aI516
aI458
asI195
(lp578
I748
aI650
aI510
aI458
asI196
(lp579
I748
aI658
aI504
aI458
asI197
(lp580
I750
aI664
aI498
aI458
asI198
(lp581
I748
aI670
aI492
aI458
asI199
(lp582
I752
aI676
aI486
aI454
asI200
(lp583
I750
aI676
aI478
aI448
asI201
(lp584
I750
aI682
aI460
aI448
asI202
(lp585
I750
aI674
aI460
aI440
asI203
(lp586
I742
aI670
aI444
aI432
asI204
(lp587
I740
aI664
aI434
aI422
asI205
(lp588
I740
aI662
aI428
aI416
asI206
(lp589
I746
aI668
aI422
aI404
asI207
(lp590
I752
aI668
aI420
aI404
asI208
(lp591
I750
aI668
aI406
aI404
asI209
(lp592
I748
aI666
aI394
aI402
asI210
(lp593
I736
aI664
aI372
aI398
asI211
(lp594
I724
aI670
aI346
aI404
asI212
(lp595
I728
aI684
aI308
aI402
asI213
(lp596
I730
aI698
aI310
aI408
asI214
(lp597
I734
aI702
aI314
aI412
asI215
(lp598
I728
aI718
aI288
aI434
asI216
(lp599
I728
aI718
aI288
aI434
asI217
(lp600
I728
aI718
aI270
aI462
asI218
(lp601
I718
aI718
aI240
aI474
asI219
(lp602
I718
aI718
aI222
aI480
asI220
(lp603
I720
aI718
aI206
aI484
asI221
(lp604
I712
aI718
aI190
aI486
asI222
(lp605
I712
aI718
aI172
aI486
asI223
(lp606
I710
aI718
aI158
aI488
asI224
(lp607
I708
aI718
aI140
aI488
asI225
(lp608
I710
aI718
aI134
aI484
asI226
(lp609
I708
aI718
aI120
aI480
asI227
(lp610
I714
aI718
aI112
aI470
asI228
(lp611
I716
aI718
aI110
aI464
asI229
(lp612
I724
aI718
aI108
aI454
asI230
(lp613
I730
aI718
aI104
aI444
asI231
(lp614
I736
aI718
aI102
aI436
asI232
(lp615
I744
aI718
aI96
aI426
asI233
(lp616
I746
aI718
aI96
aI420
asI234
(lp617
I750
aI718
aI82
aI416
asI235
(lp618
I750
aI718
aI76
aI412
asI236
(lp619
I750
aI718
aI76
aI412
asI237
(lp620
I750
aI718
aI70
aI408
asI238
(lp621
I756
aI718
aI72
aI392
asI239
(lp622
I762
aI718
aI70
aI372
asI240
(lp623
I768
aI718
aI76
aI360
asI241
(lp624
I776
aI718
aI84
aI334
asI242
(lp625
I784
aI718
aI100
aI334
asI243
(lp626
I794
aI718
aI104
aI326
asI244
(lp627
I796
aI718
aI106
aI318
asI245
(lp628
I802
aI714
aI118
aI314
asI246
(lp629
I802
aI702
aI118
aI302
asI247
(lp630
I802
aI702
aI118
aI302
asI248
(lp631
I804
aI698
aI120
aI298
asI249
(lp632
I804
aI690
aI120
aI298
asI250
(lp633
I804
aI674
aI120
aI282
asI251
(lp634
I806
aI674
aI124
aI282
asI252
(lp635
I806
aI660
aI124
aI272
asI253
(lp636
I804
aI646
aI130
aI262
asI254
(lp637
I802
aI636
aI128
aI252
asI255
(lp638
I802
aI630
aI128
aI246
asI256
(lp639
I802
aI630
aI128
aI246
asI257
(lp640
I800
aI634
aI138
aI252
asI258
(lp641
I800
aI634
aI138
aI252
asI259
(lp642
I798
aI636
aI136
aI254
asI260
(lp643
I794
aI638
aI132
aI256
asI261
(lp644
I794
aI638
aI132
aI256
asI262
(lp645
I794
aI640
aI132
aI258
asI263
(lp646
I792
aI642
aI130
aI260
asI264
(lp647
I792
aI642
aI130
aI260
asI265
(lp648
I792
aI642
aI130
aI260
asI266
(lp649
I790
aI646
aI128
aI264
asI267
(lp650
I790
aI646
aI128
aI264
asI268
(lp651
I786
aI648
aI126
aI266
asI269
(lp652
I786
aI648
aI126
aI266
asI270
(lp653
I786
aI652
aI126
aI268
asI271
(lp654
I786
aI652
aI126
aI268
asI272
(lp655
I786
aI652
aI126
aI268
asI273
(lp656
I786
aI652
aI126
aI268
asI274
(lp657
I786
aI652
aI126
aI268
asI275
(lp658
I786
aI652
aI126
aI268
asI276
(lp659
I786
aI652
aI126
aI268
asI277
(lp660
I786
aI652
aI126
aI268
asI278
(lp661
I786
aI652
aI126
aI268
asI279
(lp662
I786
aI648
aI126
aI264
asI280
(lp663
I786
aI648
aI126
aI264
asI281
(lp664
I792
aI648
aI132
aI264
asI282
(lp665
I792
aI648
aI132
aI264
asI283
(lp666
I792
aI648
aI132
aI264
asI284
(lp667
I800
aI652
aI132
aI264
asI285
(lp668
I800
aI654
aI132
aI266
asI286
(lp669
I804
aI656
aI132
aI266
asI287
(lp670
I804
aI662
aI132
aI268
asI288
(lp671
I810
aI666
aI132
aI272
assg169
F97.89346777729067
sg170
(lp672
I00
aI00
aI00
aI00
aI00
aI00
aI00
aI00
aI00
aI00
aI00
aI00
aI00
aI00
aI00
aI00
aI00
aI00
aI00
aI00
aI00
aI00
aI00
aI00
aI00
asg172
(lp673
S'00264'
p674
aS'00265'
p675
aS'00266'
p676
aS'00267'
p677
aS'00268'
p678
aS'00269'
p679
aS'00270'
p680
aS'00271'
p681
aS'00272'
p682
aS'00273'
p683
aS'00274'
p684
aS'00275'
p685
aS'00276'
p686
aS'00277'
p687
aS'00278'
p688
aS'00279'
p689
aS'00280'
p690
aS'00281'
p691
aS'00282'
p692
aS'00283'
p693
aS'00284'
p694
aS'00285'
p695
aS'00286'
p696
aS'00287'
p697
aS'00288'
p698
asg239
(lp699
I2823
aI2063
aI1952
aI1878
aI1874
aI1853
aI1821
aI1798
aI1800
aI1785
aI1767
aI1797
aI1762
aI1784
aI1760
aI1784
aI1703
aI1681
aI1662
aI1612
aI1575
aI1606
aI1548
aI1494
aI1477
asg241
(lp700
I2823
aI2095
aI1993
aI1916
aI1926
aI1900
aI1868
aI1838
aI1844
aI1828
aI1810
aI1838
aI1800
aI1822
aI1806
aI1829
aI1738
aI1725
aI1706
aI1642
aI1598
aI1640
aI1576
aI1539
aI1520
asg243
(lp701
F764.3088381014575
aF764.3088381014575
aF764.3088381014575
aF764.3088381014575
aF762.5772092057302
aF762.5772092057302
aF763.5810369567856
aF763.5810369567856
aF763.5810369567856
aF763.5810369567856
aF763.5810369567856
aF763.5810369567856
aF763.5810369567856
aF763.5810369567856
aF763.5810369567856
aF763.5810369567856
aF763.5810369567856
aF763.5810369567856
aF763.5810369567856
aF763.5810369567856
aF772.5076051405579
aF772.5076051405579
aF776.9710419314223
aF778.9865210643892
aF784.1683492720169
asg245
(lp702
F44.94441010848846
aF37.589892258425
aF35.35533905932738
aF29.206163733020468
aF30.0
aF30.0
aF35.4682957019364
aF46.51881339845203
aF42.941821107167776
aF36.40054944640259
aF36.359317925395686
aF41.182520563948
aF35.34119409414458
aF40.496913462633174
aF40.496913462633174
aF47.885279575251516
aF47.50789408087881
aF48.54894437575342
aF52.15361924162119
aF51.03920062069938
aF51.61395160225576
aF51.31276644267
aF55.072679252057455
aF55.44366510251645
aF58.83026432033091
assI284
(dp703
g2
(dp704
I124
(lp705
I122
aI460
aI44
aI398
asI125
(lp706
I122
aI450
aI44
aI388
asI126
(lp707
I122
aI450
aI44
aI388
asI127
(lp708
I122
aI450
aI38
aI388
asI128
(lp709
I114
aI454
aI30
aI392
asI129
(lp710
I100
aI458
aI16
aI396
asI130
(lp711
I90
aI466
aI6
aI394
asI131
(lp712
I86
aI466
aI2
aI394
asI132
(lp713
I86
aI464
aI2
aI392
asI133
(lp714
I86
aI458
aI2
aI386
asI134
(lp715
I98
aI458
aI10
aI386
asI135
(lp716
I114
aI456
aI22
aI382
asI136
(lp717
I128
aI450
aI38
aI376
asI137
(lp718
I148
aI450
aI58
aI376
asI138
(lp719
I170
aI446
aI80
aI372
asI139
(lp720
I186
aI440
aI98
aI366
asI140
(lp721
I198
aI436
aI110
aI362
asI141
(lp722
I214
aI430
aI116
aI356
asI142
(lp723
I232
aI430
aI134
aI356
asI143
(lp724
I246
aI432
aI154
aI358
asI144
(lp725
I262
aI436
aI174
aI362
asI145
(lp726
I278
aI448
aI194
aI374
asI146
(lp727
I296
aI452
aI212
aI378
asI147
(lp728
I312
aI454
aI228
aI376
asI148
(lp729
I338
aI458
aI250
aI380
asI149
(lp730
I356
aI464
aI268
aI386
asI150
(lp731
I394
aI468
aI306
aI386
asI151
(lp732
I416
aI468
aI328
aI386
asI152
(lp733
I432
aI472
aI344
aI390
asI153
(lp734
I452
aI472
aI360
aI390
asI154
(lp735
I468
aI470
aI376
aI388
asI155
(lp736
I472
aI470
aI386
aI384
asI156
(lp737
I486
aI464
aI400
aI378
asI157
(lp738
I502
aI462
aI416
aI376
asI158
(lp739
I520
aI462
aI432
aI374
asI159
(lp740
I538
aI466
aI446
aI376
asI160
(lp741
I554
aI460
aI462
aI372
asI161
(lp742
I570
aI460
aI476
aI372
asI162
(lp743
I586
aI460
aI488
aI368
asI163
(lp744
I594
aI458
aI492
aI366
asI164
(lp745
I604
aI460
aI506
aI362
asI165
(lp746
I620
aI472
aI512
aI366
asI166
(lp747
I628
aI478
aI520
aI372
asI167
(lp748
I638
aI476
aI528
aI386
asI168
(lp749
I644
aI476
aI534
aI386
asI169
(lp750
I662
aI480
aI546
aI386
asI170
(lp751
I676
aI492
aI558
aI390
asI171
(lp752
I702
aI502
aI570
aI394
asI172
(lp753
I714
aI508
aI582
aI400
asI173
(lp754
I720
aI508
aI590
aI400
asI174
(lp755
I726
aI512
aI596
aI396
asI175
(lp756
I732
aI514
aI598
aI396
asI176
(lp757
I740
aI514
aI602
aI396
asI177
(lp758
I744
aI514
aI606
aI392
asI178
(lp759
I752
aI516
aI610
aI392
asI179
(lp760
I764
aI516
aI614
aI390
asI180
(lp761
I770
aI516
aI616
aI386
asI181
(lp762
I776
aI520
aI624
aI384
asI182
(lp763
I778
aI520
aI624
aI382
asI183
(lp764
I784
aI522
aI624
aI382
asI184
(lp765
I796
aI524
aI624
aI384
asI185
(lp766
I786
aI534
aI614
aI388
asI186
(lp767
I780
aI538
aI606
aI398
asI187
(lp768
I782
aI548
aI590
aI400
asI188
(lp769
I770
aI560
aI578
aI408
asI189
(lp770
I766
aI574
aI568
aI414
asI190
(lp771
I756
aI588
aI558
aI420
asI191
(lp772
I752
aI608
aI544
aI434
asI192
(lp773
I752
aI624
aI532
aI438
asI193
(lp774
I756
aI630
aI526
aI452
asI194
(lp775
I748
aI646
aI516
aI458
asI195
(lp776
I748
aI650
aI510
aI458
asI196
(lp777
I748
aI658
aI504
aI458
asI197
(lp778
I750
aI664
aI498
aI458
asI198
(lp779
I748
aI670
aI492
aI458
asI199
(lp780
I752
aI676
aI486
aI454
asI200
(lp781
I750
aI676
aI478
aI448
asI201
(lp782
I750
aI682
aI460
aI448
asI202
(lp783
I750
aI674
aI460
aI440
asI203
(lp784
I742
aI670
aI444
aI432
asI204
(lp785
I740
aI664
aI434
aI422
asI205
(lp786
I740
aI662
aI428
aI416
asI206
(lp787
I746
aI668
aI422
aI404
asI207
(lp788
I752
aI668
aI420
aI404
asI208
(lp789
I750
aI668
aI406
aI404
asI209
(lp790
I748
aI666
aI394
aI402
asI210
(lp791
I736
aI664
aI372
aI398
asI211
(lp792
I724
aI670
aI346
aI404
asI212
(lp793
I728
aI684
aI308
aI402
asI213
(lp794
I730
aI698
aI310
aI408
asI214
(lp795
I734
aI702
aI314
aI412
asI215
(lp796
I728
aI718
aI288
aI434
asI216
(lp797
I728
aI718
aI288
aI434
asI217
(lp798
I728
aI718
aI270
aI462
asI218
(lp799
I718
aI718
aI240
aI474
asI219
(lp800
I718
aI718
aI222
aI480
asI220
(lp801
I720
aI718
aI206
aI484
asI221
(lp802
I712
aI718
aI190
aI486
asI222
(lp803
I712
aI718
aI172
aI486
asI223
(lp804
I710
aI718
aI158
aI488
asI224
(lp805
I708
aI718
aI140
aI488
asI225
(lp806
I710
aI718
aI134
aI484
asI226
(lp807
I708
aI718
aI120
aI480
asI227
(lp808
I714
aI718
aI112
aI470
asI228
(lp809
I716
aI718
aI110
aI464
asI229
(lp810
I724
aI718
aI108
aI454
asI230
(lp811
I730
aI718
aI104
aI444
asI231
(lp812
I736
aI718
aI102
aI436
asI232
(lp813
I744
aI718
aI96
aI426
asI233
(lp814
I746
aI718
aI96
aI420
asI234
(lp815
I750
aI718
aI82
aI416
asI235
(lp816
I750
aI718
aI76
aI412
asI236
(lp817
I750
aI718
aI76
aI412
asI237
(lp818
I750
aI718
aI70
aI408
asI238
(lp819
I756
aI718
aI72
aI392
asI239
(lp820
I762
aI718
aI70
aI372
asI240
(lp821
I768
aI718
aI76
aI360
asI241
(lp822
I776
aI718
aI84
aI334
asI242
(lp823
I784
aI718
aI100
aI334
asI243
(lp824
I794
aI718
aI104
aI326
asI244
(lp825
I796
aI718
aI106
aI318
asI245
(lp826
I802
aI714
aI118
aI314
asI246
(lp827
I802
aI702
aI118
aI302
asI247
(lp828
I802
aI702
aI118
aI302
asI248
(lp829
I804
aI698
aI120
aI298
asI249
(lp830
I804
aI690
aI120
aI298
asI250
(lp831
I804
aI674
aI120
aI282
asI251
(lp832
I806
aI674
aI124
aI282
asI252
(lp833
I806
aI660
aI124
aI272
asI253
(lp834
I804
aI646
aI130
aI262
asI254
(lp835
I802
aI636
aI128
aI252
asI255
(lp836
I802
aI630
aI128
aI246
asI256
(lp837
I802
aI630
aI128
aI246
asI257
(lp838
I800
aI634
aI138
aI252
asI258
(lp839
I800
aI634
aI138
aI252
asI259
(lp840
I798
aI636
aI136
aI254
asI260
(lp841
I794
aI638
aI132
aI256
asI261
(lp842
I794
aI638
aI132
aI256
asI262
(lp843
I794
aI640
aI132
aI258
asI263
(lp844
I792
aI642
aI130
aI260
asI264
(lp845
I792
aI642
aI130
aI260
asI265
(lp846
I792
aI642
aI130
aI260
asI266
(lp847
I790
aI646
aI128
aI264
asI267
(lp848
I790
aI646
aI128
aI264
asI268
(lp849
I786
aI648
aI126
aI266
asI269
(lp850
I786
aI648
aI126
aI266
asI270
(lp851
I786
aI652
aI126
aI268
asI271
(lp852
I786
aI652
aI126
aI268
asI272
(lp853
I786
aI652
aI126
aI268
asI273
(lp854
I786
aI652
aI126
aI268
asI274
(lp855
I786
aI652
aI126
aI268
asI275
(lp856
I786
aI652
aI126
aI268
asI276
(lp857
I786
aI652
aI126
aI268
asI277
(lp858
I786
aI652
aI126
aI268
asI278
(lp859
I786
aI652
aI126
aI268
asI279
(lp860
I786
aI648
aI126
aI264
asI280
(lp861
I786
aI648
aI126
aI264
asI281
(lp862
I792
aI648
aI132
aI264
asI282
(lp863
I792
aI648
aI132
aI264
asI283
(lp864
I792
aI648
aI132
aI264
asI284
(lp865
I800
aI652
aI132
aI264
asI285
(lp866
I800
aI654
aI132
aI266
asI286
(lp867
I804
aI656
aI132
aI266
asI287
(lp868
I804
aI662
aI132
aI268
asI288
(lp869
I810
aI666
aI132
aI272
assg169
F98.78333164351616
sg170
(lp870
I00
aI00
aI00
aI00
aI00
asg172
(lp871
S'00284'
p872
aS'00285'
p873
aS'00286'
p874
aS'00287'
p875
aS'00288'
p876
asg239
(lp877
I2675
aI1914
aI1769
aI1716
aI1669
asg241
(lp878
I2675
aI1938
aI1791
aI1753
aI1706
asg243
(lp879
F772.5076051405579
aF772.5076051405579
aF776.9710419314223
aF778.9865210643892
aF784.1683492720169
asg245
(lp880
F52.392747589718944
aF48.76474136094644
aF44.10215414239989
aF40.607881008493905
aF49.09175083453431
assI204
(dp881
g2
(dp882
I124
(lp883
I122
aI460
aI44
aI398
asI125
(lp884
I122
aI450
aI44
aI388
asI126
(lp885
I122
aI450
aI44
aI388
asI127
(lp886
I122
aI450
aI38
aI388
asI128
(lp887
I114
aI454
aI30
aI392
asI129
(lp888
I100
aI458
aI16
aI396
asI130
(lp889
I90
aI466
aI6
aI394
asI131
(lp890
I86
aI466
aI2
aI394
asI132
(lp891
I86
aI464
aI2
aI392
asI133
(lp892
I86
aI458
aI2
aI386
asI134
(lp893
I98
aI458
aI10
aI386
asI135
(lp894
I114
aI456
aI22
aI382
asI136
(lp895
I128
aI450
aI38
aI376
asI137
(lp896
I148
aI450
aI58
aI376
asI138
(lp897
I170
aI446
aI80
aI372
asI139
(lp898
I186
aI440
aI98
aI366
asI140
(lp899
I198
aI436
aI110
aI362
asI141
(lp900
I214
aI430
aI116
aI356
asI142
(lp901
I232
aI430
aI134
aI356
asI143
(lp902
I246
aI432
aI154
aI358
asI144
(lp903
I262
aI436
aI174
aI362
asI145
(lp904
I278
aI448
aI194
aI374
asI146
(lp905
I296
aI452
aI212
aI378
asI147
(lp906
I312
aI454
aI228
aI376
asI148
(lp907
I338
aI458
aI250
aI380
asI149
(lp908
I356
aI464
aI268
aI386
asI150
(lp909
I394
aI468
aI306
aI386
asI151
(lp910
I416
aI468
aI328
aI386
asI152
(lp911
I432
aI472
aI344
aI390
asI153
(lp912
I452
aI472
aI360
aI390
asI154
(lp913
I468
aI470
aI376
aI388
asI155
(lp914
I472
aI470
aI386
aI384
asI156
(lp915
I486
aI464
aI400
aI378
asI157
(lp916
I502
aI462
aI416
aI376
asI158
(lp917
I520
aI462
aI432
aI374
asI159
(lp918
I538
aI466
aI446
aI376
asI160
(lp919
I554
aI460
aI462
aI372
asI161
(lp920
I570
aI460
aI476
aI372
asI162
(lp921
I586
aI460
aI488
aI368
asI163
(lp922
I594
aI458
aI492
aI366
asI164
(lp923
I604
aI460
aI506
aI362
asI165
(lp924
I620
aI472
aI512
aI366
asI166
(lp925
I628
aI478
aI520
aI372
asI167
(lp926
I638
aI476
aI528
aI386
asI168
(lp927
I644
aI476
aI534
aI386
asI169
(lp928
I662
aI480
aI546
aI386
asI170
(lp929
I676
aI492
aI558
aI390
asI171
(lp930
I702
aI502
aI570
aI394
asI172
(lp931
I714
aI508
aI582
aI400
asI173
(lp932
I720
aI508
aI590
aI400
asI174
(lp933
I726
aI512
aI596
aI396
asI175
(lp934
I732
aI514
aI598
aI396
asI176
(lp935
I740
aI514
aI602
aI396
asI177
(lp936
I744
aI514
aI606
aI392
asI178
(lp937
I752
aI516
aI610
aI392
asI179
(lp938
I764
aI516
aI614
aI390
asI180
(lp939
I770
aI516
aI616
aI386
asI181
(lp940
I776
aI520
aI624
aI384
asI182
(lp941
I778
aI520
aI624
aI382
asI183
(lp942
I784
aI522
aI624
aI382
asI184
(lp943
I796
aI524
aI624
aI384
asI185
(lp944
I786
aI534
aI614
aI388
asI186
(lp945
I780
aI538
aI606
aI398
asI187
(lp946
I782
aI548
aI590
aI400
asI188
(lp947
I770
aI560
aI578
aI408
asI189
(lp948
I766
aI574
aI568
aI414
asI190
(lp949
I756
aI588
aI558
aI420
asI191
(lp950
I752
aI608
aI544
aI434
asI192
(lp951
I752
aI624
aI532
aI438
asI193
(lp952
I756
aI630
aI526
aI452
asI194
(lp953
I748
aI646
aI516
aI458
asI195
(lp954
I748
aI650
aI510
aI458
asI196
(lp955
I748
aI658
aI504
aI458
asI197
(lp956
I750
aI664
aI498
aI458
asI198
(lp957
I748
aI670
aI492
aI458
asI199
(lp958
I752
aI676
aI486
aI454
asI200
(lp959
I750
aI676
aI478
aI448
asI201
(lp960
I750
aI682
aI460
aI448
asI202
(lp961
I750
aI674
aI460
aI440
asI203
(lp962
I742
aI670
aI444
aI432
asI204
(lp963
I740
aI664
aI434
aI422
asI205
(lp964
I740
aI662
aI428
aI416
asI206
(lp965
I746
aI668
aI422
aI404
asI207
(lp966
I752
aI668
aI420
aI404
asI208
(lp967
I750
aI668
aI406
aI404
asI209
(lp968
I748
aI666
aI394
aI402
asI210
(lp969
I736
aI664
aI372
aI398
asI211
(lp970
I724
aI670
aI346
aI404
asI212
(lp971
I728
aI684
aI308
aI402
asI213
(lp972
I730
aI698
aI310
aI408
asI214
(lp973
I734
aI702
aI314
aI412
asI215
(lp974
I728
aI718
aI288
aI434
asI216
(lp975
I728
aI718
aI288
aI434
asI217
(lp976
I728
aI718
aI270
aI462
asI218
(lp977
I718
aI718
aI240
aI474
asI219
(lp978
I718
aI718
aI222
aI480
asI220
(lp979
I720
aI718
aI206
aI484
asI221
(lp980
I712
aI718
aI190
aI486
asI222
(lp981
I712
aI718
aI172
aI486
asI223
(lp982
I710
aI718
aI158
aI488
asI224
(lp983
I708
aI718
aI140
aI488
asI225
(lp984
I710
aI718
aI134
aI484
asI226
(lp985
I708
aI718
aI120
aI480
asI227
(lp986
I714
aI718
aI112
aI470
asI228
(lp987
I716
aI718
aI110
aI464
asI229
(lp988
I724
aI718
aI108
aI454
asI230
(lp989
I730
aI718
aI104
aI444
asI231
(lp990
I736
aI718
aI102
aI436
asI232
(lp991
I744
aI718
aI96
aI426
asI233
(lp992
I746
aI718
aI96
aI420
asI234
(lp993
I750
aI718
aI82
aI416
asI235
(lp994
I750
aI718
aI76
aI412
asI236
(lp995
I750
aI718
aI76
aI412
asI237
(lp996
I750
aI718
aI70
aI408
asI238
(lp997
I756
aI718
aI72
aI392
asI239
(lp998
I762
aI718
aI70
aI372
asI240
(lp999
I768
aI718
aI76
aI360
asI241
(lp1000
I776
aI718
aI84
aI334
asI242
(lp1001
I784
aI718
aI100
aI334
asI243
(lp1002
I794
aI718
aI104
aI326
asI244
(lp1003
I796
aI718
aI106
aI318
asI245
(lp1004
I802
aI714
aI118
aI314
asI246
(lp1005
I802
aI702
aI118
aI302
asI247
(lp1006
I802
aI702
aI118
aI302
asI248
(lp1007
I804
aI698
aI120
aI298
asI249
(lp1008
I804
aI690
aI120
aI298
asI250
(lp1009
I804
aI674
aI120
aI282
asI251
(lp1010
I806
aI674
aI124
aI282
asI252
(lp1011
I806
aI660
aI124
aI272
asI253
(lp1012
I804
aI646
aI130
aI262
asI254
(lp1013
I802
aI636
aI128
aI252
asI255
(lp1014
I802
aI630
aI128
aI246
asI256
(lp1015
I802
aI630
aI128
aI246
asI257
(lp1016
I800
aI634
aI138
aI252
asI258
(lp1017
I800
aI634
aI138
aI252
asI259
(lp1018
I798
aI636
aI136
aI254
asI260
(lp1019
I794
aI638
aI132
aI256
asI261
(lp1020
I794
aI638
aI132
aI256
asI262
(lp1021
I794
aI640
aI132
aI258
asI263
(lp1022
I792
aI642
aI130
aI260
asI264
(lp1023
I792
aI642
aI130
aI260
asI265
(lp1024
I792
aI642
aI130
aI260
asI266
(lp1025
I790
aI646
aI128
aI264
asI267
(lp1026
I790
aI646
aI128
aI264
asI268
(lp1027
I786
aI648
aI126
aI266
asI269
(lp1028
I786
aI648
aI126
aI266
asI270
(lp1029
I786
aI652
aI126
aI268
asI271
(lp1030
I786
aI652
aI126
aI268
asI272
(lp1031
I786
aI652
aI126
aI268
asI273
(lp1032
I786
aI652
aI126
aI268
asI274
(lp1033
I786
aI652
aI126
aI268
asI275
(lp1034
I786
aI652
aI126
aI268
asI276
(lp1035
I786
aI652
aI126
aI268
asI277
(lp1036
I786
aI652
aI126
aI268
asI278
(lp1037
I786
aI652
aI126
aI268
asI279
(lp1038
I786
aI648
aI126
aI264
asI280
(lp1039
I786
aI648
aI126
aI264
asI281
(lp1040
I792
aI648
aI132
aI264
asI282
(lp1041
I792
aI648
aI132
aI264
asI283
(lp1042
I792
aI648
aI132
aI264
asI284
(lp1043
I800
aI652
aI132
aI264
asI285
(lp1044
I800
aI654
aI132
aI266
asI286
(lp1045
I804
aI656
aI132
aI266
asI287
(lp1046
I804
aI662
aI132
aI268
asI288
(lp1047
I810
aI666
aI132
aI272
assg169
F86.89915174363809
sg170
(lp1048
I00
aI00
aI00
aI00
aI00
aI00
aI00
aI00
aI00
aI00
aI00
aI00
aI00
aI00
aI00
aI00
aI00
aI00
aI00
aI00
aI00
aI00
aI00
aI00
aI00
aI00
aI00
aI00
aI00
aI00
aI00
aI00
aI00
aI00
aI00
aI00
aI00
aI00
aI00
aI00
aI00
aI00
aI00
aI00
aI00
aI00
aI00
aI00
aI00
aI00
aI00
aI00
aI00
aI00
aI00
aI00
aI00
aI00
aI00
aI00
aI00
aI00
aI00
aI00
aI00
aI00
aI00
aI00
aI00
aI00
aI00
aI00
aI00
aI00
aI00
aI00
aI00
aI00
aI00
aI00
aI00
aI00
aI00
aI00
aI00
asg172
(lp1049
S'00204'
p1050
aS'00205'
p1051
aS'00206'
p1052
aS'00207'
p1053
aS'00208'
p1054
aS'00209'
p1055
aS'00210'
p1056
aS'00211'
p1057
aS'00212'
p1058
aS'00213'
p1059
aS'00214'
p1060
aS'00215'
p1061
aS'00216'
p1062
aS'00217'
p1063
aS'00218'
p1064
aS'00219'
p1065
aS'00220'
p1066
aS'00221'
p1067
aS'00222'
p1068
aS'00223'
p1069
aS'00224'
p1070
aS'00225'
p1071
aS'00226'
p1072
aS'00227'
p1073
aS'00228'
p1074
aS'00229'
p1075
aS'00230'
p1076
aS'00231'
p1077
aS'00232'
p1078
aS'00233'
p1079
aS'00234'
p1080
aS'00235'
p1081
aS'00236'
p1082
aS'00237'
p1083
aS'00238'
p1084
aS'00239'
p1085
aS'00240'
p1086
aS'00241'
p1087
aS'00242'
p1088
aS'00243'
p1089
aS'00244'
p1090
aS'00245'
p1091
aS'00246'
p1092
aS'00247'
p1093
aS'00248'
p1094
aS'00249'
p1095
aS'00250'
p1096
aS'00251'
p1097
aS'00252'
p1098
aS'00253'
p1099
aS'00254'
p1100
aS'00255'
p1101
aS'00256'
p1102
aS'00257'
p1103
aS'00258'
p1104
aS'00259'
p1105
aS'00260'
p1106
aS'00261'
p1107
aS'00262'
p1108
aS'00263'
p1109
aS'00264'
p1110
aS'00265'
p1111
aS'00266'
p1112
aS'00267'
p1113
aS'00268'
p1114
aS'00269'
p1115
aS'00270'
p1116
aS'00271'
p1117
aS'00272'
p1118
aS'00273'
p1119
aS'00274'
p1120
aS'00275'
p1121
aS'00276'
p1122
aS'00277'
p1123
aS'00278'
p1124
aS'00279'
p1125
aS'00280'
p1126
aS'00281'
p1127
aS'00282'
p1128
aS'00283'
p1129
aS'00284'
p1130
aS'00285'
p1131
aS'00286'
p1132
aS'00287'
p1133
aS'00288'
p1134
asg239
(lp1135
I576
aI238
aI156
aI131
aI119
aI72
aI61
aI50
aI67
aI90
aI50
aI49
aI39
aI30
aI21
aI16
aI21
aI15
aI13
aI8
aI10
aI14
aI15
aI14
aI14
aI11
aI14
aI14
aI12
aI9
aI9
aI10
aI5
aI8
aI13
aI16
aI11
aI10
aI12
aI10
aI18
aI16
aI17
aI16
aI13
aI23
aI14
aI20
aI18
aI22
aI18
aI13
aI14
aI14
aI15
aI14
aI17
aI17
aI17
aI17
aI18
aI14
aI16
aI16
aI17
aI18
aI15
aI17
aI17
aI15
aI16
aI14
aI14
aI15
aI6
aI10
aI7
aI17
aI14
aI18
aI14
aI19
aI20
aI16
aI17
asg241
(lp1136
I576
aI241
aI161
aI136
aI119
aI78
aI70
aI62
aI74
aI95
aI58
aI58
aI45
aI39
aI27
aI27
aI34
aI27
aI20
aI15
aI20
aI21
aI24
aI16
aI20
aI13
aI21
aI20
aI15
aI15
aI13
aI12
aI7
aI15
aI17
aI19
aI16
aI11
aI20
aI14
aI23
aI19
aI23
aI18
aI18
aI28
aI17
aI25
aI25
aI35
aI24
aI17
aI15
aI19
aI17
aI15
aI21
aI20
aI21
aI22
aI22
aI19
aI18
aI20
aI19
aI19
aI18
aI19
aI21
aI18
aI21
aI19
aI18
aI15
aI8
aI15
aI13
aI22
aI18
aI19
aI22
aI24
aI24
aI20
aI19
asg243
(lp1137
F390.1281840626232
aF397.3159951474393
aF417.93779441443195
aF424.16977732978575
aF433.62656745176486
aF441.6016304317728
aF450.8347812669293
aF462.21207253813697
aF505.8893159575521
aF510.3920062069938
aF510.3920062069938
aF523.6945674723006
aF523.6945674723006
aF524.6903848937962
aF536.674948176268
aF550.1454353168806
aF564.7583554052122
aF571.233752504174
aF587.7278281653847
aF598.0
aF612.800130548289
aF621.7169774101395
aF634.3406025157147
aF651.0821760730361
aF657.0783819301926
aF670.188033316024
aF683.3388617662544
aF693.8875989668644
aF710.7517147358844
aF715.0552426211558
aF733.0948096938076
aF740.2107807915256
aF740.2107807915256
aF747.3285756613352
aF757.7149859940741
aF773.6795202149273
aF779.1200164287912
aF791.403816013039
aF784.4182557794024
aF793.5767133680272
aF797.5587752636166
aF792.3736492337438
aF792.3736492337438
aF792.3736492337438
aF792.3736492337438
aF788.3653975156444
aF788.3653975156444
aF786.630790142364
aF784.6451427237665
aF775.7138647723141
aF775.7138647723141
aF775.7138647723141
aF775.7138647723141
aF764.3088381014575
aF764.3088381014575
aF764.3088381014575
aF764.3088381014575
aF764.3088381014575
aF764.3088381014575
aF764.3088381014575
aF764.3088381014575
aF764.3088381014575
aF764.3088381014575
aF764.3088381014575
aF762.5772092057302
aF762.5772092057302
aF763.5810369567856
aF763.5810369567856
aF763.5810369567856
aF763.5810369567856
aF763.5810369567856
aF763.5810369567856
aF763.5810369567856
aF763.5810369567856
aF763.5810369567856
aF763.5810369567856
aF763.5810369567856
aF763.5810369567856
aF763.5810369567856
aF763.5810369567856
aF772.5076051405579
aF772.5076051405579
aF776.9710419314223
aF778.9865210643892
aF784.1683492720169
asg245
(lp1138
F12.083045973594572
aF17.46424919657298
aF14.866068747318506
aF22.135943621178654
aF9.848857801796104
aF33.95585369269929
aF29.154759474226502
aF61.0
aF31.89043743820395
aF44.9221548904324
aF54.817880294662984
aF55.31726674375732
aF45.48626166217664
aF73.24616030891995
aF62.6418390534633
aF67.67569726275453
aF86.53323061113575
aF99.72462083156798
aF63.071388124885914
aF38.01315561749642
aF46.04345773288535
aF46.2709412050371
aF52.009614495783374
aF6.708203932499369
aF39.11521443121589
aF80.89499366462674
aF27.65863337187866
aF12.806248474865697
aF72.44308110509934
aF133.3604139165742
aF86.82165628459296
aF71.386273190299
aF34.17601498127012
aF58.412327466040935
aF49.16299421312742
aF50.93132631298737
aF74.46475676452586
aF32.31098884280702
aF73.49829930005184
aF110.6752004741803
aF75.92759709091287
aF59.77457653551382
aF24.20743687382041
aF13.601470508735444
aF46.04345773288535
aF6.708203932499369
aF20.615528128088304
aF40.01249804748511
aF40.45985664828782
aF47.265209192385896
aF7.615773105863909
aF117.64777940955791
aF62.96824596572466
aF17.72004514666935
aF36.069377593742864
aF17.69180601295413
aF57.9396237474839
aF44.41846462902562
aF47.80167361086848
aF30.4138126514911
aF44.40720662234904
aF40.496913462633174
aF14.866068747318506
aF7.615773105863909
aF33.734255586866
aF12.806248474865697
aF8.54400374531753
aF17.0
aF73.55270219373317
aF21.02379604162864
aF5.830951894845301
aF37.73592452822641
aF70.03570517957252
aF46.0
aF140.356688476182
aF78.87331614684399
aF107.07474025184464
aF20.615528128088304
aF67.11929677819934
aF24.08318915758459
aF13.038404810405298
aF11.180339887498949
aF34.828149534535996
aF18.439088914585774
aF45.60701700396552
assI144
(dp1139
g2
(dp1140
I124
(lp1141
I122
aI460
aI44
aI398
asI125
(lp1142
I122
aI450
aI44
aI388
asI126
(lp1143
I122
aI450
aI44
aI388
asI127
(lp1144
I122
aI450
aI38
aI388
asI128
(lp1145
I114
aI454
aI30
aI392
asI129
(lp1146
I100
aI458
aI16
aI396
asI130
(lp1147
I90
aI466
aI6
aI394
asI131
(lp1148
I86
aI466
aI2
aI394
asI132
(lp1149
I86
aI464
aI2
aI392
asI133
(lp1150
I86
aI458
aI2
aI386
asI134
(lp1151
I98
aI458
aI10
aI386
asI135
(lp1152
I114
aI456
aI22
aI382
asI136
(lp1153
I128
aI450
aI38
aI376
asI137
(lp1154
I148
aI450
aI58
aI376
asI138
(lp1155
I170
aI446
aI80
aI372
asI139
(lp1156
I186
aI440
aI98
aI366
asI140
(lp1157
I198
aI436
aI110
aI362
asI141
(lp1158
I214
aI430
aI116
aI356
asI142
(lp1159
I232
aI430
aI134
aI356
asI143
(lp1160
I246
aI432
aI154
aI358
asI144
(lp1161
I262
aI436
aI174
aI362
asI145
(lp1162
I278
aI448
aI194
aI374
asI146
(lp1163
I296
aI452
aI212
aI378
asI147
(lp1164
I312
aI454
aI228
aI376
asI148
(lp1165
I338
aI458
aI250
aI380
asI149
(lp1166
I356
aI464
aI268
aI386
asI150
(lp1167
I394
aI468
aI306
aI386
asI151
(lp1168
I416
aI468
aI328
aI386
asI152
(lp1169
I432
aI472
aI344
aI390
asI153
(lp1170
I452
aI472
aI360
aI390
asI154
(lp1171
I468
aI470
aI376
aI388
asI155
(lp1172
I472
aI470
aI386
aI384
asI156
(lp1173
I486
aI464
aI400
aI378
asI157
(lp1174
I502
aI462
aI416
aI376
asI158
(lp1175
I520
aI462
aI432
aI374
asI159
(lp1176
I538
aI466
aI446
aI376
asI160
(lp1177
I554
aI460
aI462
aI372
asI161
(lp1178
I570
aI460
aI476
aI372
asI162
(lp1179
I586
aI460
aI488
aI368
asI163
(lp1180
I594
aI458
aI492
aI366
asI164
(lp1181
I604
aI460
aI506
aI362
asI165
(lp1182
I620
aI472
aI512
aI366
asI166
(lp1183
I628
aI478
aI520
aI372
asI167
(lp1184
I638
aI476
aI528
aI386
asI168
(lp1185
I644
aI476
aI534
aI386
asI169
(lp1186
I662
aI480
aI546
aI386
asI170
(lp1187
I676
aI492
aI558
aI390
asI171
(lp1188
I702
aI502
aI570
aI394
asI172
(lp1189
I714
aI508
aI582
aI400
asI173
(lp1190
I720
aI508
aI590
aI400
asI174
(lp1191
I726
aI512
aI596
aI396
asI175
(lp1192
I732
aI514
aI598
aI396
asI176
(lp1193
I740
aI514
aI602
aI396
asI177
(lp1194
I744
aI514
aI606
aI392
asI178
(lp1195
I752
aI516
aI610
aI392
asI179
(lp1196
I764
aI516
aI614
aI390
asI180
(lp1197
I770
aI516
aI616
aI386
asI181
(lp1198
I776
aI520
aI624
aI384
asI182
(lp1199
I778
aI520
aI624
aI382
asI183
(lp1200
I784
aI522
aI624
aI382
asI184
(lp1201
I796
aI524
aI624
aI384
asI185
(lp1202
I786
aI534
aI614
aI388
asI186
(lp1203
I780
aI538
aI606
aI398
asI187
(lp1204
I782
aI548
aI590
aI400
asI188
(lp1205
I770
aI560
aI578
aI408
asI189
(lp1206
I766
aI574
aI568
aI414
asI190
(lp1207
I756
aI588
aI558
aI420
asI191
(lp1208
I752
aI608
aI544
aI434
asI192
(lp1209
I752
aI624
aI532
aI438
asI193
(lp1210
I756
aI630
aI526
aI452
asI194
(lp1211
I748
aI646
aI516
aI458
asI195
(lp1212
I748
aI650
aI510
aI458
asI196
(lp1213
I748
aI658
aI504
aI458
asI197
(lp1214
I750
aI664
aI498
aI458
asI198
(lp1215
I748
aI670
aI492
aI458
asI199
(lp1216
I752
aI676
aI486
aI454
asI200
(lp1217
I750
aI676
aI478
aI448
asI201
(lp1218
I750
aI682
aI460
aI448
asI202
(lp1219
I750
aI674
aI460
aI440
asI203
(lp1220
I742
aI670
aI444
aI432
asI204
(lp1221
I740
aI664
aI434
aI422
asI205
(lp1222
I740
aI662
aI428
aI416
asI206
(lp1223
I746
aI668
aI422
aI404
asI207
(lp1224
I752
aI668
aI420
aI404
asI208
(lp1225
I750
aI668
aI406
aI404
asI209
(lp1226
I748
aI666
aI394
aI402
asI210
(lp1227
I736
aI664
aI372
aI398
asI211
(lp1228
I724
aI670
aI346
aI404
asI212
(lp1229
I728
aI684
aI308
aI402
asI213
(lp1230
I730
aI698
aI310
aI408
asI214
(lp1231
I734
aI702
aI314
aI412
asI215
(lp1232
I728
aI718
aI288
aI434
asI216
(lp1233
I728
aI718
aI288
aI434
asI217
(lp1234
I728
aI718
aI270
aI462
asI218
(lp1235
I718
aI718
aI240
aI474
asI219
(lp1236
I718
aI718
aI222
aI480
asI220
(lp1237
I720
aI718
aI206
aI484
asI221
(lp1238
I712
aI718
aI190
aI486
asI222
(lp1239
I712
aI718
aI172
aI486
asI223
(lp1240
I710
aI718
aI158
aI488
asI224
(lp1241
I708
aI718
aI140
aI488
asI225
(lp1242
I710
aI718
aI134
aI484
asI226
(lp1243
I708
aI718
aI120
aI480
asI227
(lp1244
I714
aI718
aI112
aI470
asI228
(lp1245
I716
aI718
aI110
aI464
asI229
(lp1246
I724
aI718
aI108
aI454
asI230
(lp1247
I730
aI718
aI104
aI444
asI231
(lp1248
I736
aI718
aI102
aI436
asI232
(lp1249
I744
aI718
aI96
aI426
asI233
(lp1250
I746
aI718
aI96
aI420
asI234
(lp1251
I750
aI718
aI82
aI416
asI235
(lp1252
I750
aI718
aI76
aI412
asI236
(lp1253
I750
aI718
aI76
aI412
asI237
(lp1254
I750
aI718
aI70
aI408
asI238
(lp1255
I756
aI718
aI72
aI392
asI239
(lp1256
I762
aI718
aI70
aI372
asI240
(lp1257
I768
aI718
aI76
aI360
asI241
(lp1258
I776
aI718
aI84
aI334
asI242
(lp1259
I784
aI718
aI100
aI334
asI243
(lp1260
I794
aI718
aI104
aI326
asI244
(lp1261
I796
aI718
aI106
aI318
asI245
(lp1262
I802
aI714
aI118
aI314
asI246
(lp1263
I802
aI702
aI118
aI302
asI247
(lp1264
I802
aI702
aI118
aI302
asI248
(lp1265
I804
aI698
aI120
aI298
asI249
(lp1266
I804
aI690
aI120
aI298
asI250
(lp1267
I804
aI674
aI120
aI282
asI251
(lp1268
I806
aI674
aI124
aI282
asI252
(lp1269
I806
aI660
aI124
aI272
asI253
(lp1270
I804
aI646
aI130
aI262
asI254
(lp1271
I802
aI636
aI128
aI252
asI255
(lp1272
I802
aI630
aI128
aI246
asI256
(lp1273
I802
aI630
aI128
aI246
asI257
(lp1274
I800
aI634
aI138
aI252
asI258
(lp1275
I800
aI634
aI138
aI252
asI259
(lp1276
I798
aI636
aI136
aI254
asI260
(lp1277
I794
aI638
aI132
aI256
asI261
(lp1278
I794
aI638
aI132
aI256
asI262
(lp1279
I794
aI640
aI132
aI258
asI263
(lp1280
I792
aI642
aI130
aI260
asI264
(lp1281
I792
aI642
aI130
aI260
asI265
(lp1282
I792
aI642
aI130
aI260
asI266
(lp1283
I790
aI646
aI128
aI264
asI267
(lp1284
I790
aI646
aI128
aI264
asI268
(lp1285
I786
aI648
aI126
aI266
asI269
(lp1286
I786
aI648
aI126
aI266
asI270
(lp1287
I786
aI652
aI126
aI268
asI271
(lp1288
I786
aI652
aI126
aI268
asI272
(lp1289
I786
aI652
aI126
aI268
asI273
(lp1290
I786
aI652
aI126
aI268
asI274
(lp1291
I786
aI652
aI126
aI268
asI275
(lp1292
I786
aI652
aI126
aI268
asI276
(lp1293
I786
aI652
aI126
aI268
asI277
(lp1294
I786
aI652
aI126
aI268
asI278
(lp1295
I786
aI652
aI126
aI268
asI279
(lp1296
I786
aI648
aI126
aI264
asI280
(lp1297
I786
aI648
aI126
aI264
asI281
(lp1298
I792
aI648
aI132
aI264
asI282
(lp1299
I792
aI648
aI132
aI264
asI283
(lp1300
I792
aI648
aI132
aI264
asI284
(lp1301
I800
aI652
aI132
aI264
asI285
(lp1302
I800
aI654
aI132
aI266
asI286
(lp1303
I804
aI656
aI132
aI266
asI287
(lp1304
I804
aI662
aI132
aI268
asI288
(lp1305
I810
aI666
aI132
aI272
assg169
F75.0
sg170
(lp1306
I00
aI00
aI00
aI00
aI00
aI00
aI00
aI00
aI00
aI00
aI00
aI00
aI00
aI00
aI00
aI00
aI00
aI00
aI00
aI00
aI00
aI00
aI00
aI00
aI00
aI00
aI00
aI00
aI00
aI00
aI00
aI00
aI00
aI00
aI00
aI00
aI00
aI00
aI00
aI00
aI00
aI00
asg172
(lp1307
S'00144'
p1308
aS'00145'
p1309
aS'00146'
p1310
aS'00147'
p1311
aS'00148'
p1312
aS'00149'
p1313
aS'00150'
p1314
aS'00151'
p1315
aS'00152'
p1316
aS'00153'
p1317
aS'00154'
p1318
aS'00155'
p1319
aS'00156'
p1320
aS'00157'
p1321
aS'00158'
p1322
aS'00159'
p1323
aS'00160'
p1324
aS'00161'
p1325
aS'00165'
p1326
aS'00168'
p1327
aS'00169'
p1328
aS'00174'
p1329
aS'00178'
p1330
aS'00199'
p1331
aS'00204'
p1332
aS'00209'
p1333
aS'00211'
p1334
aS'00220'
p1335
aS'00221'
p1336
aS'00227'
p1337
aS'00237'
p1338
aS'00238'
p1339
aS'00250'
p1340
aS'00257'
p1341
aS'00259'
p1342
aS'00262'
p1343
aS'00265'
p1344
aS'00266'
p1345
aS'00270'
p1346
aS'00271'
p1347
aS'00279'
p1348
aS'00287'
p1349
asg239
(lp1350
I40
aI14
aI8
aI7
aI10
aI7
aI6
aI4
aI3
aI5
aI2
aI0
aI1
aI2
aI2
aI0
aI0
aI0
aI1
aI0
aI0
aI0
aI0
aI0
aI0
aI0
aI0
aI0
aI1
aI0
aI0
aI0
aI0
aI1
aI0
aI0
aI0
aI0
aI0
aI0
aI0
aI0
asg241
(lp1351
I40
aI14
aI8
aI7
aI12
aI9
aI8
aI4
aI4
aI5
aI2
aI1
aI2
aI3
aI3
aI1
aI1
aI1
aI1
aI1
aI1
aI1
aI1
aI1
aI1
aI1
aI1
aI1
aI1
aI1
aI1
aI1
aI1
aI2
aI1
aI1
aI2
aI1
aI1
aI1
aI1
aI2
asg243
(lp1352
F114.97825881443848
aF111.94641575325224
aF111.94641575325224
aF114.6298390472568
aF117.5925167687128
aF117.5925167687128
aF120.28299963003916
aF120.28299963003916
aF120.28299963003916
aF123.23960402403117
aF123.23960402403117
aF121.62236636408618
aF121.62236636408618
aF121.62236636408618
aF124.45079348883236
aF128.70120434556935
aF127.31064370271639
aF128.76334882255898
aF151.32745950421557
aF142.12670403551894
aF149.30505684671232
aF174.22973339817747
aF188.52055590836773
aF346.4678917302439
aF390.1281840626232
aF441.6016304317728
aF462.21207253813697
aF564.7583554052122
aF571.233752504174
aF651.0821760730361
aF747.3285756613352
aF757.7149859940741
aF788.3653975156444
aF764.3088381014575
aF764.3088381014575
aF764.3088381014575
aF764.3088381014575
aF764.3088381014575
aF763.5810369567856
aF763.5810369567856
aF763.5810369567856
aF778.9865210643892
asg245
(lp1353
F2.8284271247461903
aF5.385164807134504
aF3.1622776601683795
aF16.401219466856727
aF17.72004514666935
aF18.439088914585774
aF9.433981132056603
aF12.649110640673518
aF48.38388161361178
aF12.041594578792296
aF44.553338819890925
aF65.11528238439882
aF31.04834939252005
aF23.430749027719962
aF22.80350850198276
aF71.50524456289902
aF68.6804193347711
aF69.31089380465383
aF72.18032973047436
aF423.27414284361856
aF73.53910524340094
aF427.0702518321781
aF546.9378392468379
aF603.9023099806789
aF248.26195842295292
aF349.4638751001311
aF615.37630763623
aF340.99266854288817
aF127.76932339180638
aF417.71401700206326
aF348.7377237982722
aF687.4976363595732
aF506.7879240865946
aF372.1787205093811
aF499.63987030660394
aF480.09374084651427
aF630.6195366463047
aF498.3813800695207
aF479.8176737053357
aF478.87576677046417
aF477.87550680067295
aF459.436611514581
assI244
(dp1354
g2
(dp1355
I124
(lp1356
I122
aI460
aI44
aI398
asI125
(lp1357
I122
aI450
aI44
aI388
asI126
(lp1358
I122
aI450
aI44
aI388
asI127
(lp1359
I122
aI450
aI38
aI388
asI128
(lp1360
I114
aI454
aI30
aI392
asI129
(lp1361
I100
aI458
aI16
aI396
asI130
(lp1362
I90
aI466
aI6
aI394
asI131
(lp1363
I86
aI466
aI2
aI394
asI132
(lp1364
I86
aI464
aI2
aI392
asI133
(lp1365
I86
aI458
aI2
aI386
asI134
(lp1366
I98
aI458
aI10
aI386
asI135
(lp1367
I114
aI456
aI22
aI382
asI136
(lp1368
I128
aI450
aI38
aI376
asI137
(lp1369
I148
aI450
aI58
aI376
asI138
(lp1370
I170
aI446
aI80
aI372
asI139
(lp1371
I186
aI440
aI98
aI366
asI140
(lp1372
I198
aI436
aI110
aI362
asI141
(lp1373
I214
aI430
aI116
aI356
asI142
(lp1374
I232
aI430
aI134
aI356
asI143
(lp1375
I246
aI432
aI154
aI358
asI144
(lp1376
I262
aI436
aI174
aI362
asI145
(lp1377
I278
aI448
aI194
aI374
asI146
(lp1378
I296
aI452
aI212
aI378
asI147
(lp1379
I312
aI454
aI228
aI376
asI148
(lp1380
I338
aI458
aI250
aI380
asI149
(lp1381
I356
aI464
aI268
aI386
asI150
(lp1382
I394
aI468
aI306
aI386
asI151
(lp1383
I416
aI468
aI328
aI386
asI152
(lp1384
I432
aI472
aI344
aI390
asI153
(lp1385
I452
aI472
aI360
aI390
asI154
(lp1386
I468
aI470
aI376
aI388
asI155
(lp1387
I472
aI470
aI386
aI384
asI156
(lp1388
I486
aI464
aI400
aI378
asI157
(lp1389
I502
aI462
aI416
aI376
asI158
(lp1390
I520
aI462
aI432
aI374
asI159
(lp1391
I538
aI466
aI446
aI376
asI160
(lp1392
I554
aI460
aI462
aI372
asI161
(lp1393
I570
aI460
aI476
aI372
asI162
(lp1394
I586
aI460
aI488
aI368
asI163
(lp1395
I594
aI458
aI492
aI366
asI164
(lp1396
I604
aI460
aI506
aI362
asI165
(lp1397
I620
aI472
aI512
aI366
asI166
(lp1398
I628
aI478
aI520
aI372
asI167
(lp1399
I638
aI476
aI528
aI386
asI168
(lp1400
I644
aI476
aI534
aI386
asI169
(lp1401
I662
aI480
aI546
aI386
asI170
(lp1402
I676
aI492
aI558
aI390
asI171
(lp1403
I702
aI502
aI570
aI394
asI172
(lp1404
I714
aI508
aI582
aI400
asI173
(lp1405
I720
aI508
aI590
aI400
asI174
(lp1406
I726
aI512
aI596
aI396
asI175
(lp1407
I732
aI514
aI598
aI396
asI176
(lp1408
I740
aI514
aI602
aI396
asI177
(lp1409
I744
aI514
aI606
aI392
asI178
(lp1410
I752
aI516
aI610
aI392
asI179
(lp1411
I764
aI516
aI614
aI390
asI180
(lp1412
I770
aI516
aI616
aI386
asI181
(lp1413
I776
aI520
aI624
aI384
asI182
(lp1414
I778
aI520
aI624
aI382
asI183
(lp1415
I784
aI522
aI624
aI382
asI184
(lp1416
I796
aI524
aI624
aI384
asI185
(lp1417
I786
aI534
aI614
aI388
asI186
(lp1418
I780
aI538
aI606
aI398
asI187
(lp1419
I782
aI548
aI590
aI400
asI188
(lp1420
I770
aI560
aI578
aI408
asI189
(lp1421
I766
aI574
aI568
aI414
asI190
(lp1422
I756
aI588
aI558
aI420
asI191
(lp1423
I752
aI608
aI544
aI434
asI192
(lp1424
I752
aI624
aI532
aI438
asI193
(lp1425
I756
aI630
aI526
aI452
asI194
(lp1426
I748
aI646
aI516
aI458
asI195
(lp1427
I748
aI650
aI510
aI458
asI196
(lp1428
I748
aI658
aI504
aI458
asI197
(lp1429
I750
aI664
aI498
aI458
asI198
(lp1430
I748
aI670
aI492
aI458
asI199
(lp1431
I752
aI676
aI486
aI454
asI200
(lp1432
I750
aI676
aI478
aI448
asI201
(lp1433
I750
aI682
aI460
aI448
asI202
(lp1434
I750
aI674
aI460
aI440
asI203
(lp1435
I742
aI670
aI444
aI432
asI204
(lp1436
I740
aI664
aI434
aI422
asI205
(lp1437
I740
aI662
aI428
aI416
asI206
(lp1438
I746
aI668
aI422
aI404
asI207
(lp1439
I752
aI668
aI420
aI404
asI208
(lp1440
I750
aI668
aI406
aI404
asI209
(lp1441
I748
aI666
aI394
aI402
asI210
(lp1442
I736
aI664
aI372
aI398
asI211
(lp1443
I724
aI670
aI346
aI404
asI212
(lp1444
I728
aI684
aI308
aI402
asI213
(lp1445
I730
aI698
aI310
aI408
asI214
(lp1446
I734
aI702
aI314
aI412
asI215
(lp1447
I728
aI718
aI288
aI434
asI216
(lp1448
I728
aI718
aI288
aI434
asI217
(lp1449
I728
aI718
aI270
aI462
asI218
(lp1450
I718
aI718
aI240
aI474
asI219
(lp1451
I718
aI718
aI222
aI480
asI220
(lp1452
I720
aI718
aI206
aI484
asI221
(lp1453
I712
aI718
aI190
aI486
asI222
(lp1454
I712
aI718
aI172
aI486
asI223
(lp1455
I710
aI718
aI158
aI488
asI224
(lp1456
I708
aI718
aI140
aI488
asI225
(lp1457
I710
aI718
aI134
aI484
asI226
(lp1458
I708
aI718
aI120
aI480
asI227
(lp1459
I714
aI718
aI112
aI470
asI228
(lp1460
I716
aI718
aI110
aI464
asI229
(lp1461
I724
aI718
aI108
aI454
asI230
(lp1462
I730
aI718
aI104
aI444
asI231
(lp1463
I736
aI718
aI102
aI436
asI232
(lp1464
I744
aI718
aI96
aI426
asI233
(lp1465
I746
aI718
aI96
aI420
asI234
(lp1466
I750
aI718
aI82
aI416
asI235
(lp1467
I750
aI718
aI76
aI412
asI236
(lp1468
I750
aI718
aI76
aI412
asI237
(lp1469
I750
aI718
aI70
aI408
asI238
(lp1470
I756
aI718
aI72
aI392
asI239
(lp1471
I762
aI718
aI70
aI372
asI240
(lp1472
I768
aI718
aI76
aI360
asI241
(lp1473
I776
aI718
aI84
aI334
asI242
(lp1474
I784
aI718
aI100
aI334
asI243
(lp1475
I794
aI718
aI104
aI326
asI244
(lp1476
I796
aI718
aI106
aI318
asI245
(lp1477
I802
aI714
aI118
aI314
asI246
(lp1478
I802
aI702
aI118
aI302
asI247
(lp1479
I802
aI702
aI118
aI302
asI248
(lp1480
I804
aI698
aI120
aI298
asI249
(lp1481
I804
aI690
aI120
aI298
asI250
(lp1482
I804
aI674
aI120
aI282
asI251
(lp1483
I806
aI674
aI124
aI282
asI252
(lp1484
I806
aI660
aI124
aI272
asI253
(lp1485
I804
aI646
aI130
aI262
asI254
(lp1486
I802
aI636
aI128
aI252
asI255
(lp1487
I802
aI630
aI128
aI246
asI256
(lp1488
I802
aI630
aI128
aI246
asI257
(lp1489
I800
aI634
aI138
aI252
asI258
(lp1490
I800
aI634
aI138
aI252
asI259
(lp1491
I798
aI636
aI136
aI254
asI260
(lp1492
I794
aI638
aI132
aI256
asI261
(lp1493
I794
aI638
aI132
aI256
asI262
(lp1494
I794
aI640
aI132
aI258
asI263
(lp1495
I792
aI642
aI130
aI260
asI264
(lp1496
I792
aI642
aI130
aI260
asI265
(lp1497
I792
aI642
aI130
aI260
asI266
(lp1498
I790
aI646
aI128
aI264
asI267
(lp1499
I790
aI646
aI128
aI264
asI268
(lp1500
I786
aI648
aI126
aI266
asI269
(lp1501
I786
aI648
aI126
aI266
asI270
(lp1502
I786
aI652
aI126
aI268
asI271
(lp1503
I786
aI652
aI126
aI268
asI272
(lp1504
I786
aI652
aI126
aI268
asI273
(lp1505
I786
aI652
aI126
aI268
asI274
(lp1506
I786
aI652
aI126
aI268
asI275
(lp1507
I786
aI652
aI126
aI268
asI276
(lp1508
I786
aI652
aI126
aI268
asI277
(lp1509
I786
aI652
aI126
aI268
asI278
(lp1510
I786
aI652
aI126
aI268
asI279
(lp1511
I786
aI648
aI126
aI264
asI280
(lp1512
I786
aI648
aI126
aI264
asI281
(lp1513
I792
aI648
aI132
aI264
asI282
(lp1514
I792
aI648
aI132
aI264
asI283
(lp1515
I792
aI648
aI132
aI264
asI284
(lp1516
I800
aI652
aI132
aI264
asI285
(lp1517
I800
aI654
aI132
aI266
asI286
(lp1518
I804
aI656
aI132
aI266
asI287
(lp1519
I804
aI662
aI132
aI268
asI288
(lp1520
I810
aI666
aI132
aI272
assg169
F95.56502471450486
sg170
(lp1521
I00
aI00
aI00
aI00
aI00
aI00
aI00
aI00
aI00
aI00
aI00
aI00
aI00
aI00
aI00
aI00
aI00
aI00
aI00
aI00
aI00
aI00
aI00
aI00
aI00
aI00
aI00
aI00
aI00
aI00
aI00
aI00
aI00
aI00
aI00
aI00
aI00
aI00
aI00
aI00
aI00
aI00
aI00
aI00
aI00
asg172
(lp1522
S'00244'
p1523
aS'00245'
p1524
aS'00246'
p1525
aS'00247'
p1526
aS'00248'
p1527
aS'00249'
p1528
aS'00250'
p1529
aS'00251'
p1530
aS'00252'
p1531
aS'00253'
p1532
aS'00254'
p1533
aS'00255'
p1534
aS'00256'
p1535
aS'00257'
p1536
aS'00258'
p1537
aS'00259'
p1538
aS'00260'
p1539
aS'00261'
p1540
aS'00262'
p1541
aS'00263'
p1542
aS'00264'
p1543
aS'00265'
p1544
aS'00266'
p1545
aS'00267'
p1546
aS'00268'
p1547
aS'00269'
p1548
aS'00270'
p1549
aS'00271'
p1550
aS'00272'
p1551
aS'00273'
p1552
aS'00274'
p1553
aS'00275'
p1554
aS'00276'
p1555
aS'00277'
p1556
aS'00278'
p1557
aS'00279'
p1558
aS'00280'
p1559
aS'00281'
p1560
aS'00282'
p1561
aS'00283'
p1562
aS'00284'
p1563
aS'00285'
p1564
aS'00286'
p1565
aS'00287'
p1566
aS'00288'
p1567
asg239
(lp1568
I1902
aI1038
aI884
aI831
aI814
aI869
aI795
aI704
aI576
aI488
aI568
aI683
aI578
aI569
aI592
aI601
aI578
aI520
aI529
aI552
aI554
aI537
aI518
aI536
aI545
aI529
aI508
aI536
aI528
aI538
aI517
aI547
aI487
aI516
aI519
aI517
aI521
aI555
aI536
aI526
aI550
aI556
aI571
aI564
aI552
asg241
(lp1569
I1902
aI1078
aI919
aI858
aI838
aI904
aI807
aI712
aI593
aI500
aI580
aI698
aI605
aI606
aI627
aI627
aI606
aI556
aI572
aI590
aI591
aI577
aI550
aI567
aI581
aI560
aI541
aI571
aI569
aI575
aI553
aI580
aI521
aI545
aI548
aI548
aI558
aI594
aI556
aI557
aI570
aI582
aI595
aI589
aI579
asg243
(lp1570
F797.5587752636166
aF792.3736492337438
aF792.3736492337438
aF792.3736492337438
aF792.3736492337438
aF788.3653975156444
aF788.3653975156444
aF786.630790142364
aF784.6451427237665
aF775.7138647723141
aF775.7138647723141
aF775.7138647723141
aF775.7138647723141
aF764.3088381014575
aF764.3088381014575
aF764.3088381014575
aF764.3088381014575
aF764.3088381014575
aF764.3088381014575
aF764.3088381014575
aF764.3088381014575
aF764.3088381014575
aF764.3088381014575
aF764.3088381014575
aF762.5772092057302
aF762.5772092057302
aF763.5810369567856
aF763.5810369567856
aF763.5810369567856
aF763.5810369567856
aF763.5810369567856
aF763.5810369567856
aF763.5810369567856
aF763.5810369567856
aF763.5810369567856
aF763.5810369567856
aF763.5810369567856
aF763.5810369567856
aF763.5810369567856
aF763.5810369567856
aF772.5076051405579
aF772.5076051405579
aF776.9710419314223
aF778.9865210643892
aF784.1683492720169
asg245
(lp1571
F62.26556030423239
aF57.8013840664737
aF48.30113870293329
aF49.193495504995376
aF68.00735254367721
aF69.8927750200262
aF78.85429601486528
aF89.49301648732151
aF71.5122367151245
aF76.40026177965623
aF67.89698078707183
aF62.80127387243033
aF60.166435825965294
aF56.92099788303083
aF52.20153254455275
aF61.1310068623117
aF54.70831746635972
aF41.593268686170845
aF49.39635614091387
aF51.86520991955976
aF49.33558553417604
aF49.658836071740545
aF51.0
aF52.92447448959697
aF42.95346318982906
aF42.720018726587654
aF33.015148038438355
aF50.59644256269407
aF48.33218389437829
aF43.382023926967726
aF47.92702786528704
aF36.6742416417845
aF53.85164807134504
aF53.31041174104736
aF57.584720195551874
aF68.65857557508748
aF67.72001181334805
aF64.25729530566937
aF57.0087712549569
aF62.96824596572466
aF60.8276253029822
aF59.135437767890075
aF55.54277630799526
aF66.30987860040162
aF64.8459713474939
assI184
(dp1572
g2
(dp1573
I124
(lp1574
I122
aI460
aI44
aI398
asI125
(lp1575
I122
aI450
aI44
aI388
asI126
(lp1576
I122
aI450
aI44
aI388
asI127
(lp1577
I122
aI450
aI38
aI388
asI128
(lp1578
I114
aI454
aI30
aI392
asI129
(lp1579
I100
aI458
aI16
aI396
asI130
(lp1580
I90
aI466
aI6
aI394
asI131
(lp1581
I86
aI466
aI2
aI394
asI132
(lp1582
I86
aI464
aI2
aI392
asI133
(lp1583
I86
aI458
aI2
aI386
asI134
(lp1584
I98
aI458
aI10
aI386
asI135
(lp1585
I114
aI456
aI22
aI382
asI136
(lp1586
I128
aI450
aI38
aI376
asI137
(lp1587
I148
aI450
aI58
aI376
asI138
(lp1588
I170
aI446
aI80
aI372
asI139
(lp1589
I186
aI440
aI98
aI366
asI140
(lp1590
I198
aI436
aI110
aI362
asI141
(lp1591
I214
aI430
aI116
aI356
asI142
(lp1592
I232
aI430
aI134
aI356
asI143
(lp1593
I246
aI432
aI154
aI358
asI144
(lp1594
I262
aI436
aI174
aI362
asI145
(lp1595
I278
aI448
aI194
aI374
asI146
(lp1596
I296
aI452
aI212
aI378
asI147
(lp1597
I312
aI454
aI228
aI376
asI148
(lp1598
I338
aI458
aI250
aI380
asI149
(lp1599
I356
aI464
aI268
aI386
asI150
(lp1600
I394
aI468
aI306
aI386
asI151
(lp1601
I416
aI468
aI328
aI386
asI152
(lp1602
I432
aI472
aI344
aI390
asI153
(lp1603
I452
aI472
aI360
aI390
asI154
(lp1604
I468
aI470
aI376
aI388
asI155
(lp1605
I472
aI470
aI386
aI384
asI156
(lp1606
I486
aI464
aI400
aI378
asI157
(lp1607
I502
aI462
aI416
aI376
asI158
(lp1608
I520
aI462
aI432
aI374
asI159
(lp1609
I538
aI466
aI446
aI376
asI160
(lp1610
I554
aI460
aI462
aI372
asI161
(lp1611
I570
aI460
aI476
aI372
asI162
(lp1612
I586
aI460
aI488
aI368
asI163
(lp1613
I594
aI458
aI492
aI366
asI164
(lp1614
I604
aI460
aI506
aI362
asI165
(lp1615
I620
aI472
aI512
aI366
asI166
(lp1616
I628
aI478
aI520
aI372
asI167
(lp1617
I638
aI476
aI528
aI386
asI168
(lp1618
I644
aI476
aI534
aI386
asI169
(lp1619
I662
aI480
aI546
aI386
asI170
(lp1620
I676
aI492
aI558
aI390
asI171
(lp1621
I702
aI502
aI570
aI394
asI172
(lp1622
I714
aI508
aI582
aI400
asI173
(lp1623
I720
aI508
aI590
aI400
asI174
(lp1624
I726
aI512
aI596
aI396
asI175
(lp1625
I732
aI514
aI598
aI396
asI176
(lp1626
I740
aI514
aI602
aI396
asI177
(lp1627
I744
aI514
aI606
aI392
asI178
(lp1628
I752
aI516
aI610
aI392
asI179
(lp1629
I764
aI516
aI614
aI390
asI180
(lp1630
I770
aI516
aI616
aI386
asI181
(lp1631
I776
aI520
aI624
aI384
asI182
(lp1632
I778
aI520
aI624
aI382
asI183
(lp1633
I784
aI522
aI624
aI382
asI184
(lp1634
I796
aI524
aI624
aI384
asI185
(lp1635
I786
aI534
aI614
aI388
asI186
(lp1636
I780
aI538
aI606
aI398
asI187
(lp1637
I782
aI548
aI590
aI400
asI188
(lp1638
I770
aI560
aI578
aI408
asI189
(lp1639
I766
aI574
aI568
aI414
asI190
(lp1640
I756
aI588
aI558
aI420
asI191
(lp1641
I752
aI608
aI544
aI434
asI192
(lp1642
I752
aI624
aI532
aI438
asI193
(lp1643
I756
aI630
aI526
aI452
asI194
(lp1644
I748
aI646
aI516
aI458
asI195
(lp1645
I748
aI650
aI510
aI458
asI196
(lp1646
I748
aI658
aI504
aI458
asI197
(lp1647
I750
aI664
aI498
aI458
asI198
(lp1648
I748
aI670
aI492
aI458
asI199
(lp1649
I752
aI676
aI486
aI454
asI200
(lp1650
I750
aI676
aI478
aI448
asI201
(lp1651
I750
aI682
aI460
aI448
asI202
(lp1652
I750
aI674
aI460
aI440
asI203
(lp1653
I742
aI670
aI444
aI432
asI204
(lp1654
I740
aI664
aI434
aI422
asI205
(lp1655
I740
aI662
aI428
aI416
asI206
(lp1656
I746
aI668
aI422
aI404
asI207
(lp1657
I752
aI668
aI420
aI404
asI208
(lp1658
I750
aI668
aI406
aI404
asI209
(lp1659
I748
aI666
aI394
aI402
asI210
(lp1660
I736
aI664
aI372
aI398
asI211
(lp1661
I724
aI670
aI346
aI404
asI212
(lp1662
I728
aI684
aI308
aI402
asI213
(lp1663
I730
aI698
aI310
aI408
asI214
(lp1664
I734
aI702
aI314
aI412
asI215
(lp1665
I728
aI718
aI288
aI434
asI216
(lp1666
I728
aI718
aI288
aI434
asI217
(lp1667
I728
aI718
aI270
aI462
asI218
(lp1668
I718
aI718
aI240
aI474
asI219
(lp1669
I718
aI718
aI222
aI480
asI220
(lp1670
I720
aI718
aI206
aI484
asI221
(lp1671
I712
aI718
aI190
aI486
asI222
(lp1672
I712
aI718
aI172
aI486
asI223
(lp1673
I710
aI718
aI158
aI488
asI224
(lp1674
I708
aI718
aI140
aI488
asI225
(lp1675
I710
aI718
aI134
aI484
asI226
(lp1676
I708
aI718
aI120
aI480
asI227
(lp1677
I714
aI718
aI112
aI470
asI228
(lp1678
I716
aI718
aI110
aI464
asI229
(lp1679
I724
aI718
aI108
aI454
asI230
(lp1680
I730
aI718
aI104
aI444
asI231
(lp1681
I736
aI718
aI102
aI436
asI232
(lp1682
I744
aI718
aI96
aI426
asI233
(lp1683
I746
aI718
aI96
aI420
asI234
(lp1684
I750
aI718
aI82
aI416
asI235
(lp1685
I750
aI718
aI76
aI412
asI236
(lp1686
I750
aI718
aI76
aI412
asI237
(lp1687
I750
aI718
aI70
aI408
asI238
(lp1688
I756
aI718
aI72
aI392
asI239
(lp1689
I762
aI718
aI70
aI372
asI240
(lp1690
I768
aI718
aI76
aI360
asI241
(lp1691
I776
aI718
aI84
aI334
asI242
(lp1692
I784
aI718
aI100
aI334
asI243
(lp1693
I794
aI718
aI104
aI326
asI244
(lp1694
I796
aI718
aI106
aI318
asI245
(lp1695
I802
aI714
aI118
aI314
asI246
(lp1696
I802
aI702
aI118
aI302
asI247
(lp1697
I802
aI702
aI118
aI302
asI248
(lp1698
I804
aI698
aI120
aI298
asI249
(lp1699
I804
aI690
aI120
aI298
asI250
(lp1700
I804
aI674
aI120
aI282
asI251
(lp1701
I806
aI674
aI124
aI282
asI252
(lp1702
I806
aI660
aI124
aI272
asI253
(lp1703
I804
aI646
aI130
aI262
asI254
(lp1704
I802
aI636
aI128
aI252
asI255
(lp1705
I802
aI630
aI128
aI246
asI256
(lp1706
I802
aI630
aI128
aI246
asI257
(lp1707
I800
aI634
aI138
aI252
asI258
(lp1708
I800
aI634
aI138
aI252
asI259
(lp1709
I798
aI636
aI136
aI254
asI260
(lp1710
I794
aI638
aI132
aI256
asI261
(lp1711
I794
aI638
aI132
aI256
asI262
(lp1712
I794
aI640
aI132
aI258
asI263
(lp1713
I792
aI642
aI130
aI260
asI264
(lp1714
I792
aI642
aI130
aI260
asI265
(lp1715
I792
aI642
aI130
aI260
asI266
(lp1716
I790
aI646
aI128
aI264
asI267
(lp1717
I790
aI646
aI128
aI264
asI268
(lp1718
I786
aI648
aI126
aI266
asI269
(lp1719
I786
aI648
aI126
aI266
asI270
(lp1720
I786
aI652
aI126
aI268
asI271
(lp1721
I786
aI652
aI126
aI268
asI272
(lp1722
I786
aI652
aI126
aI268
asI273
(lp1723
I786
aI652
aI126
aI268
asI274
(lp1724
I786
aI652
aI126
aI268
asI275
(lp1725
I786
aI652
aI126
aI268
asI276
(lp1726
I786
aI652
aI126
aI268
asI277
(lp1727
I786
aI652
aI126
aI268
asI278
(lp1728
I786
aI652
aI126
aI268
asI279
(lp1729
I786
aI648
aI126
aI264
asI280
(lp1730
I786
aI648
aI126
aI264
asI281
(lp1731
I792
aI648
aI132
aI264
asI282
(lp1732
I792
aI648
aI132
aI264
asI283
(lp1733
I792
aI648
aI132
aI264
asI284
(lp1734
I800
aI652
aI132
aI264
asI285
(lp1735
I800
aI654
aI132
aI266
asI286
(lp1736
I804
aI656
aI132
aI266
asI287
(lp1737
I804
aI662
aI132
aI268
asI288
(lp1738
I810
aI666
aI132
aI272
assg169
F83.82905982905983
sg170
(lp1739
I00
aI00
aI00
aI00
aI00
aI00
aI00
aI00
aI00
aI00
aI00
aI00
aI00
aI00
aI00
aI00
aI00
aI00
aI00
aI00
aI00
aI00
aI00
aI00
aI00
aI00
aI00
aI00
aI00
aI00
aI00
aI00
aI00
aI00
aI00
aI00
aI00
aI00
aI00
aI00
aI00
aI00
aI00
aI00
aI00
aI00
aI00
aI00
aI00
aI00
aI00
aI00
aI00
aI00
aI00
aI00
aI00
aI00
aI00
aI00
aI00
aI00
aI00
aI00
aI00
aI00
aI00
aI00
aI00
aI00
aI00
aI00
aI00
aI00
aI00
aI00
aI00
aI00
aI00
aI00
aI00
aI00
aI00
aI00
aI00
aI00
aI00
aI00
aI00
aI00
aI00
aI00
aI00
aI00
aI00
aI00
aI00
aI00
aI00
aI00
aI00
aI00
aI00
aI00
aI00
asg172
(lp1740
S'00184'
p1741
aS'00185'
p1742
aS'00186'
p1743
aS'00187'
p1744
aS'00188'
p1745
aS'00189'
p1746
aS'00190'
p1747
aS'00191'
p1748
aS'00192'
p1749
aS'00193'
p1750
aS'00194'
p1751
aS'00195'
p1752
aS'00196'
p1753
aS'00197'
p1754
aS'00198'
p1755
aS'00199'
p1756
aS'00200'
p1757
aS'00201'
p1758
aS'00202'
p1759
aS'00203'
p1760
aS'00204'
p1761
aS'00205'
p1762
aS'00206'
p1763
aS'00207'
p1764
aS'00208'
p1765
aS'00209'
p1766
aS'00210'
p1767
aS'00211'
p1768
aS'00212'
p1769
aS'00213'
p1770
aS'00214'
p1771
aS'00215'
p1772
aS'00216'
p1773
aS'00217'
p1774
aS'00218'
p1775
aS'00219'
p1776
aS'00220'
p1777
aS'00221'
p1778
aS'00222'
p1779
aS'00223'
p1780
aS'00224'
p1781
aS'00225'
p1782
aS'00226'
p1783
aS'00227'
p1784
aS'00228'
p1785
aS'00229'
p1786
aS'00230'
p1787
aS'00231'
p1788
aS'00232'
p1789
aS'00233'
p1790
aS'00234'
p1791
aS'00235'
p1792
aS'00236'
p1793
aS'00237'
p1794
aS'00238'
p1795
aS'00239'
p1796
aS'00240'
p1797
aS'00241'
p1798
aS'00242'
p1799
aS'00243'
p1800
aS'00244'
p1801
aS'00245'
p1802
aS'00246'
p1803
aS'00247'
p1804
aS'00248'
p1805
aS'00249'
p1806
aS'00250'
p1807
aS'00251'
p1808
aS'00252'
p1809
aS'00253'
p1810
aS'00254'
p1811
aS'00255'
p1812
aS'00256'
p1813
aS'00257'
p1814
aS'00258'
p1815
aS'00259'
p1816
aS'00260'
p1817
aS'00261'
p1818
aS'00262'
p1819
aS'00263'
p1820
aS'00264'
p1821
aS'00265'
p1822
aS'00266'
p1823
aS'00267'
p1824
aS'00268'
p1825
aS'00269'
p1826
aS'00270'
p1827
aS'00271'
p1828
aS'00272'
p1829
aS'00273'
p1830
aS'00274'
p1831
aS'00275'
p1832
aS'00276'
p1833
aS'00277'
p1834
aS'00278'
p1835
aS'00279'
p1836
aS'00280'
p1837
aS'00281'
p1838
aS'00282'
p1839
aS'00283'
p1840
aS'00284'
p1841
aS'00285'
p1842
aS'00286'
p1843
aS'00287'
p1844
aS'00288'
p1845
asg239
(lp1846
I345
aI129
aI99
aI79
aI53
aI57
aI34
aI33
aI55
aI50
aI70
aI63
aI67
aI59
aI67
aI64
aI57
aI52
aI48
aI34
aI31
aI45
aI42
aI46
aI39
aI29
aI23
aI21
aI32
aI28
aI12
aI20
aI16
aI10
aI8
aI8
aI11
aI8
aI5
aI8
aI3
aI1
aI3
aI4
aI2
aI4
aI5
aI4
aI7
aI4
aI7
aI5
aI5
aI5
aI5
aI5
aI8
aI6
aI13
aI13
aI6
aI10
aI7
aI8
aI5
aI4
aI8
aI11
aI8
aI6
aI8
aI7
aI8
aI8
aI8
aI9
aI4
aI7
aI8
aI9
aI8
aI9
aI9
aI5
aI8
aI6
aI7
aI9
aI10
aI9
aI9
aI12
aI8
aI11
aI10
aI9
aI8
aI12
aI11
aI14
aI14
aI12
aI9
aI8
aI10
asg241
(lp1847
I345
aI149
aI108
aI86
aI58
aI64
aI41
aI38
aI61
aI56
aI76
aI70
aI72
aI65
aI77
aI72
aI61
aI54
aI56
aI41
aI32
aI54
aI47
aI58
aI54
aI49
aI39
aI30
aI38
aI32
aI15
aI23
aI22
aI12
aI11
aI9
aI14
aI13
aI11
aI11
aI8
aI9
aI11
aI9
aI9
aI14
aI11
aI13
aI13
aI9
aI9
aI13
aI12
aI12
aI6
aI6
aI12
aI8
aI17
aI16
aI9
aI11
aI10
aI8
aI8
aI4
aI12
aI14
aI13
aI8
aI11
aI8
aI10
aI11
aI10
aI14
aI7
aI8
aI11
aI12
aI10
aI9
aI11
aI7
aI11
aI6
aI9
aI9
aI11
aI12
aI13
aI13
aI10
aI14
aI10
aI11
aI11
aI14
aI11
aI18
aI14
aI14
aI13
aI11
aI13
asg243
(lp1848
F221.7746604100658
aF225.61028345356956
aF223.32935319836486
aF242.42112119202815
aF244.88364584022347
aF254.566297847928
aF259.6690201005888
aF271.1825953117198
aF288.0902636327719
aF290.83328557783756
aF298.61011369342464
aF305.7907781474124
aF315.49326458737596
aF325.48425461149424
aF332.38531856867564
aF346.4678917302439
aF354.91970923012997
aF372.63386856269517
aF372.63386856269517
aF381.37645443839347
aF390.1281840626232
aF397.3159951474393
aF417.93779441443195
aF424.16977732978575
aF433.62656745176486
aF441.6016304317728
aF450.8347812669293
aF462.21207253813697
aF505.8893159575521
aF510.3920062069938
aF510.3920062069938
aF523.6945674723006
aF523.6945674723006
aF524.6903848937962
aF536.674948176268
aF550.1454353168806
aF564.7583554052122
aF571.233752504174
aF587.7278281653847
aF598.0
aF612.800130548289
aF621.7169774101395
aF634.3406025157147
aF651.0821760730361
aF657.0783819301926
aF670.188033316024
aF683.3388617662544
aF693.8875989668644
aF710.7517147358844
aF715.0552426211558
aF733.0948096938076
aF740.2107807915256
aF740.2107807915256
aF747.3285756613352
aF757.7149859940741
aF773.6795202149273
aF779.1200164287912
aF791.403816013039
aF784.4182557794024
aF793.5767133680272
aF797.5587752636166
aF792.3736492337438
aF792.3736492337438
aF792.3736492337438
aF792.3736492337438
aF788.3653975156444
aF788.3653975156444
aF786.630790142364
aF784.6451427237665
aF775.7138647723141
aF775.7138647723141
aF775.7138647723141
aF775.7138647723141
aF764.3088381014575
aF764.3088381014575
aF764.3088381014575
aF764.3088381014575
aF764.3088381014575
aF764.3088381014575
aF764.3088381014575
aF764.3088381014575
aF764.3088381014575
aF764.3088381014575
aF764.3088381014575
aF762.5772092057302
aF762.5772092057302
aF763.5810369567856
aF763.5810369567856
aF763.5810369567856
aF763.5810369567856
aF763.5810369567856
aF763.5810369567856
aF763.5810369567856
aF763.5810369567856
aF763.5810369567856
aF763.5810369567856
aF763.5810369567856
aF763.5810369567856
aF763.5810369567856
aF763.5810369567856
aF772.5076051405579
aF772.5076051405579
aF776.9710419314223
aF778.9865210643892
aF784.1683492720169
asg245
(lp1849
F4.47213595499958
aF20.248456731316587
aF18.027756377319946
aF19.235384061671343
aF22.47220505424423
aF27.65863337187866
aF21.93171219946131
aF22.825424421026653
aF9.055385138137417
aF24.041630560342615
aF20.12461179749811
aF16.15549442140351
aF14.212670403551895
aF2.23606797749979
aF18.35755975068582
aF3.1622776601683795
aF7.211102550927978
aF15.297058540778355
aF30.14962686336267
aF54.12947441089743
aF35.510561809129406
aF26.476404589747453
aF15.811388300841896
aF48.46648326421054
aF41.88078318274385
aF99.32774033471213
aF97.52948272189288
aF97.082439194738
aF48.08326112068523
aF39.81205847478876
aF56.08029957123981
aF33.1058907144937
aF38.07886552931954
aF7.0710678118654755
aF111.6288493177279
aF105.38026380684383
aF30.23243291566195
aF21.633307652783937
aF278.4690287985362
aF43.41658669218482
aF384.2199890687625
aF449.2705198430006
aF441.72615951514575
aF348.5742388645495
aF437.2241987813575
aF439.0284728807461
aF101.96568050084302
aF49.4064773081425
aF84.52810183601665
aF140.6840431605518
aF174.23260314877925
aF458.8431104419026
aF131.5750736271882
aF98.29038610159185
aF157.08914666519772
aF157.99050604387594
aF95.42536350467836
aF144.53373308677806
aF105.1094667477673
aF88.05679985100527
aF117.44360348695028
aF71.11258679024411
aF68.06614430096654
aF82.28000972289685
aF172.12204972053988
aF120.30378215168466
aF94.08506789071261
aF179.2344832893492
aF130.50670480860362
aF24.73863375370596
aF83.38465086573187
aF142.00352108310554
aF89.26925562588724
aF108.90821823902914
aF56.08029957123981
aF53.16013544000805
aF40.607881008493905
aF99.53893710503444
aF109.04127658827184
aF104.5609869884557
aF28.231188426986208
aF64.8459713474939
aF69.77105417004964
aF86.2670273047588
aF97.0051545022222
aF92.20086767487604
aF28.319604517012593
aF100.84145972763385
aF28.844410203711913
aF107.00467279516349
aF93.04837451562494
aF60.8276253029822
aF23.08679276123039
aF87.09190547921202
aF136.194713553794
aF115.43396380615195
aF86.31338250816034
aF151.5585695366646
aF111.19802156513397
aF68.8839603971781
aF121.27654348636426
aF110.11357772772621
aF93.08598175880189
aF135.1332675546625
aF149.4824404403407
assI124
(dp1850
g2
(dp1851
I124
(lp1852
I122
aI460
aI44
aI398
asI125
(lp1853
I122
aI450
aI44
aI388
asI126
(lp1854
I122
aI450
aI44
aI388
asI127
(lp1855
I122
aI450
aI38
aI388
asI128
(lp1856
I114
aI454
aI30
aI392
asI129
(lp1857
I100
aI458
aI16
aI396
asI130
(lp1858
I90
aI466
aI6
aI394
asI131
(lp1859
I86
aI466
aI2
aI394
asI132
(lp1860
I86
aI464
aI2
aI392
asI133
(lp1861
I86
aI458
aI2
aI386
asI134
(lp1862
I98
aI458
aI10
aI386
asI135
(lp1863
I114
aI456
aI22
aI382
asI136
(lp1864
I128
aI450
aI38
aI376
asI137
(lp1865
I148
aI450
aI58
aI376
asI138
(lp1866
I170
aI446
aI80
aI372
asI139
(lp1867
I186
aI440
aI98
aI366
asI140
(lp1868
I198
aI436
aI110
aI362
asI141
(lp1869
I214
aI430
aI116
aI356
asI142
(lp1870
I232
aI430
aI134
aI356
asI143
(lp1871
I246
aI432
aI154
aI358
asI144
(lp1872
I262
aI436
aI174
aI362
asI145
(lp1873
I278
aI448
aI194
aI374
asI146
(lp1874
I296
aI452
aI212
aI378
asI147
(lp1875
I312
aI454
aI228
aI376
asI148
(lp1876
I338
aI458
aI250
aI380
asI149
(lp1877
I356
aI464
aI268
aI386
asI150
(lp1878
I394
aI468
aI306
aI386
asI151
(lp1879
I416
aI468
aI328
aI386
asI152
(lp1880
I432
aI472
aI344
aI390
asI153
(lp1881
I452
aI472
aI360
aI390
asI154
(lp1882
I468
aI470
aI376
aI388
asI155
(lp1883
I472
aI470
aI386
aI384
asI156
(lp1884
I486
aI464
aI400
aI378
asI157
(lp1885
I502
aI462
aI416
aI376
asI158
(lp1886
I520
aI462
aI432
aI374
asI159
(lp1887
I538
aI466
aI446
aI376
asI160
(lp1888
I554
aI460
aI462
aI372
asI161
(lp1889
I570
aI460
aI476
aI372
asI162
(lp1890
I586
aI460
aI488
aI368
asI163
(lp1891
I594
aI458
aI492
aI366
asI164
(lp1892
I604
aI460
aI506
aI362
asI165
(lp1893
I620
aI472
aI512
aI366
asI166
(lp1894
I628
aI478
aI520
aI372
asI167
(lp1895
I638
aI476
aI528
aI386
asI168
(lp1896
I644
aI476
aI534
aI386
asI169
(lp1897
I662
aI480
aI546
aI386
asI170
(lp1898
I676
aI492
aI558
aI390
asI171
(lp1899
I702
aI502
aI570
aI394
asI172
(lp1900
I714
aI508
aI582
aI400
asI173
(lp1901
I720
aI508
aI590
aI400
asI174
(lp1902
I726
aI512
aI596
aI396
asI175
(lp1903
I732
aI514
aI598
aI396
asI176
(lp1904
I740
aI514
aI602
aI396
asI177
(lp1905
I744
aI514
aI606
aI392
asI178
(lp1906
I752
aI516
aI610
aI392
asI179
(lp1907
I764
aI516
aI614
aI390
asI180
(lp1908
I770
aI516
aI616
aI386
asI181
(lp1909
I776
aI520
aI624
aI384
asI182
(lp1910
I778
aI520
aI624
aI382
asI183
(lp1911
I784
aI522
aI624
aI382
asI184
(lp1912
I796
aI524
aI624
aI384
asI185
(lp1913
I786
aI534
aI614
aI388
asI186
(lp1914
I780
aI538
aI606
aI398
asI187
(lp1915
I782
aI548
aI590
aI400
asI188
(lp1916
I770
aI560
aI578
aI408
asI189
(lp1917
I766
aI574
aI568
aI414
asI190
(lp1918
I756
aI588
aI558
aI420
asI191
(lp1919
I752
aI608
aI544
aI434
asI192
(lp1920
I752
aI624
aI532
aI438
asI193
(lp1921
I756
aI630
aI526
aI452
asI194
(lp1922
I748
aI646
aI516
aI458
asI195
(lp1923
I748
aI650
aI510
aI458
asI196
(lp1924
I748
aI658
aI504
aI458
asI197
(lp1925
I750
aI664
aI498
aI458
asI198
(lp1926
I748
aI670
aI492
aI458
asI199
(lp1927
I752
aI676
aI486
aI454
asI200
(lp1928
I750
aI676
aI478
aI448
asI201
(lp1929
I750
aI682
aI460
aI448
asI202
(lp1930
I750
aI674
aI460
aI440
asI203
(lp1931
I742
aI670
aI444
aI432
asI204
(lp1932
I740
aI664
aI434
aI422
asI205
(lp1933
I740
aI662
aI428
aI416
asI206
(lp1934
I746
aI668
aI422
aI404
asI207
(lp1935
I752
aI668
aI420
aI404
asI208
(lp1936
I750
aI668
aI406
aI404
asI209
(lp1937
I748
aI666
aI394
aI402
asI210
(lp1938
I736
aI664
aI372
aI398
asI211
(lp1939
I724
aI670
aI346
aI404
asI212
(lp1940
I728
aI684
aI308
aI402
asI213
(lp1941
I730
aI698
aI310
aI408
asI214
(lp1942
I734
aI702
aI314
aI412
asI215
(lp1943
I728
aI718
aI288
aI434
asI216
(lp1944
I728
aI718
aI288
aI434
asI217
(lp1945
I728
aI718
aI270
aI462
asI218
(lp1946
I718
aI718
aI240
aI474
asI219
(lp1947
I718
aI718
aI222
aI480
asI220
(lp1948
I720
aI718
aI206
aI484
asI221
(lp1949
I712
aI718
aI190
aI486
asI222
(lp1950
I712
aI718
aI172
aI486
asI223
(lp1951
I710
aI718
aI158
aI488
asI224
(lp1952
I708
aI718
aI140
aI488
asI225
(lp1953
I710
aI718
aI134
aI484
asI226
(lp1954
I708
aI718
aI120
aI480
asI227
(lp1955
I714
aI718
aI112
aI470
asI228
(lp1956
I716
aI718
aI110
aI464
asI229
(lp1957
I724
aI718
aI108
aI454
asI230
(lp1958
I730
aI718
aI104
aI444
asI231
(lp1959
I736
aI718
aI102
aI436
asI232
(lp1960
I744
aI718
aI96
aI426
asI233
(lp1961
I746
aI718
aI96
aI420
asI234
(lp1962
I750
aI718
aI82
aI416
asI235
(lp1963
I750
aI718
aI76
aI412
asI236
(lp1964
I750
aI718
aI76
aI412
asI237
(lp1965
I750
aI718
aI70
aI408
asI238
(lp1966
I756
aI718
aI72
aI392
asI239
(lp1967
I762
aI718
aI70
aI372
asI240
(lp1968
I768
aI718
aI76
aI360
asI241
(lp1969
I776
aI718
aI84
aI334
asI242
(lp1970
I784
aI718
aI100
aI334
asI243
(lp1971
I794
aI718
aI104
aI326
asI244
(lp1972
I796
aI718
aI106
aI318
asI245
(lp1973
I802
aI714
aI118
aI314
asI246
(lp1974
I802
aI702
aI118
aI302
asI247
(lp1975
I802
aI702
aI118
aI302
asI248
(lp1976
I804
aI698
aI120
aI298
asI249
(lp1977
I804
aI690
aI120
aI298
asI250
(lp1978
I804
aI674
aI120
aI282
asI251
(lp1979
I806
aI674
aI124
aI282
asI252
(lp1980
I806
aI660
aI124
aI272
asI253
(lp1981
I804
aI646
aI130
aI262
asI254
(lp1982
I802
aI636
aI128
aI252
asI255
(lp1983
I802
aI630
aI128
aI246
asI256
(lp1984
I802
aI630
aI128
aI246
asI257
(lp1985
I800
aI634
aI138
aI252
asI258
(lp1986
I800
aI634
aI138
aI252
asI259
(lp1987
I798
aI636
aI136
aI254
asI260
(lp1988
I794
aI638
aI132
aI256
asI261
(lp1989
I794
aI638
aI132
aI256
asI262
(lp1990
I794
aI640
aI132
aI258
asI263
(lp1991
I792
aI642
aI130
aI260
asI264
(lp1992
I792
aI642
aI130
aI260
asI265
(lp1993
I792
aI642
aI130
aI260
asI266
(lp1994
I790
aI646
aI128
aI264
asI267
(lp1995
I790
aI646
aI128
aI264
asI268
(lp1996
I786
aI648
aI126
aI266
asI269
(lp1997
I786
aI648
aI126
aI266
asI270
(lp1998
I786
aI652
aI126
aI268
asI271
(lp1999
I786
aI652
aI126
aI268
asI272
(lp2000
I786
aI652
aI126
aI268
asI273
(lp2001
I786
aI652
aI126
aI268
asI274
(lp2002
I786
aI652
aI126
aI268
asI275
(lp2003
I786
aI652
aI126
aI268
asI276
(lp2004
I786
aI652
aI126
aI268
asI277
(lp2005
I786
aI652
aI126
aI268
asI278
(lp2006
I786
aI652
aI126
aI268
asI279
(lp2007
I786
aI648
aI126
aI264
asI280
(lp2008
I786
aI648
aI126
aI264
asI281
(lp2009
I792
aI648
aI132
aI264
asI282
(lp2010
I792
aI648
aI132
aI264
asI283
(lp2011
I792
aI648
aI132
aI264
asI284
(lp2012
I800
aI652
aI132
aI264
asI285
(lp2013
I800
aI654
aI132
aI266
asI286
(lp2014
I804
aI656
aI132
aI266
asI287
(lp2015
I804
aI662
aI132
aI268
asI288
(lp2016
I810
aI666
aI132
aI272
assg169
F73.34963325183375
sg170
(lp2017
I00
aI00
aI00
aI00
aI00
aI00
aI00
aI00
aI00
aI00
aI00
aI00
aI00
aI00
aI00
aI00
aI00
aI00
aI00
aI00
aI00
aI00
aI00
aI00
aI00
aI00
aI00
aI00
aI00
aI00
aI00
aI00
aI00
aI00
aI00
aI00
aI00
aI00
aI00
aI00
aI00
aI00
aI00
aI00
aI00
aI00
aI00
aI00
aI00
aI00
aI00
aI00
aI00
aI00
aI00
aI00
aI00
aI00
aI00
aI00
aI00
aI00
aI00
aI00
aI00
aI00
aI00
aI00
aI00
aI00
aI00
aI00
aI00
aI00
aI00
aI00
aI00
aI00
aI00
aI00
aI00
aI00
aI00
aI00
aI00
aI00
aI00
aI00
aI00
aI00
aI00
aI00
aI00
aI00
aI00
aI00
aI00
aI00
aI00
aI00
aI00
aI00
aI00
aI00
aI00
aI00
aI00
asg172
(lp2018
S'00124'
p2019
aS'00125'
p2020
aS'00126'
p2021
aS'00127'
p2022
aS'00128'
p2023
aS'00129'
p2024
aS'00130'
p2025
aS'00131'
p2026
aS'00132'
p2027
aS'00133'
p2028
aS'00134'
p2029
aS'00135'
p2030
aS'00136'
p2031
aS'00137'
p2032
aS'00138'
p2033
aS'00139'
p2034
aS'00140'
p2035
aS'00141'
p2036
aS'00142'
p2037
aS'00145'
p2038
aS'00146'
p2039
aS'00147'
p2040
aS'00149'
p2041
aS'00153'
p2042
aS'00154'
p2043
aS'00155'
p2044
aS'00156'
p2045
aS'00157'
p2046
aS'00158'
p2047
aS'00159'
p2048
aS'00160'
p2049
aS'00161'
p2050
aS'00162'
p2051
aS'00163'
p2052
aS'00164'
p2053
aS'00165'
p2054
aS'00166'
p2055
aS'00167'
p2056
aS'00168'
p2057
aS'00169'
p2058
aS'00170'
p2059
aS'00171'
p2060
aS'00172'
p2061
aS'00173'
p2062
aS'00174'
p2063
aS'00175'
p2064
aS'00176'
p2065
aS'00177'
p2066
aS'00178'
p2067
aS'00179'
p2068
aS'00180'
p2069
aS'00181'
p2070
aS'00182'
p2071
aS'00183'
p2072
aS'00184'
p2073
aS'00185'
p2074
aS'00186'
p2075
aS'00187'
p2076
aS'00188'
p2077
aS'00190'
p2078
aS'00191'
p2079
aS'00192'
p2080
aS'00193'
p2081
aS'00194'
p2082
aS'00195'
p2083
aS'00196'
p2084
aS'00198'
p2085
aS'00200'
p2086
aS'00201'
p2087
aS'00202'
p2088
aS'00203'
p2089
aS'00204'
p2090
aS'00205'
p2091
aS'00206'
p2092
aS'00207'
p2093
aS'00209'
p2094
aS'00210'
p2095
aS'00211'
p2096
aS'00212'
p2097
aS'00213'
p2098
aS'00216'
p2099
aS'00221'
p2100
aS'00223'
p2101
aS'00225'
p2102
aS'00226'
p2103
aS'00227'
p2104
aS'00229'
p2105
aS'00230'
p2106
aS'00231'
p2107
aS'00233'
p2108
aS'00235'
p2109
aS'00238'
p2110
aS'00239'
p2111
aS'00240'
p2112
aS'00244'
p2113
aS'00247'
p2114
aS'00248'
p2115
aS'00257'
p2116
aS'00260'
p2117
aS'00262'
p2118
aS'00263'
p2119
aS'00264'
p2120
aS'00269'
p2121
aS'00270'
p2122
aS'00271'
p2123
aS'00282'
p2124
aS'00284'
p2125
asg239
(lp2126
I53
aI28
aI28
aI24
aI7
aI3
aI4
aI9
aI9
aI6
aI9
aI6
aI1
aI1
aI3
aI2
aI2
aI1
aI1
aI1
aI1
aI0
aI0
aI0
aI0
aI0
aI0
aI0
aI0
aI1
aI0
aI0
aI0
aI4
aI2
aI9
aI7
aI4
aI5
aI2
aI4
aI2
aI2
aI1
aI1
aI0
aI0
aI1
aI3
aI2
aI3
aI3
aI1
aI1
aI1
aI1
aI1
aI1
aI2
aI2
aI1
aI0
aI1
aI1
aI1
aI1
aI1
aI1
aI1
aI1
aI1
aI1
aI2
aI2
aI2
aI2
aI1
aI1
aI1
aI2
aI0
aI0
aI1
aI0
aI1
aI0
aI1
aI1
aI1
aI1
aI1
aI1
aI1
aI1
aI0
aI0
aI1
aI0
aI0
aI0
aI0
aI0
aI0
aI0
aI0
aI0
aI0
asg241
(lp2127
I53
aI35
aI32
aI24
aI7
aI3
aI4
aI9
aI10
aI8
aI9
aI6
aI2
aI3
aI3
aI2
aI2
aI2
aI4
aI2
aI1
aI1
aI1
aI1
aI2
aI3
aI2
aI1
aI1
aI2
aI1
aI2
aI4
aI5
aI7
aI11
aI7
aI5
aI7
aI5
aI7
aI2
aI4
aI3
aI3
aI3
aI1
aI3
aI4
aI3
aI5
aI5
aI3
aI3
aI1
aI1
aI2
aI2
aI6
aI2
aI2
aI1
aI1
aI1
aI2
aI2
aI1
aI1
aI1
aI2
aI1
aI1
aI2
aI2
aI2
aI2
aI1
aI1
aI1
aI2
aI1
aI1
aI2
aI1
aI1
aI1
aI1
aI1
aI1
aI1
aI1
aI1
aI1
aI1
aI1
aI1
aI1
aI1
aI1
aI1
aI1
aI1
aI1
aI1
aI1
aI1
aI1
asg243
(lp2128
F99.6393496566492
aF99.6393496566492
aF99.6393496566492
aF104.4030650891055
aF104.4030650891055
aF104.4030650891055
aF110.63453348751464
aF110.63453348751464
aF110.63453348751464
aF110.63453348751464
aF113.70136322841516
aF118.06777714516353
aF116.51609330903607
aF116.51609330903607
aF116.51609330903607
aF114.97825881443848
aF114.97825881443848
aF122.80065146407001
aF122.80065146407001
aF111.94641575325224
aF111.94641575325224
aF114.6298390472568
aF117.5925167687128
aF123.23960402403117
aF123.23960402403117
aF121.62236636408618
aF121.62236636408618
aF121.62236636408618
aF124.45079348883236
aF128.70120434556935
aF127.31064370271639
aF128.76334882255898
aF134.41726079637243
aF137.3608386695422
aF138.59292911256333
aF151.32745950421557
aF151.32745950421557
aF142.12670403551894
aF142.12670403551894
aF149.30505684671232
aF155.97435686676192
aF170.55204484262273
aF170.55204484262273
aF169.00887550658396
aF174.22973339817747
aF178.54971296532514
aF181.57092278225608
aF184.19554826325202
aF188.52055590836773
aF195.8979326077741
aF201.5341162185698
aF203.9607805437114
aF206.7849124090053
aF212.60291625469299
aF221.7746604100658
aF225.61028345356956
aF223.32935319836486
aF242.42112119202815
aF244.88364584022347
aF259.6690201005888
aF271.1825953117198
aF288.0902636327719
aF290.83328557783756
aF298.61011369342464
aF305.7907781474124
aF315.49326458737596
aF332.38531856867564
aF354.91970923012997
aF372.63386856269517
aF372.63386856269517
aF381.37645443839347
aF390.1281840626232
aF397.3159951474393
aF417.93779441443195
aF424.16977732978575
aF441.6016304317728
aF450.8347812669293
aF462.21207253813697
aF505.8893159575521
aF510.3920062069938
aF523.6945674723006
aF571.233752504174
aF598.0
aF621.7169774101395
aF634.3406025157147
aF651.0821760730361
aF670.188033316024
aF683.3388617662544
aF693.8875989668644
aF715.0552426211558
aF740.2107807915256
aF757.7149859940741
aF773.6795202149273
aF779.1200164287912
aF797.5587752636166
aF792.3736492337438
aF792.3736492337438
aF764.3088381014575
aF764.3088381014575
aF764.3088381014575
aF764.3088381014575
aF764.3088381014575
aF762.5772092057302
aF763.5810369567856
aF763.5810369567856
aF763.5810369567856
aF772.5076051405579
asg245
(lp2129
F7.0710678118654755
aF13.601470508735444
aF9.899494936611665
aF8.06225774829855
aF13.892443989449804
aF8.602325267042627
aF31.575306807693888
aF15.811388300841896
aF17.88854381999832
aF39.0
aF20.396078054371138
aF27.784887978899608
aF18.439088914585774
aF71.34423592694787
aF25.059928172283335
aF9.433981132056603
aF9.848857801796104
aF22.80350850198276
aF25.495097567963924
aF37.589892258425
aF19.1049731745428
aF202.80532537386685
aF74.33034373659252
aF54.405882034941776
aF6.082762530298219
aF34.828149534535996
aF200.8606482116395
aF74.84650960465692
aF49.39635614091387
aF16.55294535724685
aF52.20153254455275
aF52.08646657242167
aF6.0
aF1.0
aF9.848857801796104
aF6.082762530298219
aF8.94427190999916
aF17.26267650163207
aF6.324555320336759
aF20.396078054371138
aF24.758836806279895
aF11.40175425099138
aF47.095647357266465
aF31.0
aF50.44799302251776
aF44.68780594300866
aF78.85429601486528
aF50.44799302251776
aF51.62363799656123
aF40.311288741492746
aF29.5296461204668
aF57.0087712549569
aF83.773504164503
aF53.14132102234569
aF34.828149534535996
aF27.16615541441225
aF37.12142238654117
aF65.06919393998976
aF80.62257748298549
aF11.704699910719626
aF183.50476833041697
aF131.3202193114221
aF106.89246933250256
aF107.54068997360952
aF82.21921916437786
aF85.14693182963201
aF44.598206241955516
aF124.77980605851253
aF124.53112060846478
aF148.4082207965583
aF133.7235955244997
aF138.63621460498698
aF90.02777349240623
aF95.77577981932593
aF96.17692030835673
aF97.86214794290998
aF169.53170794869024
aF170.07351351694948
aF170.8156901458411
aF115.95257651298655
aF508.4977876058066
aF453.15449903978663
aF311.27640450249356
aF769.8266038531015
aF169.64963896218583
aF528.887511669542
aF22.561028345356956
aF24.515301344262525
aF27.459060435491963
aF32.01562118716424
aF30.083217912982647
aF43.73785545725808
aF50.35871324805669
aF64.19501538281614
aF541.0009242136283
aF333.08407347094817
aF137.53544997563355
aF316.12813857674865
aF308.76528302255747
aF308.1720298794165
aF308.4234102658227
aF306.54363474063524
aF305.26218239408564
aF308.4234102658227
aF307.82624969290714
aF309.58359129643804
aF309.9435432461854
ass.