(dp0
I224
(dp1
S'frame numbers'
p2
(lp3
S'00224'
p4
aS'00225'
p5
aS'00226'
p6
aS'00227'
p7
aS'00228'
p8
aS'00229'
p9
aS'00230'
p10
aS'00231'
p11
aS'00232'
p12
aS'00233'
p13
aS'00234'
p14
aS'00235'
p15
aS'00236'
p16
aS'00237'
p17
aS'00238'
p18
aS'00239'
p19
aS'00240'
p20
aS'00241'
p21
aS'00242'
p22
aS'00243'
p23
aS'00244'
p24
aS'00245'
p25
aS'00246'
p26
aS'00247'
p27
aS'00248'
p28
aS'00249'
p29
aS'00250'
p30
aS'00251'
p31
aS'00252'
p32
aS'00253'
p33
aS'00254'
p34
aS'00255'
p35
aS'00256'
p36
aS'00257'
p37
aS'00258'
p38
aS'00259'
p39
aS'00260'
p40
aS'00261'
p41
aS'00262'
p42
aS'00263'
p43
aS'00264'
p44
aS'00265'
p45
aS'00266'
p46
aS'00267'
p47
aS'00268'
p48
aS'00269'
p49
aS'00270'
p50
aS'00271'
p51
aS'00272'
p52
aS'00273'
p53
aS'00274'
p54
aS'00275'
p55
aS'00276'
p56
aS'00277'
p57
aS'00278'
p58
aS'00279'
p59
aS'00280'
p60
aS'00281'
p61
aS'00282'
p62
aS'00283'
p63
aS'00284'
p64
aS'00285'
p65
aS'00286'
p66
aS'00287'
p67
aS'00288'
p68
asS'correct kp matches'
p69
(lp70
I67
aI47
aI25
aI24
aI10
aI9
aI13
aI10
aI10
aI10
aI14
aI23
aI16
aI14
aI8
aI5
aI5
aI6
aI6
aI13
aI15
aI21
aI17
aI14
aI15
aI14
aI18
aI16
aI16
aI13
aI21
aI14
aI18
aI11
aI15
aI12
aI11
aI14
aI15
aI17
aI12
aI11
aI15
aI14
aI17
aI13
aI13
aI16
aI14
aI14
aI15
aI16
aI17
aI11
aI15
aI12
aI15
aI19
aI15
aI20
aI17
aI20
aI19
aI10
aI14
asS'total kp matches'
p71
(lp72
I67
aI47
aI25
aI24
aI12
aI9
aI13
aI10
aI10
aI10
aI15
aI23
aI17
aI15
aI9
aI5
aI5
aI7
aI6
aI14
aI16
aI21
aI17
aI14
aI16
aI14
aI18
aI16
aI16
aI13
aI21
aI14
aI18
aI15
aI15
aI14
aI11
aI14
aI15
aI17
aI12
aI13
aI15
aI15
aI18
aI14
aI13
aI17
aI15
aI15
aI15
aI16
aI18
aI11
aI15
aI12
aI15
aI19
aI17
aI20
aI17
aI20
aI19
aI11
aI14
asS'distance from center'
p73
(lp74
F87.93179174792243
aF78.43468620451031
aF58.69412236331676
aF43.46262762420146
aF25.0
aF40.496913462633174
aF22.20360331117452
aF22.47220505424423
aF32.7566787083184
aF14.7648230602334
aF6.324555320336759
aF16.76305461424021
aF20.248456731316587
aF13.45362404707371
aF68.70953354520753
aF61.05735008989499
aF79.93122043357026
aF55.17245689653489
aF33.24154027718932
aF46.06517122512408
aF54.405882034941776
aF62.64982043070834
aF55.57877292636101
aF67.72001181334805
aF53.23532661682466
aF53.9351462406472
aF63.071388124885914
aF90.0499861188218
aF80.15609770940699
aF74.96665925596525
aF80.09993757800315
aF72.80109889280519
aF62.16912416947821
aF75.0
aF69.77105417004964
aF65.5133574166368
aF75.64390259630977
aF60.207972893961475
aF60.63827174318213
aF58.52349955359813
aF56.293871780150276
aF59.22837157984339
aF73.17103251970687
aF66.06814663663572
aF77.23341245859851
aF68.6804193347711
aF65.80273550544841
aF67.35725647619564
aF60.01666435249463
aF63.198101237299845
aF61.98386886924694
aF72.44308110509934
aF68.06614430096654
aF60.07495318350236
aF63.50590523722971
aF58.855755878248644
aF63.06346010171025
aF72.06247289678588
aF78.26237921249263
aF63.694583757176716
aF80.09993757800315
aF74.52516353554684
aF78.63841300535
aF73.24616030891995
aF61.00819617067857
asS'overall accuracy'
p75
F97.31800766283524
ssI164
(dp76
g2
(lp77
S'00164'
p78
asg69
(lp79
sg71
(lp80
sg73
(lp81
sg75
I0
ssI264
(dp82
g2
(lp83
S'00264'
p84
aS'00265'
p85
aS'00266'
p86
aS'00267'
p87
aS'00268'
p88
aS'00269'
p89
aS'00270'
p90
aS'00271'
p91
aS'00272'
p92
aS'00273'
p93
aS'00274'
p94
aS'00275'
p95
aS'00276'
p96
aS'00277'
p97
aS'00278'
p98
aS'00279'
p99
aS'00280'
p100
aS'00281'
p101
aS'00282'
p102
aS'00283'
p103
aS'00284'
p104
aS'00285'
p105
aS'00286'
p106
aS'00287'
p107
aS'00288'
p108
asg69
(lp109
I349
aI249
aI227
aI229
aI239
aI219
aI219
aI215
aI222
aI224
aI224
aI210
aI233
aI226
aI230
aI231
aI230
aI224
aI247
aI238
aI242
aI250
aI228
aI231
aI216
asg71
(lp110
I349
aI254
aI231
aI231
aI240
aI221
aI221
aI218
aI227
aI229
aI229
aI216
aI237
aI229
aI232
aI236
aI233
aI228
aI251
aI239
aI242
aI251
aI229
aI233
aI222
asg73
(lp111
F79.40403012442127
aF72.11102550927978
aF66.48308055437865
aF66.85057965343307
aF64.8459713474939
aF67.54257916307313
aF67.62396025078685
aF64.40496875241847
aF69.8927750200262
aF70.77428911688199
aF62.96824596572466
aF67.23094525588644
aF65.19202405202648
aF68.9492567037528
aF68.54195795277518
aF69.92138442565336
aF68.15423684555495
aF69.07966415668217
aF68.4470598345904
aF74.09453421137081
aF75.76938695805846
aF72.2357252334328
aF77.3692445355388
aF73.53910524340094
aF76.05918747922567
asg75
F98.71794871794873
ssI284
(dp112
g2
(lp113
S'00284'
p114
aS'00285'
p115
aS'00286'
p116
aS'00287'
p117
aS'00288'
p118
asg69
(lp119
I405
aI304
aI291
aI267
aI253
asg71
(lp120
I405
aI306
aI293
aI271
aI260
asg73
(lp121
F85.38149682454625
aF78.0
aF78.77182237323191
aF82.63776376451628
aF78.54934754662193
asg75
F99.0228013029316
ssI204
(dp122
g2
(lp123
S'00204'
p124
aS'00205'
p125
aS'00206'
p126
aS'00207'
p127
aS'00208'
p128
aS'00209'
p129
aS'00210'
p130
aS'00211'
p131
aS'00212'
p132
aS'00213'
p133
aS'00214'
p134
aS'00216'
p135
aS'00217'
p136
aS'00219'
p137
aS'00220'
p138
aS'00221'
p139
aS'00222'
p140
aS'00223'
p141
aS'00224'
p142
aS'00225'
p143
aS'00226'
p144
aS'00227'
p145
aS'00228'
p146
aS'00229'
p147
aS'00230'
p148
aS'00231'
p149
aS'00232'
p150
aS'00233'
p151
aS'00234'
p152
aS'00235'
p153
aS'00236'
p154
aS'00237'
p155
aS'00238'
p156
aS'00239'
p157
aS'00240'
p158
aS'00241'
p159
aS'00242'
p160
aS'00243'
p161
aS'00244'
p162
aS'00245'
p163
aS'00246'
p164
aS'00247'
p165
aS'00248'
p166
aS'00249'
p167
aS'00250'
p168
aS'00251'
p169
aS'00252'
p170
aS'00253'
p171
aS'00254'
p172
aS'00255'
p173
aS'00256'
p174
aS'00257'
p175
aS'00258'
p176
aS'00259'
p177
aS'00260'
p178
aS'00261'
p179
aS'00262'
p180
aS'00263'
p181
aS'00264'
p182
aS'00265'
p183
aS'00266'
p184
aS'00267'
p185
aS'00268'
p186
aS'00269'
p187
aS'00270'
p188
aS'00271'
p189
aS'00272'
p190
aS'00273'
p191
aS'00274'
p192
aS'00275'
p193
aS'00276'
p194
aS'00277'
p195
aS'00278'
p196
aS'00279'
p197
aS'00280'
p198
aS'00281'
p199
aS'00282'
p200
aS'00283'
p201
aS'00284'
p202
aS'00285'
p203
aS'00286'
p204
aS'00287'
p205
aS'00288'
p206
asg69
(lp207
I133
aI55
aI34
aI34
aI34
aI9
aI5
aI10
aI18
aI17
aI7
aI1
aI0
aI1
aI1
aI0
aI1
aI2
aI2
aI5
aI6
aI4
aI6
aI1
aI2
aI3
aI5
aI5
aI4
aI4
aI5
aI4
aI3
aI4
aI2
aI1
aI2
aI4
aI3
aI2
aI2
aI4
aI6
aI2
aI5
aI3
aI3
aI3
aI5
aI5
aI4
aI4
aI4
aI3
aI4
aI3
aI4
aI6
aI4
aI4
aI5
aI2
aI2
aI1
aI2
aI3
aI2
aI1
aI2
aI2
aI1
aI1
aI5
aI2
aI2
aI2
aI3
aI3
aI5
aI1
aI4
aI5
aI5
asg71
(lp208
I133
aI55
aI34
aI34
aI36
aI15
aI10
aI19
aI19
aI18
aI9
aI3
aI1
aI2
aI3
aI7
aI6
aI4
aI3
aI7
aI7
aI4
aI7
aI3
aI3
aI3
aI5
aI5
aI4
aI5
aI7
aI4
aI5
aI4
aI2
aI2
aI3
aI5
aI3
aI3
aI3
aI5
aI7
aI3
aI5
aI3
aI3
aI3
aI6
aI5
aI4
aI6
aI4
aI3
aI4
aI3
aI4
aI6
aI4
aI4
aI5
aI2
aI3
aI1
aI2
aI3
aI2
aI2
aI2
aI3
aI2
aI1
aI5
aI2
aI2
aI2
aI3
aI3
aI5
aI1
aI4
aI5
aI5
asg73
(lp209
F30.4138126514911
aF34.058772731852805
aF39.11521443121589
aF51.894122981316485
aF33.97057550292606
aF74.33034373659252
aF108.00462953040486
aF124.82387592123551
aF33.24154027718932
aF51.24451190127583
aF58.18934610390462
aF436.58905162635494
aF516.3584026623369
aF269.77953962448674
aF192.76929216034384
aF406.06034034364893
aF374.5343775943672
aF79.47955712005447
aF29.732137494637012
aF26.248809496813376
aF34.713109915419565
aF46.06517122512408
aF39.6232255123179
aF389.9653830790625
aF57.0087712549569
aF68.11754546370561
aF53.85164807134504
aF62.51399843235114
aF50.0
aF53.0
aF31.78049716414141
aF54.91812087098393
aF73.00684899377592
aF30.4138126514911
aF78.77182237323191
aF48.16637831516918
aF29.154759474226502
aF96.25487000666512
aF46.87216658103186
aF44.10215414239989
aF39.81205847478876
aF49.47726750741192
aF47.16990566028302
aF63.953107821277925
aF50.48762224545735
aF42.04759208325728
aF36.61966684720111
aF41.43669871020132
aF59.61543424315552
aF91.0
aF74.95331880577403
aF59.135437767890075
aF69.8927750200262
aF61.29437168288782
aF65.30696746902278
aF63.50590523722971
aF46.647615158762406
aF75.45197147855052
aF50.24937810560445
aF78.29431652425353
aF86.4060183089118
aF38.897300677553446
aF21.93171219946131
aF126.8897158953396
aF88.50988645343524
aF54.3415126767741
aF33.94112549695428
aF11.40175425099138
aF16.76305461424021
aF76.94153624668537
aF87.46427842267951
aF110.27692415006868
aF72.94518489934754
aF119.54078801814885
aF43.41658669218482
aF116.1077086157504
aF62.297672508690084
aF27.892651361962706
aF103.61949623502326
aF28.861739379323623
aF66.21933252457322
aF50.32891812864648
aF80.02499609497022
asg75
F88.65030674846625
ssI144
(dp210
g2
(lp211
S'00144'
p212
asg69
(lp213
sg71
(lp214
sg73
(lp215
sg75
I0
ssI244
(dp216
g2
(lp217
S'00244'
p218
aS'00245'
p219
aS'00246'
p220
aS'00247'
p221
aS'00248'
p222
aS'00249'
p223
aS'00250'
p224
aS'00251'
p225
aS'00252'
p226
aS'00253'
p227
aS'00254'
p228
aS'00255'
p229
aS'00256'
p230
aS'00257'
p231
aS'00258'
p232
aS'00259'
p233
aS'00260'
p234
aS'00261'
p235
aS'00262'
p236
aS'00263'
p237
aS'00264'
p238
aS'00265'
p239
aS'00266'
p240
aS'00267'
p241
aS'00268'
p242
aS'00269'
p243
aS'00270'
p244
aS'00271'
p245
aS'00272'
p246
aS'00273'
p247
aS'00274'
p248
aS'00275'
p249
aS'00276'
p250
aS'00277'
p251
aS'00278'
p252
aS'00279'
p253
aS'00280'
p254
aS'00281'
p255
aS'00282'
p256
aS'00283'
p257
aS'00284'
p258
aS'00285'
p259
aS'00286'
p260
aS'00287'
p261
aS'00288'
p262
asg69
(lp263
I309
aI141
aI133
aI133
aI136
aI139
aI136
aI134
aI113
aI105
aI113
aI131
aI112
aI108
aI95
aI112
aI110
aI98
aI95
aI103
aI98
aI105
aI100
aI95
aI109
aI81
aI82
aI92
aI92
aI94
aI88
aI97
aI94
aI87
aI92
aI95
aI87
aI97
aI95
aI107
aI116
aI113
aI127
aI116
aI127
asg71
(lp264
I309
aI148
aI134
aI138
aI142
aI143
aI138
aI136
aI114
aI107
aI117
aI134
aI116
aI111
aI96
aI117
aI113
aI101
aI99
aI109
aI105
aI113
aI109
aI108
aI117
aI84
aI89
aI100
aI97
aI98
aI91
aI104
aI100
aI90
aI95
aI105
aI95
aI104
aI101
aI107
aI117
aI116
aI129
aI116
aI132
asg73
(lp265
F69.6419413859206
aF65.14598989960932
aF62.96824596572466
aF64.62197768561404
aF66.40783086353596
aF71.78439941937245
aF71.16881339463234
aF68.87670143089025
aF81.93289937503738
aF88.60022573334675
aF69.57010852370435
aF64.62197768561404
aF58.66856057549052
aF63.13477647065839
aF66.03029607687671
aF56.356011214421486
aF59.09314681077663
aF59.61543424315552
aF57.245087125446844
aF59.0592922409336
aF53.225933528685054
aF59.033888572581766
aF51.10772935672255
aF52.354560450833695
aF50.695167422546305
aF54.120236510939236
aF57.697486947006624
aF52.009614495783374
aF46.647615158762406
aF61.40032573203501
aF57.8013840664737
aF46.06517122512408
aF52.354560450833695
aF59.16924876994806
aF46.61544808322666
aF50.15974481593781
aF50.44799302251776
aF59.61543424315552
aF50.99019513592785
aF54.62600113499065
aF56.462376853972415
aF56.79788728465171
aF55.072679252057455
aF56.79788728465171
aF57.271284253105414
asg75
F96.14797864225781
ssI184
(dp266
g2
(lp267
S'00184'
p268
aS'00185'
p269
aS'00186'
p270
aS'00187'
p271
aS'00188'
p272
aS'00189'
p273
aS'00190'
p274
aS'00191'
p275
aS'00192'
p276
aS'00193'
p277
aS'00194'
p278
aS'00195'
p279
aS'00196'
p280
aS'00197'
p281
aS'00198'
p282
aS'00199'
p283
aS'00200'
p284
aS'00201'
p285
aS'00202'
p286
aS'00203'
p287
aS'00204'
p288
aS'00205'
p289
aS'00206'
p290
aS'00207'
p291
aS'00208'
p292
aS'00209'
p293
aS'00210'
p294
aS'00211'
p295
aS'00212'
p296
aS'00213'
p297
aS'00214'
p298
aS'00216'
p299
aS'00219'
p300
aS'00220'
p301
aS'00221'
p302
aS'00222'
p303
aS'00223'
p304
aS'00224'
p305
aS'00225'
p306
aS'00226'
p307
aS'00227'
p308
aS'00228'
p309
aS'00229'
p310
aS'00230'
p311
aS'00231'
p312
aS'00232'
p313
aS'00233'
p314
aS'00234'
p315
aS'00235'
p316
aS'00236'
p317
aS'00237'
p318
aS'00239'
p319
aS'00240'
p320
aS'00242'
p321
aS'00243'
p322
aS'00244'
p323
aS'00245'
p324
aS'00247'
p325
aS'00248'
p326
aS'00249'
p327
aS'00251'
p328
aS'00252'
p329
aS'00253'
p330
aS'00254'
p331
aS'00255'
p332
aS'00256'
p333
aS'00257'
p334
aS'00259'
p335
aS'00260'
p336
aS'00261'
p337
aS'00262'
p338
aS'00263'
p339
aS'00266'
p340
aS'00267'
p341
aS'00268'
p342
aS'00269'
p343
aS'00270'
p344
aS'00271'
p345
aS'00272'
p346
aS'00273'
p347
aS'00274'
p348
aS'00275'
p349
aS'00276'
p350
aS'00277'
p351
aS'00278'
p352
aS'00279'
p353
aS'00280'
p354
aS'00281'
p355
aS'00282'
p356
aS'00283'
p357
aS'00284'
p358
aS'00285'
p359
aS'00286'
p360
aS'00287'
p361
aS'00288'
p362
asg69
(lp363
I121
aI22
aI10
aI7
aI1
aI0
aI4
aI1
aI6
aI7
aI13
aI30
aI40
aI39
aI49
aI33
aI27
aI22
aI10
aI11
aI14
aI31
aI31
aI26
aI30
aI4
aI1
aI8
aI12
aI13
aI5
aI1
aI0
aI1
aI2
aI3
aI2
aI3
aI2
aI0
aI2
aI3
aI4
aI5
aI2
aI5
aI1
aI1
aI2
aI1
aI1
aI2
aI1
aI1
aI2
aI1
aI1
aI1
aI1
aI2
aI2
aI1
aI3
aI0
aI2
aI2
aI1
aI2
aI2
aI2
aI1
aI1
aI3
aI2
aI1
aI2
aI3
aI5
aI6
aI2
aI1
aI3
aI5
aI3
aI3
aI4
aI2
aI3
aI1
aI4
aI1
aI4
aI2
aI1
aI2
asg71
(lp364
I121
aI28
aI11
aI10
aI3
aI1
aI5
aI1
aI6
aI7
aI16
aI36
aI46
aI45
aI54
aI37
aI33
aI25
aI14
aI19
aI19
aI37
aI32
aI26
aI31
aI13
aI10
aI15
aI15
aI13
aI6
aI1
aI2
aI2
aI4
aI5
aI4
aI4
aI2
aI1
aI3
aI4
aI4
aI6
aI3
aI5
aI2
aI2
aI3
aI1
aI1
aI2
aI1
aI1
aI2
aI1
aI2
aI1
aI1
aI2
aI2
aI1
aI3
aI1
aI2
aI2
aI1
aI2
aI3
aI2
aI1
aI1
aI3
aI2
aI1
aI2
aI3
aI5
aI6
aI2
aI1
aI3
aI6
aI3
aI3
aI4
aI2
aI3
aI1
aI4
aI1
aI4
aI2
aI1
aI2
asg73
(lp365
F24.596747752497688
aF21.37755832643195
aF23.853720883753127
aF33.83784863137726
aF218.40329667841556
aF344.431415524194
aF55.31726674375732
aF46.32493928760188
aF45.5411901469428
aF44.14748010928823
aF41.048751503547585
aF28.861739379323623
aF27.85677655436824
aF30.886890422961002
aF35.35533905932738
aF36.359317925395686
aF27.16615541441225
aF32.7566787083184
aF39.56008088970496
aF56.61271941887264
aF39.92492955535426
aF27.80287754891569
aF49.8196748283246
aF63.50590523722971
aF53.075418038862395
aF329.520864286315
aF484.06611118730467
aF114.0570032922135
aF41.48493702538308
aF64.88451279003334
aF63.812224534175265
aF90.80198235721508
aF497.17803652212956
aF205.20477577288497
aF197.6486782146544
aF96.04686356149273
aF196.25493624365222
aF50.21951811795888
aF15.297058540778355
aF434.1946568072896
aF50.24937810560445
aF89.98888820293314
aF102.25947388873072
aF36.235341863986875
aF122.00409829181969
aF115.84903970253703
aF318.7789202566569
aF32.0624390837628
aF45.044422518220834
aF73.43704787094863
aF47.20169488482379
aF88.84255736976509
aF147.07821048680188
aF49.24428900898052
aF122.48265183282079
aF47.4236228055175
aF51.03920062069938
aF51.62363799656123
aF50.32891812864648
aF153.05554547287727
aF114.73883387938018
aF84.581321815162
aF114.82595525402782
aF555.3251299914313
aF63.60031446463138
aF108.75660899458019
aF52.773099207835045
aF124.19742348374221
aF95.46203433826454
aF112.92475370794483
aF169.61426826773743
aF168.9644933114647
aF96.25487000666512
aF108.04628637764465
aF164.63899902513984
aF120.20815280171308
aF125.39936203984452
aF72.01388754955533
aF62.16912416947821
aF120.88010589009261
aF167.57386431063765
aF92.69843580125827
aF82.29823813423954
aF149.88328792764054
aF91.02197536858887
aF104.546640309481
aF62.5859409132754
aF96.26006440887103
aF46.14108798023731
aF106.53168542738823
aF167.72596698186004
aF107.33592129385204
aF113.85077953180645
aF167.45148551147582
aF127.00393694685216
asg75
F85.53811659192824
ssI124
(dp366
g2
(lp367
S'00124'
p368
asg69
(lp369
sg71
(lp370
sg73
(lp371
sg75
I0
ss.