(dp0
S'SIFT'
p1
(lp2
I1065
aI9258
aF11.50356448476993
aF46.65400195121765
a(dp3
S'start_to_end_time'
p4
F0.9146303055333156
sS'kp_detect_time'
p5
F0.8973542381735409
sS'match_time'
p6
F0.011278858371809418
sS'open_time'
p7
F0.00471651320363961
sS'vis_time'
p8
F0.0
sasS'ORB'
p9
(lp10
I123
aI1560
aF7.884615384615384
aF1.7107648849487305
a(dp11
g4
F0.0335227741914637
sg5
F0.02834317730922325
sg6
F0.00036447655920888864
sg7
F0.004697037678138882
sg8
F0.0
sasS'BRISK'
p12
(lp13
I1672
aI12668
aF13.198610672560784
aF2.848106861114502
a(dp14
g4
F0.04367520294937433
sg5
F0.03773795857149012
sg6
F0.0008188930212282667
sg7
F0.00464935863719267
sg8
F0.0
sas.